	.arch armv7-a
	.eabi_attribute 20, 1
	.eabi_attribute 21, 1
	.eabi_attribute 23, 3
	.eabi_attribute 24, 1
	.eabi_attribute 25, 1
	.eabi_attribute 26, 2
	.eabi_attribute 30, 4
	.eabi_attribute 34, 1
	.eabi_attribute 18, 2
	.file	"mpp_enc_cfg.c"
	.text
	.syntax unified
	.syntax unified
	.thumb
	.syntax unified
	.align	1
	.global	set_base_low_delay
	.syntax unified
	.thumb
	.thumb_func
	.fpu softvfp
	.type	set_base_low_delay, %function
set_base_low_delay:
	.fnstart
	@ args = 0, pretend = 0, frame = 8
	@ frame_needed = 0, uses_anonymous_args = 0
	ldr	r3, .L10
	push	{r0, r1, r2, r4, r5, r6, r7, lr}
	.save {r4, r5, r6, r7, lr}
	.pad #12
	mov	r6, r0
	ldr	r3, [r3]
	mov	r7, r1
	str	r2, [sp, #4]
	lsls	r3, r3, #31
	bpl	.L2
	movs	r2, #242
	ldr	r1, .L10+4
	ldr	r0, .L10+8
	bl	printk
.L2:
	ldrh	r5, [r7, #4]
	add	r1, sp, #4
	ldrh	r4, [r7, #6]
	lsrs	r5, r5, #4
	add	r4, r4, r6
	mov	r2, r5
	mov	r0, r4
	bl	memcmp
	cbz	r0, .L3
	mov	r2, r5
	add	r1, sp, #4
	mov	r0, r4
	bl	memcpy
	ldrh	r2, [r7, #10]
	ldr	r3, [r6, r2]
	orr	r3, r3, #1
	str	r3, [r6, r2]
.L3:
	movs	r0, #0
	add	sp, sp, #12
	@ sp needed
	pop	{r4, r5, r6, r7, pc}
.L11:
	.align	2
.L10:
	.word	.LANCHOR0
	.word	.LANCHOR1
	.word	.LC0
	.fnend
	.size	set_base_low_delay, .-set_base_low_delay
	.align	1
	.global	get_base_low_delay
	.syntax unified
	.thumb
	.thumb_func
	.fpu softvfp
	.type	get_base_low_delay, %function
get_base_low_delay:
	.fnstart
	@ args = 0, pretend = 0, frame = 0
	@ frame_needed = 0, uses_anonymous_args = 0
	ldr	r3, .L17
	push	{r4, r5, r6, lr}
	.save {r4, r5, r6, lr}
	mov	r6, r0
	ldr	r3, [r3]
	mov	r4, r1
	mov	r5, r2
	lsls	r3, r3, #31
	bpl	.L13
	movs	r2, #242
	ldr	r1, .L17+4
	ldr	r0, .L17+8
	bl	printk
.L13:
	ldrh	r2, [r4, #4]
	mov	r0, r5
	ldrh	r1, [r4, #6]
	lsrs	r2, r2, #4
	add	r1, r1, r6
	bl	memcpy
	movs	r0, #0
	pop	{r4, r5, r6, pc}
.L18:
	.align	2
.L17:
	.word	.LANCHOR0
	.word	.LANCHOR1+19
	.word	.LC0
	.fnend
	.size	get_base_low_delay, .-get_base_low_delay
	.align	1
	.global	set_rc_mode
	.syntax unified
	.thumb
	.thumb_func
	.fpu softvfp
	.type	set_rc_mode, %function
set_rc_mode:
	.fnstart
	@ args = 0, pretend = 0, frame = 8
	@ frame_needed = 0, uses_anonymous_args = 0
	ldr	r3, .L28
	push	{r0, r1, r2, r4, r5, r6, r7, lr}
	.save {r4, r5, r6, r7, lr}
	.pad #12
	mov	r6, r0
	ldr	r3, [r3]
	mov	r7, r1
	str	r2, [sp, #4]
	lsls	r3, r3, #31
	bpl	.L20
	movs	r2, #242
	ldr	r1, .L28+4
	ldr	r0, .L28+8
	bl	printk
.L20:
	ldrh	r5, [r7, #4]
	add	r1, sp, #4
	ldrh	r4, [r7, #6]
	lsrs	r5, r5, #4
	add	r4, r4, r6
	mov	r2, r5
	mov	r0, r4
	bl	memcmp
	cbz	r0, .L21
	mov	r2, r5
	add	r1, sp, #4
	mov	r0, r4
	bl	memcpy
	ldrh	r2, [r7, #10]
	ldr	r3, [r6, r2]
	orr	r3, r3, #1
	str	r3, [r6, r2]
.L21:
	movs	r0, #0
	add	sp, sp, #12
	@ sp needed
	pop	{r4, r5, r6, r7, pc}
.L29:
	.align	2
.L28:
	.word	.LANCHOR0
	.word	.LANCHOR1+38
	.word	.LC0
	.fnend
	.size	set_rc_mode, .-set_rc_mode
	.align	1
	.global	get_rc_mode
	.syntax unified
	.thumb
	.thumb_func
	.fpu softvfp
	.type	get_rc_mode, %function
get_rc_mode:
	.fnstart
	@ args = 0, pretend = 0, frame = 0
	@ frame_needed = 0, uses_anonymous_args = 0
	ldr	r3, .L35
	push	{r4, r5, r6, lr}
	.save {r4, r5, r6, lr}
	mov	r6, r0
	ldr	r3, [r3]
	mov	r4, r1
	mov	r5, r2
	lsls	r3, r3, #31
	bpl	.L31
	movs	r2, #242
	ldr	r1, .L35+4
	ldr	r0, .L35+8
	bl	printk
.L31:
	ldrh	r2, [r4, #4]
	mov	r0, r5
	ldrh	r1, [r4, #6]
	lsrs	r2, r2, #4
	add	r1, r1, r6
	bl	memcpy
	movs	r0, #0
	pop	{r4, r5, r6, pc}
.L36:
	.align	2
.L35:
	.word	.LANCHOR0
	.word	.LANCHOR1+50
	.word	.LC0
	.fnend
	.size	get_rc_mode, .-get_rc_mode
	.align	1
	.global	set_rc_bps_target
	.syntax unified
	.thumb
	.thumb_func
	.fpu softvfp
	.type	set_rc_bps_target, %function
set_rc_bps_target:
	.fnstart
	@ args = 0, pretend = 0, frame = 8
	@ frame_needed = 0, uses_anonymous_args = 0
	ldr	r3, .L46
	push	{r0, r1, r2, r4, r5, r6, r7, lr}
	.save {r4, r5, r6, r7, lr}
	.pad #12
	mov	r6, r0
	ldr	r3, [r3]
	mov	r7, r1
	str	r2, [sp, #4]
	lsls	r3, r3, #31
	bpl	.L38
	movs	r2, #242
	ldr	r1, .L46+4
	ldr	r0, .L46+8
	bl	printk
.L38:
	ldrh	r5, [r7, #4]
	add	r1, sp, #4
	ldrh	r4, [r7, #6]
	lsrs	r5, r5, #4
	add	r4, r4, r6
	mov	r2, r5
	mov	r0, r4
	bl	memcmp
	cbz	r0, .L39
	mov	r2, r5
	add	r1, sp, #4
	mov	r0, r4
	bl	memcpy
	ldrh	r2, [r7, #10]
	ldr	r3, [r6, r2]
	orr	r3, r3, #4
	str	r3, [r6, r2]
.L39:
	movs	r0, #0
	add	sp, sp, #12
	@ sp needed
	pop	{r4, r5, r6, r7, pc}
.L47:
	.align	2
.L46:
	.word	.LANCHOR0
	.word	.LANCHOR1+62
	.word	.LC0
	.fnend
	.size	set_rc_bps_target, .-set_rc_bps_target
	.align	1
	.global	get_rc_bps_target
	.syntax unified
	.thumb
	.thumb_func
	.fpu softvfp
	.type	get_rc_bps_target, %function
get_rc_bps_target:
	.fnstart
	@ args = 0, pretend = 0, frame = 0
	@ frame_needed = 0, uses_anonymous_args = 0
	ldr	r3, .L53
	push	{r4, r5, r6, lr}
	.save {r4, r5, r6, lr}
	mov	r6, r0
	ldr	r3, [r3]
	mov	r4, r1
	mov	r5, r2
	lsls	r3, r3, #31
	bpl	.L49
	movs	r2, #242
	ldr	r1, .L53+4
	ldr	r0, .L53+8
	bl	printk
.L49:
	ldrh	r2, [r4, #4]
	mov	r0, r5
	ldrh	r1, [r4, #6]
	lsrs	r2, r2, #4
	add	r1, r1, r6
	bl	memcpy
	movs	r0, #0
	pop	{r4, r5, r6, pc}
.L54:
	.align	2
.L53:
	.word	.LANCHOR0
	.word	.LANCHOR1+80
	.word	.LC0
	.fnend
	.size	get_rc_bps_target, .-get_rc_bps_target
	.align	1
	.global	set_rc_bps_max
	.syntax unified
	.thumb
	.thumb_func
	.fpu softvfp
	.type	set_rc_bps_max, %function
set_rc_bps_max:
	.fnstart
	@ args = 0, pretend = 0, frame = 8
	@ frame_needed = 0, uses_anonymous_args = 0
	ldr	r3, .L64
	push	{r0, r1, r2, r4, r5, r6, r7, lr}
	.save {r4, r5, r6, r7, lr}
	.pad #12
	mov	r6, r0
	ldr	r3, [r3]
	mov	r7, r1
	str	r2, [sp, #4]
	lsls	r3, r3, #31
	bpl	.L56
	movs	r2, #242
	ldr	r1, .L64+4
	ldr	r0, .L64+8
	bl	printk
.L56:
	ldrh	r5, [r7, #4]
	add	r1, sp, #4
	ldrh	r4, [r7, #6]
	lsrs	r5, r5, #4
	add	r4, r4, r6
	mov	r2, r5
	mov	r0, r4
	bl	memcmp
	cbz	r0, .L57
	mov	r2, r5
	add	r1, sp, #4
	mov	r0, r4
	bl	memcpy
	ldrh	r2, [r7, #10]
	ldr	r3, [r6, r2]
	orr	r3, r3, #4
	str	r3, [r6, r2]
.L57:
	movs	r0, #0
	add	sp, sp, #12
	@ sp needed
	pop	{r4, r5, r6, r7, pc}
.L65:
	.align	2
.L64:
	.word	.LANCHOR0
	.word	.LANCHOR1+98
	.word	.LC0
	.fnend
	.size	set_rc_bps_max, .-set_rc_bps_max
	.align	1
	.global	get_rc_bps_max
	.syntax unified
	.thumb
	.thumb_func
	.fpu softvfp
	.type	get_rc_bps_max, %function
get_rc_bps_max:
	.fnstart
	@ args = 0, pretend = 0, frame = 0
	@ frame_needed = 0, uses_anonymous_args = 0
	ldr	r3, .L71
	push	{r4, r5, r6, lr}
	.save {r4, r5, r6, lr}
	mov	r6, r0
	ldr	r3, [r3]
	mov	r4, r1
	mov	r5, r2
	lsls	r3, r3, #31
	bpl	.L67
	movs	r2, #242
	ldr	r1, .L71+4
	ldr	r0, .L71+8
	bl	printk
.L67:
	ldrh	r2, [r4, #4]
	mov	r0, r5
	ldrh	r1, [r4, #6]
	lsrs	r2, r2, #4
	add	r1, r1, r6
	bl	memcpy
	movs	r0, #0
	pop	{r4, r5, r6, pc}
.L72:
	.align	2
.L71:
	.word	.LANCHOR0
	.word	.LANCHOR1+113
	.word	.LC0
	.fnend
	.size	get_rc_bps_max, .-get_rc_bps_max
	.align	1
	.global	set_rc_bps_min
	.syntax unified
	.thumb
	.thumb_func
	.fpu softvfp
	.type	set_rc_bps_min, %function
set_rc_bps_min:
	.fnstart
	@ args = 0, pretend = 0, frame = 8
	@ frame_needed = 0, uses_anonymous_args = 0
	ldr	r3, .L82
	push	{r0, r1, r2, r4, r5, r6, r7, lr}
	.save {r4, r5, r6, r7, lr}
	.pad #12
	mov	r6, r0
	ldr	r3, [r3]
	mov	r7, r1
	str	r2, [sp, #4]
	lsls	r3, r3, #31
	bpl	.L74
	movs	r2, #242
	ldr	r1, .L82+4
	ldr	r0, .L82+8
	bl	printk
.L74:
	ldrh	r5, [r7, #4]
	add	r1, sp, #4
	ldrh	r4, [r7, #6]
	lsrs	r5, r5, #4
	add	r4, r4, r6
	mov	r2, r5
	mov	r0, r4
	bl	memcmp
	cbz	r0, .L75
	mov	r2, r5
	add	r1, sp, #4
	mov	r0, r4
	bl	memcpy
	ldrh	r2, [r7, #10]
	ldr	r3, [r6, r2]
	orr	r3, r3, #4
	str	r3, [r6, r2]
.L75:
	movs	r0, #0
	add	sp, sp, #12
	@ sp needed
	pop	{r4, r5, r6, r7, pc}
.L83:
	.align	2
.L82:
	.word	.LANCHOR0
	.word	.LANCHOR1+128
	.word	.LC0
	.fnend
	.size	set_rc_bps_min, .-set_rc_bps_min
	.align	1
	.global	get_rc_bps_min
	.syntax unified
	.thumb
	.thumb_func
	.fpu softvfp
	.type	get_rc_bps_min, %function
get_rc_bps_min:
	.fnstart
	@ args = 0, pretend = 0, frame = 0
	@ frame_needed = 0, uses_anonymous_args = 0
	ldr	r3, .L89
	push	{r4, r5, r6, lr}
	.save {r4, r5, r6, lr}
	mov	r6, r0
	ldr	r3, [r3]
	mov	r4, r1
	mov	r5, r2
	lsls	r3, r3, #31
	bpl	.L85
	movs	r2, #242
	ldr	r1, .L89+4
	ldr	r0, .L89+8
	bl	printk
.L85:
	ldrh	r2, [r4, #4]
	mov	r0, r5
	ldrh	r1, [r4, #6]
	lsrs	r2, r2, #4
	add	r1, r1, r6
	bl	memcpy
	movs	r0, #0
	pop	{r4, r5, r6, pc}
.L90:
	.align	2
.L89:
	.word	.LANCHOR0
	.word	.LANCHOR1+143
	.word	.LC0
	.fnend
	.size	get_rc_bps_min, .-get_rc_bps_min
	.align	1
	.global	set_rc_fps_in_flex
	.syntax unified
	.thumb
	.thumb_func
	.fpu softvfp
	.type	set_rc_fps_in_flex, %function
set_rc_fps_in_flex:
	.fnstart
	@ args = 0, pretend = 0, frame = 8
	@ frame_needed = 0, uses_anonymous_args = 0
	ldr	r3, .L100
	push	{r0, r1, r2, r4, r5, r6, r7, lr}
	.save {r4, r5, r6, r7, lr}
	.pad #12
	mov	r6, r0
	ldr	r3, [r3]
	mov	r7, r1
	str	r2, [sp, #4]
	lsls	r3, r3, #31
	bpl	.L92
	movs	r2, #242
	ldr	r1, .L100+4
	ldr	r0, .L100+8
	bl	printk
.L92:
	ldrh	r5, [r7, #4]
	add	r1, sp, #4
	ldrh	r4, [r7, #6]
	lsrs	r5, r5, #4
	add	r4, r4, r6
	mov	r2, r5
	mov	r0, r4
	bl	memcmp
	cbz	r0, .L93
	mov	r2, r5
	add	r1, sp, #4
	mov	r0, r4
	bl	memcpy
	ldrh	r2, [r7, #10]
	ldr	r3, [r6, r2]
	orr	r3, r3, #32
	str	r3, [r6, r2]
.L93:
	movs	r0, #0
	add	sp, sp, #12
	@ sp needed
	pop	{r4, r5, r6, r7, pc}
.L101:
	.align	2
.L100:
	.word	.LANCHOR0
	.word	.LANCHOR1+158
	.word	.LC0
	.fnend
	.size	set_rc_fps_in_flex, .-set_rc_fps_in_flex
	.align	1
	.global	get_rc_fps_in_flex
	.syntax unified
	.thumb
	.thumb_func
	.fpu softvfp
	.type	get_rc_fps_in_flex, %function
get_rc_fps_in_flex:
	.fnstart
	@ args = 0, pretend = 0, frame = 0
	@ frame_needed = 0, uses_anonymous_args = 0
	ldr	r3, .L107
	push	{r4, r5, r6, lr}
	.save {r4, r5, r6, lr}
	mov	r6, r0
	ldr	r3, [r3]
	mov	r4, r1
	mov	r5, r2
	lsls	r3, r3, #31
	bpl	.L103
	movs	r2, #242
	ldr	r1, .L107+4
	ldr	r0, .L107+8
	bl	printk
.L103:
	ldrh	r2, [r4, #4]
	mov	r0, r5
	ldrh	r1, [r4, #6]
	lsrs	r2, r2, #4
	add	r1, r1, r6
	bl	memcpy
	movs	r0, #0
	pop	{r4, r5, r6, pc}
.L108:
	.align	2
.L107:
	.word	.LANCHOR0
	.word	.LANCHOR1+177
	.word	.LC0
	.fnend
	.size	get_rc_fps_in_flex, .-get_rc_fps_in_flex
	.align	1
	.global	set_rc_fps_in_num
	.syntax unified
	.thumb
	.thumb_func
	.fpu softvfp
	.type	set_rc_fps_in_num, %function
set_rc_fps_in_num:
	.fnstart
	@ args = 0, pretend = 0, frame = 8
	@ frame_needed = 0, uses_anonymous_args = 0
	ldr	r3, .L118
	push	{r0, r1, r2, r4, r5, r6, r7, lr}
	.save {r4, r5, r6, r7, lr}
	.pad #12
	mov	r6, r0
	ldr	r3, [r3]
	mov	r7, r1
	str	r2, [sp, #4]
	lsls	r3, r3, #31
	bpl	.L110
	movs	r2, #242
	ldr	r1, .L118+4
	ldr	r0, .L118+8
	bl	printk
.L110:
	ldrh	r5, [r7, #4]
	add	r1, sp, #4
	ldrh	r4, [r7, #6]
	lsrs	r5, r5, #4
	add	r4, r4, r6
	mov	r2, r5
	mov	r0, r4
	bl	memcmp
	cbz	r0, .L111
	mov	r2, r5
	add	r1, sp, #4
	mov	r0, r4
	bl	memcpy
	ldrh	r2, [r7, #10]
	ldr	r3, [r6, r2]
	orr	r3, r3, #32
	str	r3, [r6, r2]
.L111:
	movs	r0, #0
	add	sp, sp, #12
	@ sp needed
	pop	{r4, r5, r6, r7, pc}
.L119:
	.align	2
.L118:
	.word	.LANCHOR0
	.word	.LANCHOR1+196
	.word	.LC0
	.fnend
	.size	set_rc_fps_in_num, .-set_rc_fps_in_num
	.align	1
	.global	get_rc_fps_in_num
	.syntax unified
	.thumb
	.thumb_func
	.fpu softvfp
	.type	get_rc_fps_in_num, %function
get_rc_fps_in_num:
	.fnstart
	@ args = 0, pretend = 0, frame = 0
	@ frame_needed = 0, uses_anonymous_args = 0
	ldr	r3, .L125
	push	{r4, r5, r6, lr}
	.save {r4, r5, r6, lr}
	mov	r6, r0
	ldr	r3, [r3]
	mov	r4, r1
	mov	r5, r2
	lsls	r3, r3, #31
	bpl	.L121
	movs	r2, #242
	ldr	r1, .L125+4
	ldr	r0, .L125+8
	bl	printk
.L121:
	ldrh	r2, [r4, #4]
	mov	r0, r5
	ldrh	r1, [r4, #6]
	lsrs	r2, r2, #4
	add	r1, r1, r6
	bl	memcpy
	movs	r0, #0
	pop	{r4, r5, r6, pc}
.L126:
	.align	2
.L125:
	.word	.LANCHOR0
	.word	.LANCHOR1+214
	.word	.LC0
	.fnend
	.size	get_rc_fps_in_num, .-get_rc_fps_in_num
	.align	1
	.global	set_rc_fps_in_denorm
	.syntax unified
	.thumb
	.thumb_func
	.fpu softvfp
	.type	set_rc_fps_in_denorm, %function
set_rc_fps_in_denorm:
	.fnstart
	@ args = 0, pretend = 0, frame = 8
	@ frame_needed = 0, uses_anonymous_args = 0
	ldr	r3, .L136
	push	{r0, r1, r2, r4, r5, r6, r7, lr}
	.save {r4, r5, r6, r7, lr}
	.pad #12
	mov	r6, r0
	ldr	r3, [r3]
	mov	r7, r1
	str	r2, [sp, #4]
	lsls	r3, r3, #31
	bpl	.L128
	movs	r2, #242
	ldr	r1, .L136+4
	ldr	r0, .L136+8
	bl	printk
.L128:
	ldrh	r5, [r7, #4]
	add	r1, sp, #4
	ldrh	r4, [r7, #6]
	lsrs	r5, r5, #4
	add	r4, r4, r6
	mov	r2, r5
	mov	r0, r4
	bl	memcmp
	cbz	r0, .L129
	mov	r2, r5
	add	r1, sp, #4
	mov	r0, r4
	bl	memcpy
	ldrh	r2, [r7, #10]
	ldr	r3, [r6, r2]
	orr	r3, r3, #32
	str	r3, [r6, r2]
.L129:
	movs	r0, #0
	add	sp, sp, #12
	@ sp needed
	pop	{r4, r5, r6, r7, pc}
.L137:
	.align	2
.L136:
	.word	.LANCHOR0
	.word	.LANCHOR1+232
	.word	.LC0
	.fnend
	.size	set_rc_fps_in_denorm, .-set_rc_fps_in_denorm
	.align	1
	.global	get_rc_fps_in_denorm
	.syntax unified
	.thumb
	.thumb_func
	.fpu softvfp
	.type	get_rc_fps_in_denorm, %function
get_rc_fps_in_denorm:
	.fnstart
	@ args = 0, pretend = 0, frame = 0
	@ frame_needed = 0, uses_anonymous_args = 0
	ldr	r3, .L143
	push	{r4, r5, r6, lr}
	.save {r4, r5, r6, lr}
	mov	r6, r0
	ldr	r3, [r3]
	mov	r4, r1
	mov	r5, r2
	lsls	r3, r3, #31
	bpl	.L139
	movs	r2, #242
	ldr	r1, .L143+4
	ldr	r0, .L143+8
	bl	printk
.L139:
	ldrh	r2, [r4, #4]
	mov	r0, r5
	ldrh	r1, [r4, #6]
	lsrs	r2, r2, #4
	add	r1, r1, r6
	bl	memcpy
	movs	r0, #0
	pop	{r4, r5, r6, pc}
.L144:
	.align	2
.L143:
	.word	.LANCHOR0
	.word	.LANCHOR1+253
	.word	.LC0
	.fnend
	.size	get_rc_fps_in_denorm, .-get_rc_fps_in_denorm
	.align	1
	.global	set_rc_fps_out_flex
	.syntax unified
	.thumb
	.thumb_func
	.fpu softvfp
	.type	set_rc_fps_out_flex, %function
set_rc_fps_out_flex:
	.fnstart
	@ args = 0, pretend = 0, frame = 8
	@ frame_needed = 0, uses_anonymous_args = 0
	ldr	r3, .L154
	push	{r0, r1, r2, r4, r5, r6, r7, lr}
	.save {r4, r5, r6, r7, lr}
	.pad #12
	mov	r6, r0
	ldr	r3, [r3]
	mov	r7, r1
	str	r2, [sp, #4]
	lsls	r3, r3, #31
	bpl	.L146
	movs	r2, #242
	ldr	r1, .L154+4
	ldr	r0, .L154+8
	bl	printk
.L146:
	ldrh	r5, [r7, #4]
	add	r1, sp, #4
	ldrh	r4, [r7, #6]
	lsrs	r5, r5, #4
	add	r4, r4, r6
	mov	r2, r5
	mov	r0, r4
	bl	memcmp
	cbz	r0, .L147
	mov	r2, r5
	add	r1, sp, #4
	mov	r0, r4
	bl	memcpy
	ldrh	r2, [r7, #10]
	ldr	r3, [r6, r2]
	orr	r3, r3, #64
	str	r3, [r6, r2]
.L147:
	movs	r0, #0
	add	sp, sp, #12
	@ sp needed
	pop	{r4, r5, r6, r7, pc}
.L155:
	.align	2
.L154:
	.word	.LANCHOR0
	.word	.LANCHOR1+274
	.word	.LC0
	.fnend
	.size	set_rc_fps_out_flex, .-set_rc_fps_out_flex
	.align	1
	.global	get_rc_fps_out_flex
	.syntax unified
	.thumb
	.thumb_func
	.fpu softvfp
	.type	get_rc_fps_out_flex, %function
get_rc_fps_out_flex:
	.fnstart
	@ args = 0, pretend = 0, frame = 0
	@ frame_needed = 0, uses_anonymous_args = 0
	ldr	r3, .L161
	push	{r4, r5, r6, lr}
	.save {r4, r5, r6, lr}
	mov	r6, r0
	ldr	r3, [r3]
	mov	r4, r1
	mov	r5, r2
	lsls	r3, r3, #31
	bpl	.L157
	movs	r2, #242
	ldr	r1, .L161+4
	ldr	r0, .L161+8
	bl	printk
.L157:
	ldrh	r2, [r4, #4]
	mov	r0, r5
	ldrh	r1, [r4, #6]
	lsrs	r2, r2, #4
	add	r1, r1, r6
	bl	memcpy
	movs	r0, #0
	pop	{r4, r5, r6, pc}
.L162:
	.align	2
.L161:
	.word	.LANCHOR0
	.word	.LANCHOR1+294
	.word	.LC0
	.fnend
	.size	get_rc_fps_out_flex, .-get_rc_fps_out_flex
	.align	1
	.global	set_rc_fps_out_num
	.syntax unified
	.thumb
	.thumb_func
	.fpu softvfp
	.type	set_rc_fps_out_num, %function
set_rc_fps_out_num:
	.fnstart
	@ args = 0, pretend = 0, frame = 8
	@ frame_needed = 0, uses_anonymous_args = 0
	ldr	r3, .L172
	push	{r0, r1, r2, r4, r5, r6, r7, lr}
	.save {r4, r5, r6, r7, lr}
	.pad #12
	mov	r6, r0
	ldr	r3, [r3]
	mov	r7, r1
	str	r2, [sp, #4]
	lsls	r3, r3, #31
	bpl	.L164
	movs	r2, #242
	ldr	r1, .L172+4
	ldr	r0, .L172+8
	bl	printk
.L164:
	ldrh	r5, [r7, #4]
	add	r1, sp, #4
	ldrh	r4, [r7, #6]
	lsrs	r5, r5, #4
	add	r4, r4, r6
	mov	r2, r5
	mov	r0, r4
	bl	memcmp
	cbz	r0, .L165
	mov	r2, r5
	add	r1, sp, #4
	mov	r0, r4
	bl	memcpy
	ldrh	r2, [r7, #10]
	ldr	r3, [r6, r2]
	orr	r3, r3, #64
	str	r3, [r6, r2]
.L165:
	movs	r0, #0
	add	sp, sp, #12
	@ sp needed
	pop	{r4, r5, r6, r7, pc}
.L173:
	.align	2
.L172:
	.word	.LANCHOR0
	.word	.LANCHOR1+314
	.word	.LC0
	.fnend
	.size	set_rc_fps_out_num, .-set_rc_fps_out_num
	.align	1
	.global	get_rc_fps_out_num
	.syntax unified
	.thumb
	.thumb_func
	.fpu softvfp
	.type	get_rc_fps_out_num, %function
get_rc_fps_out_num:
	.fnstart
	@ args = 0, pretend = 0, frame = 0
	@ frame_needed = 0, uses_anonymous_args = 0
	ldr	r3, .L179
	push	{r4, r5, r6, lr}
	.save {r4, r5, r6, lr}
	mov	r6, r0
	ldr	r3, [r3]
	mov	r4, r1
	mov	r5, r2
	lsls	r3, r3, #31
	bpl	.L175
	movs	r2, #242
	ldr	r1, .L179+4
	ldr	r0, .L179+8
	bl	printk
.L175:
	ldrh	r2, [r4, #4]
	mov	r0, r5
	ldrh	r1, [r4, #6]
	lsrs	r2, r2, #4
	add	r1, r1, r6
	bl	memcpy
	movs	r0, #0
	pop	{r4, r5, r6, pc}
.L180:
	.align	2
.L179:
	.word	.LANCHOR0
	.word	.LANCHOR1+333
	.word	.LC0
	.fnend
	.size	get_rc_fps_out_num, .-get_rc_fps_out_num
	.align	1
	.global	set_rc_fps_out_denorm
	.syntax unified
	.thumb
	.thumb_func
	.fpu softvfp
	.type	set_rc_fps_out_denorm, %function
set_rc_fps_out_denorm:
	.fnstart
	@ args = 0, pretend = 0, frame = 8
	@ frame_needed = 0, uses_anonymous_args = 0
	ldr	r3, .L190
	push	{r0, r1, r2, r4, r5, r6, r7, lr}
	.save {r4, r5, r6, r7, lr}
	.pad #12
	mov	r6, r0
	ldr	r3, [r3]
	mov	r7, r1
	str	r2, [sp, #4]
	lsls	r3, r3, #31
	bpl	.L182
	movs	r2, #242
	ldr	r1, .L190+4
	ldr	r0, .L190+8
	bl	printk
.L182:
	ldrh	r5, [r7, #4]
	add	r1, sp, #4
	ldrh	r4, [r7, #6]
	lsrs	r5, r5, #4
	add	r4, r4, r6
	mov	r2, r5
	mov	r0, r4
	bl	memcmp
	cbz	r0, .L183
	mov	r2, r5
	add	r1, sp, #4
	mov	r0, r4
	bl	memcpy
	ldrh	r2, [r7, #10]
	ldr	r3, [r6, r2]
	orr	r3, r3, #64
	str	r3, [r6, r2]
.L183:
	movs	r0, #0
	add	sp, sp, #12
	@ sp needed
	pop	{r4, r5, r6, r7, pc}
.L191:
	.align	2
.L190:
	.word	.LANCHOR0
	.word	.LANCHOR1+352
	.word	.LC0
	.fnend
	.size	set_rc_fps_out_denorm, .-set_rc_fps_out_denorm
	.align	1
	.global	get_rc_fps_out_denorm
	.syntax unified
	.thumb
	.thumb_func
	.fpu softvfp
	.type	get_rc_fps_out_denorm, %function
get_rc_fps_out_denorm:
	.fnstart
	@ args = 0, pretend = 0, frame = 0
	@ frame_needed = 0, uses_anonymous_args = 0
	ldr	r3, .L197
	push	{r4, r5, r6, lr}
	.save {r4, r5, r6, lr}
	mov	r6, r0
	ldr	r3, [r3]
	mov	r4, r1
	mov	r5, r2
	lsls	r3, r3, #31
	bpl	.L193
	movs	r2, #242
	ldr	r1, .L197+4
	ldr	r0, .L197+8
	bl	printk
.L193:
	ldrh	r2, [r4, #4]
	mov	r0, r5
	ldrh	r1, [r4, #6]
	lsrs	r2, r2, #4
	add	r1, r1, r6
	bl	memcpy
	movs	r0, #0
	pop	{r4, r5, r6, pc}
.L198:
	.align	2
.L197:
	.word	.LANCHOR0
	.word	.LANCHOR1+374
	.word	.LC0
	.fnend
	.size	get_rc_fps_out_denorm, .-get_rc_fps_out_denorm
	.align	1
	.global	set_rc_gop
	.syntax unified
	.thumb
	.thumb_func
	.fpu softvfp
	.type	set_rc_gop, %function
set_rc_gop:
	.fnstart
	@ args = 0, pretend = 0, frame = 8
	@ frame_needed = 0, uses_anonymous_args = 0
	ldr	r3, .L208
	push	{r0, r1, r2, r4, r5, r6, r7, lr}
	.save {r4, r5, r6, r7, lr}
	.pad #12
	mov	r6, r0
	ldr	r3, [r3]
	mov	r7, r1
	str	r2, [sp, #4]
	lsls	r3, r3, #31
	bpl	.L200
	movs	r2, #242
	ldr	r1, .L208+4
	ldr	r0, .L208+8
	bl	printk
.L200:
	ldrh	r5, [r7, #4]
	add	r1, sp, #4
	ldrh	r4, [r7, #6]
	lsrs	r5, r5, #4
	add	r4, r4, r6
	mov	r2, r5
	mov	r0, r4
	bl	memcmp
	cbz	r0, .L201
	mov	r2, r5
	add	r1, sp, #4
	mov	r0, r4
	bl	memcpy
	ldrh	r2, [r7, #10]
	ldr	r3, [r6, r2]
	orr	r3, r3, #128
	str	r3, [r6, r2]
.L201:
	movs	r0, #0
	add	sp, sp, #12
	@ sp needed
	pop	{r4, r5, r6, r7, pc}
.L209:
	.align	2
.L208:
	.word	.LANCHOR0
	.word	.LANCHOR1+396
	.word	.LC0
	.fnend
	.size	set_rc_gop, .-set_rc_gop
	.align	1
	.global	get_rc_gop
	.syntax unified
	.thumb
	.thumb_func
	.fpu softvfp
	.type	get_rc_gop, %function
get_rc_gop:
	.fnstart
	@ args = 0, pretend = 0, frame = 0
	@ frame_needed = 0, uses_anonymous_args = 0
	ldr	r3, .L215
	push	{r4, r5, r6, lr}
	.save {r4, r5, r6, lr}
	mov	r6, r0
	ldr	r3, [r3]
	mov	r4, r1
	mov	r5, r2
	lsls	r3, r3, #31
	bpl	.L211
	movs	r2, #242
	ldr	r1, .L215+4
	ldr	r0, .L215+8
	bl	printk
.L211:
	ldrh	r2, [r4, #4]
	mov	r0, r5
	ldrh	r1, [r4, #6]
	lsrs	r2, r2, #4
	add	r1, r1, r6
	bl	memcpy
	movs	r0, #0
	pop	{r4, r5, r6, pc}
.L216:
	.align	2
.L215:
	.word	.LANCHOR0
	.word	.LANCHOR1+407
	.word	.LC0
	.fnend
	.size	get_rc_gop, .-get_rc_gop
	.align	1
	.global	set_rc_max_reenc_times
	.syntax unified
	.thumb
	.thumb_func
	.fpu softvfp
	.type	set_rc_max_reenc_times, %function
set_rc_max_reenc_times:
	.fnstart
	@ args = 0, pretend = 0, frame = 8
	@ frame_needed = 0, uses_anonymous_args = 0
	ldr	r3, .L226
	push	{r0, r1, r2, r4, r5, r6, r7, lr}
	.save {r4, r5, r6, r7, lr}
	.pad #12
	mov	r6, r0
	ldr	r3, [r3]
	mov	r7, r1
	str	r2, [sp, #4]
	lsls	r3, r3, #31
	bpl	.L218
	movs	r2, #242
	ldr	r1, .L226+4
	ldr	r0, .L226+8
	bl	printk
.L218:
	ldrh	r5, [r7, #4]
	add	r1, sp, #4
	ldrh	r4, [r7, #6]
	lsrs	r5, r5, #4
	add	r4, r4, r6
	mov	r2, r5
	mov	r0, r4
	bl	memcmp
	cbz	r0, .L219
	mov	r2, r5
	add	r1, sp, #4
	mov	r0, r4
	bl	memcpy
	ldrh	r2, [r7, #10]
	ldr	r3, [r6, r2]
	orr	r3, r3, #512
	str	r3, [r6, r2]
.L219:
	movs	r0, #0
	add	sp, sp, #12
	@ sp needed
	pop	{r4, r5, r6, r7, pc}
.L227:
	.align	2
.L226:
	.word	.LANCHOR0
	.word	.LANCHOR1+418
	.word	.LC0
	.fnend
	.size	set_rc_max_reenc_times, .-set_rc_max_reenc_times
	.align	1
	.global	get_rc_max_reenc_times
	.syntax unified
	.thumb
	.thumb_func
	.fpu softvfp
	.type	get_rc_max_reenc_times, %function
get_rc_max_reenc_times:
	.fnstart
	@ args = 0, pretend = 0, frame = 0
	@ frame_needed = 0, uses_anonymous_args = 0
	ldr	r3, .L233
	push	{r4, r5, r6, lr}
	.save {r4, r5, r6, lr}
	mov	r6, r0
	ldr	r3, [r3]
	mov	r4, r1
	mov	r5, r2
	lsls	r3, r3, #31
	bpl	.L229
	movs	r2, #242
	ldr	r1, .L233+4
	ldr	r0, .L233+8
	bl	printk
.L229:
	ldrh	r2, [r4, #4]
	mov	r0, r5
	ldrh	r1, [r4, #6]
	lsrs	r2, r2, #4
	add	r1, r1, r6
	bl	memcpy
	movs	r0, #0
	pop	{r4, r5, r6, pc}
.L234:
	.align	2
.L233:
	.word	.LANCHOR0
	.word	.LANCHOR1+441
	.word	.LC0
	.fnend
	.size	get_rc_max_reenc_times, .-get_rc_max_reenc_times
	.align	1
	.global	set_rc_priority
	.syntax unified
	.thumb
	.thumb_func
	.fpu softvfp
	.type	set_rc_priority, %function
set_rc_priority:
	.fnstart
	@ args = 0, pretend = 0, frame = 8
	@ frame_needed = 0, uses_anonymous_args = 0
	ldr	r3, .L244
	push	{r0, r1, r2, r4, r5, r6, r7, lr}
	.save {r4, r5, r6, r7, lr}
	.pad #12
	mov	r6, r0
	ldr	r3, [r3]
	mov	r7, r1
	str	r2, [sp, #4]
	lsls	r3, r3, #31
	bpl	.L236
	movs	r2, #242
	ldr	r1, .L244+4
	ldr	r0, .L244+8
	bl	printk
.L236:
	ldrh	r5, [r7, #4]
	add	r1, sp, #4
	ldrh	r4, [r7, #6]
	lsrs	r5, r5, #4
	add	r4, r4, r6
	mov	r2, r5
	mov	r0, r4
	bl	memcmp
	cbz	r0, .L237
	mov	r2, r5
	add	r1, sp, #4
	mov	r0, r4
	bl	memcpy
	ldrh	r2, [r7, #10]
	ldr	r3, [r6, r2]
	orr	r3, r3, #16384
	str	r3, [r6, r2]
.L237:
	movs	r0, #0
	add	sp, sp, #12
	@ sp needed
	pop	{r4, r5, r6, r7, pc}
.L245:
	.align	2
.L244:
	.word	.LANCHOR0
	.word	.LANCHOR1+464
	.word	.LC0
	.fnend
	.size	set_rc_priority, .-set_rc_priority
	.align	1
	.global	get_rc_priority
	.syntax unified
	.thumb
	.thumb_func
	.fpu softvfp
	.type	get_rc_priority, %function
get_rc_priority:
	.fnstart
	@ args = 0, pretend = 0, frame = 0
	@ frame_needed = 0, uses_anonymous_args = 0
	ldr	r3, .L251
	push	{r4, r5, r6, lr}
	.save {r4, r5, r6, lr}
	mov	r6, r0
	ldr	r3, [r3]
	mov	r4, r1
	mov	r5, r2
	lsls	r3, r3, #31
	bpl	.L247
	movs	r2, #242
	ldr	r1, .L251+4
	ldr	r0, .L251+8
	bl	printk
.L247:
	ldrh	r2, [r4, #4]
	mov	r0, r5
	ldrh	r1, [r4, #6]
	lsrs	r2, r2, #4
	add	r1, r1, r6
	bl	memcpy
	movs	r0, #0
	pop	{r4, r5, r6, pc}
.L252:
	.align	2
.L251:
	.word	.LANCHOR0
	.word	.LANCHOR1+480
	.word	.LC0
	.fnend
	.size	get_rc_priority, .-get_rc_priority
	.align	1
	.global	set_rc_drop_mode
	.syntax unified
	.thumb
	.thumb_func
	.fpu softvfp
	.type	set_rc_drop_mode, %function
set_rc_drop_mode:
	.fnstart
	@ args = 0, pretend = 0, frame = 8
	@ frame_needed = 0, uses_anonymous_args = 0
	ldr	r3, .L262
	push	{r0, r1, r2, r4, r5, r6, r7, lr}
	.save {r4, r5, r6, r7, lr}
	.pad #12
	mov	r6, r0
	ldr	r3, [r3]
	mov	r7, r1
	str	r2, [sp, #4]
	lsls	r3, r3, #31
	bpl	.L254
	movs	r2, #242
	ldr	r1, .L262+4
	ldr	r0, .L262+8
	bl	printk
.L254:
	ldrh	r5, [r7, #4]
	add	r1, sp, #4
	ldrh	r4, [r7, #6]
	lsrs	r5, r5, #4
	add	r4, r4, r6
	mov	r2, r5
	mov	r0, r4
	bl	memcmp
	cbz	r0, .L255
	mov	r2, r5
	add	r1, sp, #4
	mov	r0, r4
	bl	memcpy
	ldrh	r2, [r7, #10]
	ldr	r3, [r6, r2]
	orr	r3, r3, #1024
	str	r3, [r6, r2]
.L255:
	movs	r0, #0
	add	sp, sp, #12
	@ sp needed
	pop	{r4, r5, r6, r7, pc}
.L263:
	.align	2
.L262:
	.word	.LANCHOR0
	.word	.LANCHOR1+496
	.word	.LC0
	.fnend
	.size	set_rc_drop_mode, .-set_rc_drop_mode
	.align	1
	.global	get_rc_drop_mode
	.syntax unified
	.thumb
	.thumb_func
	.fpu softvfp
	.type	get_rc_drop_mode, %function
get_rc_drop_mode:
	.fnstart
	@ args = 0, pretend = 0, frame = 0
	@ frame_needed = 0, uses_anonymous_args = 0
	ldr	r3, .L269
	push	{r4, r5, r6, lr}
	.save {r4, r5, r6, lr}
	mov	r6, r0
	ldr	r3, [r3]
	mov	r4, r1
	mov	r5, r2
	lsls	r3, r3, #31
	bpl	.L265
	movs	r2, #242
	ldr	r1, .L269+4
	ldr	r0, .L269+8
	bl	printk
.L265:
	ldrh	r2, [r4, #4]
	mov	r0, r5
	ldrh	r1, [r4, #6]
	lsrs	r2, r2, #4
	add	r1, r1, r6
	bl	memcpy
	movs	r0, #0
	pop	{r4, r5, r6, pc}
.L270:
	.align	2
.L269:
	.word	.LANCHOR0
	.word	.LANCHOR1+513
	.word	.LC0
	.fnend
	.size	get_rc_drop_mode, .-get_rc_drop_mode
	.align	1
	.global	set_rc_drop_thd
	.syntax unified
	.thumb
	.thumb_func
	.fpu softvfp
	.type	set_rc_drop_thd, %function
set_rc_drop_thd:
	.fnstart
	@ args = 0, pretend = 0, frame = 8
	@ frame_needed = 0, uses_anonymous_args = 0
	ldr	r3, .L280
	push	{r0, r1, r2, r4, r5, r6, r7, lr}
	.save {r4, r5, r6, r7, lr}
	.pad #12
	mov	r6, r0
	ldr	r3, [r3]
	mov	r7, r1
	str	r2, [sp, #4]
	lsls	r3, r3, #31
	bpl	.L272
	movs	r2, #242
	ldr	r1, .L280+4
	ldr	r0, .L280+8
	bl	printk
.L272:
	ldrh	r5, [r7, #4]
	add	r1, sp, #4
	ldrh	r4, [r7, #6]
	lsrs	r5, r5, #4
	add	r4, r4, r6
	mov	r2, r5
	mov	r0, r4
	bl	memcmp
	cbz	r0, .L273
	mov	r2, r5
	add	r1, sp, #4
	mov	r0, r4
	bl	memcpy
	ldrh	r2, [r7, #10]
	ldr	r3, [r6, r2]
	orr	r3, r3, #1024
	str	r3, [r6, r2]
.L273:
	movs	r0, #0
	add	sp, sp, #12
	@ sp needed
	pop	{r4, r5, r6, r7, pc}
.L281:
	.align	2
.L280:
	.word	.LANCHOR0
	.word	.LANCHOR1+530
	.word	.LC0
	.fnend
	.size	set_rc_drop_thd, .-set_rc_drop_thd
	.align	1
	.global	get_rc_drop_thd
	.syntax unified
	.thumb
	.thumb_func
	.fpu softvfp
	.type	get_rc_drop_thd, %function
get_rc_drop_thd:
	.fnstart
	@ args = 0, pretend = 0, frame = 0
	@ frame_needed = 0, uses_anonymous_args = 0
	ldr	r3, .L287
	push	{r4, r5, r6, lr}
	.save {r4, r5, r6, lr}
	mov	r6, r0
	ldr	r3, [r3]
	mov	r4, r1
	mov	r5, r2
	lsls	r3, r3, #31
	bpl	.L283
	movs	r2, #242
	ldr	r1, .L287+4
	ldr	r0, .L287+8
	bl	printk
.L283:
	ldrh	r2, [r4, #4]
	mov	r0, r5
	ldrh	r1, [r4, #6]
	lsrs	r2, r2, #4
	add	r1, r1, r6
	bl	memcpy
	movs	r0, #0
	pop	{r4, r5, r6, pc}
.L288:
	.align	2
.L287:
	.word	.LANCHOR0
	.word	.LANCHOR1+546
	.word	.LC0
	.fnend
	.size	get_rc_drop_thd, .-get_rc_drop_thd
	.align	1
	.global	set_rc_drop_gap
	.syntax unified
	.thumb
	.thumb_func
	.fpu softvfp
	.type	set_rc_drop_gap, %function
set_rc_drop_gap:
	.fnstart
	@ args = 0, pretend = 0, frame = 8
	@ frame_needed = 0, uses_anonymous_args = 0
	ldr	r3, .L298
	push	{r0, r1, r2, r4, r5, r6, r7, lr}
	.save {r4, r5, r6, r7, lr}
	.pad #12
	mov	r6, r0
	ldr	r3, [r3]
	mov	r7, r1
	str	r2, [sp, #4]
	lsls	r3, r3, #31
	bpl	.L290
	movs	r2, #242
	ldr	r1, .L298+4
	ldr	r0, .L298+8
	bl	printk
.L290:
	ldrh	r5, [r7, #4]
	add	r1, sp, #4
	ldrh	r4, [r7, #6]
	lsrs	r5, r5, #4
	add	r4, r4, r6
	mov	r2, r5
	mov	r0, r4
	bl	memcmp
	cbz	r0, .L291
	mov	r2, r5
	add	r1, sp, #4
	mov	r0, r4
	bl	memcpy
	ldrh	r2, [r7, #10]
	ldr	r3, [r6, r2]
	orr	r3, r3, #1024
	str	r3, [r6, r2]
.L291:
	movs	r0, #0
	add	sp, sp, #12
	@ sp needed
	pop	{r4, r5, r6, r7, pc}
.L299:
	.align	2
.L298:
	.word	.LANCHOR0
	.word	.LANCHOR1+562
	.word	.LC0
	.fnend
	.size	set_rc_drop_gap, .-set_rc_drop_gap
	.align	1
	.global	get_rc_drop_gap
	.syntax unified
	.thumb
	.thumb_func
	.fpu softvfp
	.type	get_rc_drop_gap, %function
get_rc_drop_gap:
	.fnstart
	@ args = 0, pretend = 0, frame = 0
	@ frame_needed = 0, uses_anonymous_args = 0
	ldr	r3, .L305
	push	{r4, r5, r6, lr}
	.save {r4, r5, r6, lr}
	mov	r6, r0
	ldr	r3, [r3]
	mov	r4, r1
	mov	r5, r2
	lsls	r3, r3, #31
	bpl	.L301
	movs	r2, #242
	ldr	r1, .L305+4
	ldr	r0, .L305+8
	bl	printk
.L301:
	ldrh	r2, [r4, #4]
	mov	r0, r5
	ldrh	r1, [r4, #6]
	lsrs	r2, r2, #4
	add	r1, r1, r6
	bl	memcpy
	movs	r0, #0
	pop	{r4, r5, r6, pc}
.L306:
	.align	2
.L305:
	.word	.LANCHOR0
	.word	.LANCHOR1+578
	.word	.LC0
	.fnend
	.size	get_rc_drop_gap, .-get_rc_drop_gap
	.align	1
	.global	set_rc_max_i_prop
	.syntax unified
	.thumb
	.thumb_func
	.fpu softvfp
	.type	set_rc_max_i_prop, %function
set_rc_max_i_prop:
	.fnstart
	@ args = 0, pretend = 0, frame = 8
	@ frame_needed = 0, uses_anonymous_args = 0
	ldr	r3, .L316
	push	{r0, r1, r2, r4, r5, r6, r7, lr}
	.save {r4, r5, r6, r7, lr}
	.pad #12
	mov	r6, r0
	ldr	r3, [r3]
	mov	r7, r1
	str	r2, [sp, #4]
	lsls	r3, r3, #31
	bpl	.L308
	movs	r2, #242
	ldr	r1, .L316+4
	ldr	r0, .L316+8
	bl	printk
.L308:
	ldrh	r5, [r7, #4]
	add	r1, sp, #4
	ldrh	r4, [r7, #6]
	lsrs	r5, r5, #4
	add	r4, r4, r6
	mov	r2, r5
	mov	r0, r4
	bl	memcmp
	cbz	r0, .L309
	mov	r2, r5
	add	r1, sp, #4
	mov	r0, r4
	bl	memcpy
	ldrh	r2, [r7, #10]
	ldr	r3, [r6, r2]
	orr	r3, r3, #2048
	str	r3, [r6, r2]
.L309:
	movs	r0, #0
	add	sp, sp, #12
	@ sp needed
	pop	{r4, r5, r6, r7, pc}
.L317:
	.align	2
.L316:
	.word	.LANCHOR0
	.word	.LANCHOR1+594
	.word	.LC0
	.fnend
	.size	set_rc_max_i_prop, .-set_rc_max_i_prop
	.align	1
	.global	get_rc_max_i_prop
	.syntax unified
	.thumb
	.thumb_func
	.fpu softvfp
	.type	get_rc_max_i_prop, %function
get_rc_max_i_prop:
	.fnstart
	@ args = 0, pretend = 0, frame = 0
	@ frame_needed = 0, uses_anonymous_args = 0
	ldr	r3, .L323
	push	{r4, r5, r6, lr}
	.save {r4, r5, r6, lr}
	mov	r6, r0
	ldr	r3, [r3]
	mov	r4, r1
	mov	r5, r2
	lsls	r3, r3, #31
	bpl	.L319
	movs	r2, #242
	ldr	r1, .L323+4
	ldr	r0, .L323+8
	bl	printk
.L319:
	ldrh	r2, [r4, #4]
	mov	r0, r5
	ldrh	r1, [r4, #6]
	lsrs	r2, r2, #4
	add	r1, r1, r6
	bl	memcpy
	movs	r0, #0
	pop	{r4, r5, r6, pc}
.L324:
	.align	2
.L323:
	.word	.LANCHOR0
	.word	.LANCHOR1+612
	.word	.LC0
	.fnend
	.size	get_rc_max_i_prop, .-get_rc_max_i_prop
	.align	1
	.global	set_rc_min_i_prop
	.syntax unified
	.thumb
	.thumb_func
	.fpu softvfp
	.type	set_rc_min_i_prop, %function
set_rc_min_i_prop:
	.fnstart
	@ args = 0, pretend = 0, frame = 8
	@ frame_needed = 0, uses_anonymous_args = 0
	ldr	r3, .L334
	push	{r0, r1, r2, r4, r5, r6, r7, lr}
	.save {r4, r5, r6, r7, lr}
	.pad #12
	mov	r6, r0
	ldr	r3, [r3]
	mov	r7, r1
	str	r2, [sp, #4]
	lsls	r3, r3, #31
	bpl	.L326
	movs	r2, #242
	ldr	r1, .L334+4
	ldr	r0, .L334+8
	bl	printk
.L326:
	ldrh	r5, [r7, #4]
	add	r1, sp, #4
	ldrh	r4, [r7, #6]
	lsrs	r5, r5, #4
	add	r4, r4, r6
	mov	r2, r5
	mov	r0, r4
	bl	memcmp
	cbz	r0, .L327
	mov	r2, r5
	add	r1, sp, #4
	mov	r0, r4
	bl	memcpy
	ldrh	r2, [r7, #10]
	ldr	r3, [r6, r2]
	orr	r3, r3, #4096
	str	r3, [r6, r2]
.L327:
	movs	r0, #0
	add	sp, sp, #12
	@ sp needed
	pop	{r4, r5, r6, r7, pc}
.L335:
	.align	2
.L334:
	.word	.LANCHOR0
	.word	.LANCHOR1+630
	.word	.LC0
	.fnend
	.size	set_rc_min_i_prop, .-set_rc_min_i_prop
	.align	1
	.global	get_rc_min_i_prop
	.syntax unified
	.thumb
	.thumb_func
	.fpu softvfp
	.type	get_rc_min_i_prop, %function
get_rc_min_i_prop:
	.fnstart
	@ args = 0, pretend = 0, frame = 0
	@ frame_needed = 0, uses_anonymous_args = 0
	ldr	r3, .L341
	push	{r4, r5, r6, lr}
	.save {r4, r5, r6, lr}
	mov	r6, r0
	ldr	r3, [r3]
	mov	r4, r1
	mov	r5, r2
	lsls	r3, r3, #31
	bpl	.L337
	movs	r2, #242
	ldr	r1, .L341+4
	ldr	r0, .L341+8
	bl	printk
.L337:
	ldrh	r2, [r4, #4]
	mov	r0, r5
	ldrh	r1, [r4, #6]
	lsrs	r2, r2, #4
	add	r1, r1, r6
	bl	memcpy
	movs	r0, #0
	pop	{r4, r5, r6, pc}
.L342:
	.align	2
.L341:
	.word	.LANCHOR0
	.word	.LANCHOR1+648
	.word	.LC0
	.fnend
	.size	get_rc_min_i_prop, .-get_rc_min_i_prop
	.align	1
	.global	set_rc_init_ip_ratio
	.syntax unified
	.thumb
	.thumb_func
	.fpu softvfp
	.type	set_rc_init_ip_ratio, %function
set_rc_init_ip_ratio:
	.fnstart
	@ args = 0, pretend = 0, frame = 8
	@ frame_needed = 0, uses_anonymous_args = 0
	ldr	r3, .L352
	push	{r0, r1, r2, r4, r5, r6, r7, lr}
	.save {r4, r5, r6, r7, lr}
	.pad #12
	mov	r6, r0
	ldr	r3, [r3]
	mov	r7, r1
	str	r2, [sp, #4]
	lsls	r3, r3, #31
	bpl	.L344
	movs	r2, #242
	ldr	r1, .L352+4
	ldr	r0, .L352+8
	bl	printk
.L344:
	ldrh	r5, [r7, #4]
	add	r1, sp, #4
	ldrh	r4, [r7, #6]
	lsrs	r5, r5, #4
	add	r4, r4, r6
	mov	r2, r5
	mov	r0, r4
	bl	memcmp
	cbz	r0, .L345
	mov	r2, r5
	add	r1, sp, #4
	mov	r0, r4
	bl	memcpy
	ldrh	r2, [r7, #10]
	ldr	r3, [r6, r2]
	orr	r3, r3, #8192
	str	r3, [r6, r2]
.L345:
	movs	r0, #0
	add	sp, sp, #12
	@ sp needed
	pop	{r4, r5, r6, r7, pc}
.L353:
	.align	2
.L352:
	.word	.LANCHOR0
	.word	.LANCHOR1+666
	.word	.LC0
	.fnend
	.size	set_rc_init_ip_ratio, .-set_rc_init_ip_ratio
	.align	1
	.global	get_rc_init_ip_ratio
	.syntax unified
	.thumb
	.thumb_func
	.fpu softvfp
	.type	get_rc_init_ip_ratio, %function
get_rc_init_ip_ratio:
	.fnstart
	@ args = 0, pretend = 0, frame = 0
	@ frame_needed = 0, uses_anonymous_args = 0
	ldr	r3, .L359
	push	{r4, r5, r6, lr}
	.save {r4, r5, r6, lr}
	mov	r6, r0
	ldr	r3, [r3]
	mov	r4, r1
	mov	r5, r2
	lsls	r3, r3, #31
	bpl	.L355
	movs	r2, #242
	ldr	r1, .L359+4
	ldr	r0, .L359+8
	bl	printk
.L355:
	ldrh	r2, [r4, #4]
	mov	r0, r5
	ldrh	r1, [r4, #6]
	lsrs	r2, r2, #4
	add	r1, r1, r6
	bl	memcpy
	movs	r0, #0
	pop	{r4, r5, r6, pc}
.L360:
	.align	2
.L359:
	.word	.LANCHOR0
	.word	.LANCHOR1+687
	.word	.LC0
	.fnend
	.size	get_rc_init_ip_ratio, .-get_rc_init_ip_ratio
	.align	1
	.global	set_rc_super_mode
	.syntax unified
	.thumb
	.thumb_func
	.fpu softvfp
	.type	set_rc_super_mode, %function
set_rc_super_mode:
	.fnstart
	@ args = 0, pretend = 0, frame = 8
	@ frame_needed = 0, uses_anonymous_args = 0
	ldr	r3, .L370
	push	{r0, r1, r2, r4, r5, r6, r7, lr}
	.save {r4, r5, r6, r7, lr}
	.pad #12
	mov	r6, r0
	ldr	r3, [r3]
	mov	r7, r1
	str	r2, [sp, #4]
	lsls	r3, r3, #31
	bpl	.L362
	movs	r2, #242
	ldr	r1, .L370+4
	ldr	r0, .L370+8
	bl	printk
.L362:
	ldrh	r5, [r7, #4]
	add	r1, sp, #4
	ldrh	r4, [r7, #6]
	lsrs	r5, r5, #4
	add	r4, r4, r6
	mov	r2, r5
	mov	r0, r4
	bl	memcmp
	cbz	r0, .L363
	mov	r2, r5
	add	r1, sp, #4
	mov	r0, r4
	bl	memcpy
	ldrh	r2, [r7, #10]
	ldr	r3, [r6, r2]
	orr	r3, r3, #32768
	str	r3, [r6, r2]
.L363:
	movs	r0, #0
	add	sp, sp, #12
	@ sp needed
	pop	{r4, r5, r6, r7, pc}
.L371:
	.align	2
.L370:
	.word	.LANCHOR0
	.word	.LANCHOR1+708
	.word	.LC0
	.fnend
	.size	set_rc_super_mode, .-set_rc_super_mode
	.align	1
	.global	get_rc_super_mode
	.syntax unified
	.thumb
	.thumb_func
	.fpu softvfp
	.type	get_rc_super_mode, %function
get_rc_super_mode:
	.fnstart
	@ args = 0, pretend = 0, frame = 0
	@ frame_needed = 0, uses_anonymous_args = 0
	ldr	r3, .L377
	push	{r4, r5, r6, lr}
	.save {r4, r5, r6, lr}
	mov	r6, r0
	ldr	r3, [r3]
	mov	r4, r1
	mov	r5, r2
	lsls	r3, r3, #31
	bpl	.L373
	movs	r2, #242
	ldr	r1, .L377+4
	ldr	r0, .L377+8
	bl	printk
.L373:
	ldrh	r2, [r4, #4]
	mov	r0, r5
	ldrh	r1, [r4, #6]
	lsrs	r2, r2, #4
	add	r1, r1, r6
	bl	memcpy
	movs	r0, #0
	pop	{r4, r5, r6, pc}
.L378:
	.align	2
.L377:
	.word	.LANCHOR0
	.word	.LANCHOR1+726
	.word	.LC0
	.fnend
	.size	get_rc_super_mode, .-get_rc_super_mode
	.align	1
	.global	set_rc_super_i_thd
	.syntax unified
	.thumb
	.thumb_func
	.fpu softvfp
	.type	set_rc_super_i_thd, %function
set_rc_super_i_thd:
	.fnstart
	@ args = 0, pretend = 0, frame = 8
	@ frame_needed = 0, uses_anonymous_args = 0
	ldr	r3, .L388
	push	{r0, r1, r2, r4, r5, r6, r7, lr}
	.save {r4, r5, r6, r7, lr}
	.pad #12
	mov	r6, r0
	ldr	r3, [r3]
	mov	r7, r1
	str	r2, [sp, #4]
	lsls	r3, r3, #31
	bpl	.L380
	movs	r2, #242
	ldr	r1, .L388+4
	ldr	r0, .L388+8
	bl	printk
.L380:
	ldrh	r5, [r7, #4]
	add	r1, sp, #4
	ldrh	r4, [r7, #6]
	lsrs	r5, r5, #4
	add	r4, r4, r6
	mov	r2, r5
	mov	r0, r4
	bl	memcmp
	cbz	r0, .L381
	mov	r2, r5
	add	r1, sp, #4
	mov	r0, r4
	bl	memcpy
	ldrh	r2, [r7, #10]
	ldr	r3, [r6, r2]
	orr	r3, r3, #32768
	str	r3, [r6, r2]
.L381:
	movs	r0, #0
	add	sp, sp, #12
	@ sp needed
	pop	{r4, r5, r6, r7, pc}
.L389:
	.align	2
.L388:
	.word	.LANCHOR0
	.word	.LANCHOR1+744
	.word	.LC0
	.fnend
	.size	set_rc_super_i_thd, .-set_rc_super_i_thd
	.align	1
	.global	get_rc_super_i_thd
	.syntax unified
	.thumb
	.thumb_func
	.fpu softvfp
	.type	get_rc_super_i_thd, %function
get_rc_super_i_thd:
	.fnstart
	@ args = 0, pretend = 0, frame = 0
	@ frame_needed = 0, uses_anonymous_args = 0
	ldr	r3, .L395
	push	{r4, r5, r6, lr}
	.save {r4, r5, r6, lr}
	mov	r6, r0
	ldr	r3, [r3]
	mov	r4, r1
	mov	r5, r2
	lsls	r3, r3, #31
	bpl	.L391
	movs	r2, #242
	ldr	r1, .L395+4
	ldr	r0, .L395+8
	bl	printk
.L391:
	ldrh	r2, [r4, #4]
	mov	r0, r5
	ldrh	r1, [r4, #6]
	lsrs	r2, r2, #4
	add	r1, r1, r6
	bl	memcpy
	movs	r0, #0
	pop	{r4, r5, r6, pc}
.L396:
	.align	2
.L395:
	.word	.LANCHOR0
	.word	.LANCHOR1+763
	.word	.LC0
	.fnend
	.size	get_rc_super_i_thd, .-get_rc_super_i_thd
	.align	1
	.global	set_rc_super_p_thd
	.syntax unified
	.thumb
	.thumb_func
	.fpu softvfp
	.type	set_rc_super_p_thd, %function
set_rc_super_p_thd:
	.fnstart
	@ args = 0, pretend = 0, frame = 8
	@ frame_needed = 0, uses_anonymous_args = 0
	ldr	r3, .L406
	push	{r0, r1, r2, r4, r5, r6, r7, lr}
	.save {r4, r5, r6, r7, lr}
	.pad #12
	mov	r6, r0
	ldr	r3, [r3]
	mov	r7, r1
	str	r2, [sp, #4]
	lsls	r3, r3, #31
	bpl	.L398
	movs	r2, #242
	ldr	r1, .L406+4
	ldr	r0, .L406+8
	bl	printk
.L398:
	ldrh	r5, [r7, #4]
	add	r1, sp, #4
	ldrh	r4, [r7, #6]
	lsrs	r5, r5, #4
	add	r4, r4, r6
	mov	r2, r5
	mov	r0, r4
	bl	memcmp
	cbz	r0, .L399
	mov	r2, r5
	add	r1, sp, #4
	mov	r0, r4
	bl	memcpy
	ldrh	r2, [r7, #10]
	ldr	r3, [r6, r2]
	orr	r3, r3, #32768
	str	r3, [r6, r2]
.L399:
	movs	r0, #0
	add	sp, sp, #12
	@ sp needed
	pop	{r4, r5, r6, r7, pc}
.L407:
	.align	2
.L406:
	.word	.LANCHOR0
	.word	.LANCHOR1+782
	.word	.LC0
	.fnend
	.size	set_rc_super_p_thd, .-set_rc_super_p_thd
	.align	1
	.global	get_rc_super_p_thd
	.syntax unified
	.thumb
	.thumb_func
	.fpu softvfp
	.type	get_rc_super_p_thd, %function
get_rc_super_p_thd:
	.fnstart
	@ args = 0, pretend = 0, frame = 0
	@ frame_needed = 0, uses_anonymous_args = 0
	ldr	r3, .L413
	push	{r4, r5, r6, lr}
	.save {r4, r5, r6, lr}
	mov	r6, r0
	ldr	r3, [r3]
	mov	r4, r1
	mov	r5, r2
	lsls	r3, r3, #31
	bpl	.L409
	movs	r2, #242
	ldr	r1, .L413+4
	ldr	r0, .L413+8
	bl	printk
.L409:
	ldrh	r2, [r4, #4]
	mov	r0, r5
	ldrh	r1, [r4, #6]
	lsrs	r2, r2, #4
	add	r1, r1, r6
	bl	memcpy
	movs	r0, #0
	pop	{r4, r5, r6, pc}
.L414:
	.align	2
.L413:
	.word	.LANCHOR0
	.word	.LANCHOR1+801
	.word	.LC0
	.fnend
	.size	get_rc_super_p_thd, .-get_rc_super_p_thd
	.align	1
	.global	set_rc_debreath_en
	.syntax unified
	.thumb
	.thumb_func
	.fpu softvfp
	.type	set_rc_debreath_en, %function
set_rc_debreath_en:
	.fnstart
	@ args = 0, pretend = 0, frame = 8
	@ frame_needed = 0, uses_anonymous_args = 0
	ldr	r3, .L424
	push	{r0, r1, r2, r4, r5, r6, r7, lr}
	.save {r4, r5, r6, r7, lr}
	.pad #12
	mov	r6, r0
	ldr	r3, [r3]
	mov	r7, r1
	str	r2, [sp, #4]
	lsls	r3, r3, #31
	bpl	.L416
	movs	r2, #242
	ldr	r1, .L424+4
	ldr	r0, .L424+8
	bl	printk
.L416:
	ldrh	r5, [r7, #4]
	add	r1, sp, #4
	ldrh	r4, [r7, #6]
	lsrs	r5, r5, #4
	add	r4, r4, r6
	mov	r2, r5
	mov	r0, r4
	bl	memcmp
	cbz	r0, .L417
	mov	r2, r5
	add	r1, sp, #4
	mov	r0, r4
	bl	memcpy
	ldrh	r2, [r7, #10]
	ldr	r3, [r6, r2]
	orr	r3, r3, #16777216
	str	r3, [r6, r2]
.L417:
	movs	r0, #0
	add	sp, sp, #12
	@ sp needed
	pop	{r4, r5, r6, r7, pc}
.L425:
	.align	2
.L424:
	.word	.LANCHOR0
	.word	.LANCHOR1+820
	.word	.LC0
	.fnend
	.size	set_rc_debreath_en, .-set_rc_debreath_en
	.align	1
	.global	get_rc_debreath_en
	.syntax unified
	.thumb
	.thumb_func
	.fpu softvfp
	.type	get_rc_debreath_en, %function
get_rc_debreath_en:
	.fnstart
	@ args = 0, pretend = 0, frame = 0
	@ frame_needed = 0, uses_anonymous_args = 0
	ldr	r3, .L431
	push	{r4, r5, r6, lr}
	.save {r4, r5, r6, lr}
	mov	r6, r0
	ldr	r3, [r3]
	mov	r4, r1
	mov	r5, r2
	lsls	r3, r3, #31
	bpl	.L427
	movs	r2, #242
	ldr	r1, .L431+4
	ldr	r0, .L431+8
	bl	printk
.L427:
	ldrh	r2, [r4, #4]
	mov	r0, r5
	ldrh	r1, [r4, #6]
	lsrs	r2, r2, #4
	add	r1, r1, r6
	bl	memcpy
	movs	r0, #0
	pop	{r4, r5, r6, pc}
.L432:
	.align	2
.L431:
	.word	.LANCHOR0
	.word	.LANCHOR1+839
	.word	.LC0
	.fnend
	.size	get_rc_debreath_en, .-get_rc_debreath_en
	.align	1
	.global	set_rc_debreath_strength
	.syntax unified
	.thumb
	.thumb_func
	.fpu softvfp
	.type	set_rc_debreath_strength, %function
set_rc_debreath_strength:
	.fnstart
	@ args = 0, pretend = 0, frame = 8
	@ frame_needed = 0, uses_anonymous_args = 0
	ldr	r3, .L442
	push	{r0, r1, r2, r4, r5, r6, r7, lr}
	.save {r4, r5, r6, r7, lr}
	.pad #12
	mov	r6, r0
	ldr	r3, [r3]
	mov	r7, r1
	str	r2, [sp, #4]
	lsls	r3, r3, #31
	bpl	.L434
	movs	r2, #242
	ldr	r1, .L442+4
	ldr	r0, .L442+8
	bl	printk
.L434:
	ldrh	r5, [r7, #4]
	add	r1, sp, #4
	ldrh	r4, [r7, #6]
	lsrs	r5, r5, #4
	add	r4, r4, r6
	mov	r2, r5
	mov	r0, r4
	bl	memcmp
	cbz	r0, .L435
	mov	r2, r5
	add	r1, sp, #4
	mov	r0, r4
	bl	memcpy
	ldrh	r2, [r7, #10]
	ldr	r3, [r6, r2]
	orr	r3, r3, #16777216
	str	r3, [r6, r2]
.L435:
	movs	r0, #0
	add	sp, sp, #12
	@ sp needed
	pop	{r4, r5, r6, r7, pc}
.L443:
	.align	2
.L442:
	.word	.LANCHOR0
	.word	.LANCHOR1+858
	.word	.LC0
	.fnend
	.size	set_rc_debreath_strength, .-set_rc_debreath_strength
	.align	1
	.global	get_rc_debreath_strength
	.syntax unified
	.thumb
	.thumb_func
	.fpu softvfp
	.type	get_rc_debreath_strength, %function
get_rc_debreath_strength:
	.fnstart
	@ args = 0, pretend = 0, frame = 0
	@ frame_needed = 0, uses_anonymous_args = 0
	ldr	r3, .L449
	push	{r4, r5, r6, lr}
	.save {r4, r5, r6, lr}
	mov	r6, r0
	ldr	r3, [r3]
	mov	r4, r1
	mov	r5, r2
	lsls	r3, r3, #31
	bpl	.L445
	movs	r2, #242
	ldr	r1, .L449+4
	ldr	r0, .L449+8
	bl	printk
.L445:
	ldrh	r2, [r4, #4]
	mov	r0, r5
	ldrh	r1, [r4, #6]
	lsrs	r2, r2, #4
	add	r1, r1, r6
	bl	memcpy
	movs	r0, #0
	pop	{r4, r5, r6, pc}
.L450:
	.align	2
.L449:
	.word	.LANCHOR0
	.word	.LANCHOR1+883
	.word	.LC0
	.fnend
	.size	get_rc_debreath_strength, .-get_rc_debreath_strength
	.align	1
	.global	set_rc_qp_init
	.syntax unified
	.thumb
	.thumb_func
	.fpu softvfp
	.type	set_rc_qp_init, %function
set_rc_qp_init:
	.fnstart
	@ args = 0, pretend = 0, frame = 8
	@ frame_needed = 0, uses_anonymous_args = 0
	ldr	r3, .L460
	push	{r0, r1, r2, r4, r5, r6, r7, lr}
	.save {r4, r5, r6, r7, lr}
	.pad #12
	mov	r6, r0
	ldr	r3, [r3]
	mov	r7, r1
	str	r2, [sp, #4]
	lsls	r3, r3, #31
	bpl	.L452
	movs	r2, #242
	ldr	r1, .L460+4
	ldr	r0, .L460+8
	bl	printk
.L452:
	ldrh	r5, [r7, #4]
	add	r1, sp, #4
	ldrh	r4, [r7, #6]
	lsrs	r5, r5, #4
	add	r4, r4, r6
	mov	r2, r5
	mov	r0, r4
	bl	memcmp
	cbz	r0, .L453
	mov	r2, r5
	add	r1, sp, #4
	mov	r0, r4
	bl	memcpy
	ldrh	r2, [r7, #10]
	ldr	r3, [r6, r2]
	orr	r3, r3, #65536
	str	r3, [r6, r2]
.L453:
	movs	r0, #0
	add	sp, sp, #12
	@ sp needed
	pop	{r4, r5, r6, r7, pc}
.L461:
	.align	2
.L460:
	.word	.LANCHOR0
	.word	.LANCHOR1+908
	.word	.LC0
	.fnend
	.size	set_rc_qp_init, .-set_rc_qp_init
	.align	1
	.global	get_rc_qp_init
	.syntax unified
	.thumb
	.thumb_func
	.fpu softvfp
	.type	get_rc_qp_init, %function
get_rc_qp_init:
	.fnstart
	@ args = 0, pretend = 0, frame = 0
	@ frame_needed = 0, uses_anonymous_args = 0
	ldr	r3, .L467
	push	{r4, r5, r6, lr}
	.save {r4, r5, r6, lr}
	mov	r6, r0
	ldr	r3, [r3]
	mov	r4, r1
	mov	r5, r2
	lsls	r3, r3, #31
	bpl	.L463
	movs	r2, #242
	ldr	r1, .L467+4
	ldr	r0, .L467+8
	bl	printk
.L463:
	ldrh	r2, [r4, #4]
	mov	r0, r5
	ldrh	r1, [r4, #6]
	lsrs	r2, r2, #4
	add	r1, r1, r6
	bl	memcpy
	movs	r0, #0
	pop	{r4, r5, r6, pc}
.L468:
	.align	2
.L467:
	.word	.LANCHOR0
	.word	.LANCHOR1+923
	.word	.LC0
	.fnend
	.size	get_rc_qp_init, .-get_rc_qp_init
	.align	1
	.global	set_rc_qp_min
	.syntax unified
	.thumb
	.thumb_func
	.fpu softvfp
	.type	set_rc_qp_min, %function
set_rc_qp_min:
	.fnstart
	@ args = 0, pretend = 0, frame = 8
	@ frame_needed = 0, uses_anonymous_args = 0
	ldr	r3, .L478
	push	{r0, r1, r2, r4, r5, r6, r7, lr}
	.save {r4, r5, r6, r7, lr}
	.pad #12
	mov	r6, r0
	ldr	r3, [r3]
	mov	r7, r1
	str	r2, [sp, #4]
	lsls	r3, r3, #31
	bpl	.L470
	movs	r2, #242
	ldr	r1, .L478+4
	ldr	r0, .L478+8
	bl	printk
.L470:
	ldrh	r5, [r7, #4]
	add	r1, sp, #4
	ldrh	r4, [r7, #6]
	lsrs	r5, r5, #4
	add	r4, r4, r6
	mov	r2, r5
	mov	r0, r4
	bl	memcmp
	cbz	r0, .L471
	mov	r2, r5
	add	r1, sp, #4
	mov	r0, r4
	bl	memcpy
	ldrh	r2, [r7, #10]
	ldr	r3, [r6, r2]
	orr	r3, r3, #131072
	str	r3, [r6, r2]
.L471:
	movs	r0, #0
	add	sp, sp, #12
	@ sp needed
	pop	{r4, r5, r6, r7, pc}
.L479:
	.align	2
.L478:
	.word	.LANCHOR0
	.word	.LANCHOR1+938
	.word	.LC0
	.fnend
	.size	set_rc_qp_min, .-set_rc_qp_min
	.align	1
	.global	get_rc_qp_min
	.syntax unified
	.thumb
	.thumb_func
	.fpu softvfp
	.type	get_rc_qp_min, %function
get_rc_qp_min:
	.fnstart
	@ args = 0, pretend = 0, frame = 0
	@ frame_needed = 0, uses_anonymous_args = 0
	ldr	r3, .L485
	push	{r4, r5, r6, lr}
	.save {r4, r5, r6, lr}
	mov	r6, r0
	ldr	r3, [r3]
	mov	r4, r1
	mov	r5, r2
	lsls	r3, r3, #31
	bpl	.L481
	movs	r2, #242
	ldr	r1, .L485+4
	ldr	r0, .L485+8
	bl	printk
.L481:
	ldrh	r2, [r4, #4]
	mov	r0, r5
	ldrh	r1, [r4, #6]
	lsrs	r2, r2, #4
	add	r1, r1, r6
	bl	memcpy
	movs	r0, #0
	pop	{r4, r5, r6, pc}
.L486:
	.align	2
.L485:
	.word	.LANCHOR0
	.word	.LANCHOR1+952
	.word	.LC0
	.fnend
	.size	get_rc_qp_min, .-get_rc_qp_min
	.align	1
	.global	set_rc_qp_max
	.syntax unified
	.thumb
	.thumb_func
	.fpu softvfp
	.type	set_rc_qp_max, %function
set_rc_qp_max:
	.fnstart
	@ args = 0, pretend = 0, frame = 8
	@ frame_needed = 0, uses_anonymous_args = 0
	ldr	r3, .L496
	push	{r0, r1, r2, r4, r5, r6, r7, lr}
	.save {r4, r5, r6, r7, lr}
	.pad #12
	mov	r6, r0
	ldr	r3, [r3]
	mov	r7, r1
	str	r2, [sp, #4]
	lsls	r3, r3, #31
	bpl	.L488
	movs	r2, #242
	ldr	r1, .L496+4
	ldr	r0, .L496+8
	bl	printk
.L488:
	ldrh	r5, [r7, #4]
	add	r1, sp, #4
	ldrh	r4, [r7, #6]
	lsrs	r5, r5, #4
	add	r4, r4, r6
	mov	r2, r5
	mov	r0, r4
	bl	memcmp
	cbz	r0, .L489
	mov	r2, r5
	add	r1, sp, #4
	mov	r0, r4
	bl	memcpy
	ldrh	r2, [r7, #10]
	ldr	r3, [r6, r2]
	orr	r3, r3, #131072
	str	r3, [r6, r2]
.L489:
	movs	r0, #0
	add	sp, sp, #12
	@ sp needed
	pop	{r4, r5, r6, r7, pc}
.L497:
	.align	2
.L496:
	.word	.LANCHOR0
	.word	.LANCHOR1+966
	.word	.LC0
	.fnend
	.size	set_rc_qp_max, .-set_rc_qp_max
	.align	1
	.global	get_rc_qp_max
	.syntax unified
	.thumb
	.thumb_func
	.fpu softvfp
	.type	get_rc_qp_max, %function
get_rc_qp_max:
	.fnstart
	@ args = 0, pretend = 0, frame = 0
	@ frame_needed = 0, uses_anonymous_args = 0
	ldr	r3, .L503
	push	{r4, r5, r6, lr}
	.save {r4, r5, r6, lr}
	mov	r6, r0
	ldr	r3, [r3]
	mov	r4, r1
	mov	r5, r2
	lsls	r3, r3, #31
	bpl	.L499
	movs	r2, #242
	ldr	r1, .L503+4
	ldr	r0, .L503+8
	bl	printk
.L499:
	ldrh	r2, [r4, #4]
	mov	r0, r5
	ldrh	r1, [r4, #6]
	lsrs	r2, r2, #4
	add	r1, r1, r6
	bl	memcpy
	movs	r0, #0
	pop	{r4, r5, r6, pc}
.L504:
	.align	2
.L503:
	.word	.LANCHOR0
	.word	.LANCHOR1+980
	.word	.LC0
	.fnend
	.size	get_rc_qp_max, .-get_rc_qp_max
	.align	1
	.global	set_rc_qp_min_i
	.syntax unified
	.thumb
	.thumb_func
	.fpu softvfp
	.type	set_rc_qp_min_i, %function
set_rc_qp_min_i:
	.fnstart
	@ args = 0, pretend = 0, frame = 8
	@ frame_needed = 0, uses_anonymous_args = 0
	ldr	r3, .L514
	push	{r0, r1, r2, r4, r5, r6, r7, lr}
	.save {r4, r5, r6, r7, lr}
	.pad #12
	mov	r6, r0
	ldr	r3, [r3]
	mov	r7, r1
	str	r2, [sp, #4]
	lsls	r3, r3, #31
	bpl	.L506
	movs	r2, #242
	ldr	r1, .L514+4
	ldr	r0, .L514+8
	bl	printk
.L506:
	ldrh	r5, [r7, #4]
	add	r1, sp, #4
	ldrh	r4, [r7, #6]
	lsrs	r5, r5, #4
	add	r4, r4, r6
	mov	r2, r5
	mov	r0, r4
	bl	memcmp
	cbz	r0, .L507
	mov	r2, r5
	add	r1, sp, #4
	mov	r0, r4
	bl	memcpy
	ldrh	r2, [r7, #10]
	ldr	r3, [r6, r2]
	orr	r3, r3, #262144
	str	r3, [r6, r2]
.L507:
	movs	r0, #0
	add	sp, sp, #12
	@ sp needed
	pop	{r4, r5, r6, r7, pc}
.L515:
	.align	2
.L514:
	.word	.LANCHOR0
	.word	.LANCHOR1+994
	.word	.LC0
	.fnend
	.size	set_rc_qp_min_i, .-set_rc_qp_min_i
	.align	1
	.global	get_rc_qp_min_i
	.syntax unified
	.thumb
	.thumb_func
	.fpu softvfp
	.type	get_rc_qp_min_i, %function
get_rc_qp_min_i:
	.fnstart
	@ args = 0, pretend = 0, frame = 0
	@ frame_needed = 0, uses_anonymous_args = 0
	ldr	r3, .L521
	push	{r4, r5, r6, lr}
	.save {r4, r5, r6, lr}
	mov	r6, r0
	ldr	r3, [r3]
	mov	r4, r1
	mov	r5, r2
	lsls	r3, r3, #31
	bpl	.L517
	movs	r2, #242
	ldr	r1, .L521+4
	ldr	r0, .L521+8
	bl	printk
.L517:
	ldrh	r2, [r4, #4]
	mov	r0, r5
	ldrh	r1, [r4, #6]
	lsrs	r2, r2, #4
	add	r1, r1, r6
	bl	memcpy
	movs	r0, #0
	pop	{r4, r5, r6, pc}
.L522:
	.align	2
.L521:
	.word	.LANCHOR0
	.word	.LANCHOR1+1010
	.word	.LC0
	.fnend
	.size	get_rc_qp_min_i, .-get_rc_qp_min_i
	.align	1
	.global	set_rc_qp_max_i
	.syntax unified
	.thumb
	.thumb_func
	.fpu softvfp
	.type	set_rc_qp_max_i, %function
set_rc_qp_max_i:
	.fnstart
	@ args = 0, pretend = 0, frame = 8
	@ frame_needed = 0, uses_anonymous_args = 0
	ldr	r3, .L532
	push	{r0, r1, r2, r4, r5, r6, r7, lr}
	.save {r4, r5, r6, r7, lr}
	.pad #12
	mov	r6, r0
	ldr	r3, [r3]
	mov	r7, r1
	str	r2, [sp, #4]
	lsls	r3, r3, #31
	bpl	.L524
	movs	r2, #242
	ldr	r1, .L532+4
	ldr	r0, .L532+8
	bl	printk
.L524:
	ldrh	r5, [r7, #4]
	add	r1, sp, #4
	ldrh	r4, [r7, #6]
	lsrs	r5, r5, #4
	add	r4, r4, r6
	mov	r2, r5
	mov	r0, r4
	bl	memcmp
	cbz	r0, .L525
	mov	r2, r5
	add	r1, sp, #4
	mov	r0, r4
	bl	memcpy
	ldrh	r2, [r7, #10]
	ldr	r3, [r6, r2]
	orr	r3, r3, #262144
	str	r3, [r6, r2]
.L525:
	movs	r0, #0
	add	sp, sp, #12
	@ sp needed
	pop	{r4, r5, r6, r7, pc}
.L533:
	.align	2
.L532:
	.word	.LANCHOR0
	.word	.LANCHOR1+1026
	.word	.LC0
	.fnend
	.size	set_rc_qp_max_i, .-set_rc_qp_max_i
	.align	1
	.global	get_rc_qp_max_i
	.syntax unified
	.thumb
	.thumb_func
	.fpu softvfp
	.type	get_rc_qp_max_i, %function
get_rc_qp_max_i:
	.fnstart
	@ args = 0, pretend = 0, frame = 0
	@ frame_needed = 0, uses_anonymous_args = 0
	ldr	r3, .L539
	push	{r4, r5, r6, lr}
	.save {r4, r5, r6, lr}
	mov	r6, r0
	ldr	r3, [r3]
	mov	r4, r1
	mov	r5, r2
	lsls	r3, r3, #31
	bpl	.L535
	movs	r2, #242
	ldr	r1, .L539+4
	ldr	r0, .L539+8
	bl	printk
.L535:
	ldrh	r2, [r4, #4]
	mov	r0, r5
	ldrh	r1, [r4, #6]
	lsrs	r2, r2, #4
	add	r1, r1, r6
	bl	memcpy
	movs	r0, #0
	pop	{r4, r5, r6, pc}
.L540:
	.align	2
.L539:
	.word	.LANCHOR0
	.word	.LANCHOR1+1042
	.word	.LC0
	.fnend
	.size	get_rc_qp_max_i, .-get_rc_qp_max_i
	.align	1
	.global	set_rc_qp_step
	.syntax unified
	.thumb
	.thumb_func
	.fpu softvfp
	.type	set_rc_qp_step, %function
set_rc_qp_step:
	.fnstart
	@ args = 0, pretend = 0, frame = 8
	@ frame_needed = 0, uses_anonymous_args = 0
	ldr	r3, .L550
	push	{r0, r1, r2, r4, r5, r6, r7, lr}
	.save {r4, r5, r6, r7, lr}
	.pad #12
	mov	r6, r0
	ldr	r3, [r3]
	mov	r7, r1
	str	r2, [sp, #4]
	lsls	r3, r3, #31
	bpl	.L542
	movs	r2, #242
	ldr	r1, .L550+4
	ldr	r0, .L550+8
	bl	printk
.L542:
	ldrh	r5, [r7, #4]
	add	r1, sp, #4
	ldrh	r4, [r7, #6]
	lsrs	r5, r5, #4
	add	r4, r4, r6
	mov	r2, r5
	mov	r0, r4
	bl	memcmp
	cbz	r0, .L543
	mov	r2, r5
	add	r1, sp, #4
	mov	r0, r4
	bl	memcpy
	ldrh	r2, [r7, #10]
	ldr	r3, [r6, r2]
	orr	r3, r3, #524288
	str	r3, [r6, r2]
.L543:
	movs	r0, #0
	add	sp, sp, #12
	@ sp needed
	pop	{r4, r5, r6, r7, pc}
.L551:
	.align	2
.L550:
	.word	.LANCHOR0
	.word	.LANCHOR1+1058
	.word	.LC0
	.fnend
	.size	set_rc_qp_step, .-set_rc_qp_step
	.align	1
	.global	get_rc_qp_step
	.syntax unified
	.thumb
	.thumb_func
	.fpu softvfp
	.type	get_rc_qp_step, %function
get_rc_qp_step:
	.fnstart
	@ args = 0, pretend = 0, frame = 0
	@ frame_needed = 0, uses_anonymous_args = 0
	ldr	r3, .L557
	push	{r4, r5, r6, lr}
	.save {r4, r5, r6, lr}
	mov	r6, r0
	ldr	r3, [r3]
	mov	r4, r1
	mov	r5, r2
	lsls	r3, r3, #31
	bpl	.L553
	movs	r2, #242
	ldr	r1, .L557+4
	ldr	r0, .L557+8
	bl	printk
.L553:
	ldrh	r2, [r4, #4]
	mov	r0, r5
	ldrh	r1, [r4, #6]
	lsrs	r2, r2, #4
	add	r1, r1, r6
	bl	memcpy
	movs	r0, #0
	pop	{r4, r5, r6, pc}
.L558:
	.align	2
.L557:
	.word	.LANCHOR0
	.word	.LANCHOR1+1073
	.word	.LC0
	.fnend
	.size	get_rc_qp_step, .-get_rc_qp_step
	.align	1
	.global	set_rc_qp_ip
	.syntax unified
	.thumb
	.thumb_func
	.fpu softvfp
	.type	set_rc_qp_ip, %function
set_rc_qp_ip:
	.fnstart
	@ args = 0, pretend = 0, frame = 8
	@ frame_needed = 0, uses_anonymous_args = 0
	ldr	r3, .L568
	push	{r0, r1, r2, r4, r5, r6, r7, lr}
	.save {r4, r5, r6, r7, lr}
	.pad #12
	mov	r6, r0
	ldr	r3, [r3]
	mov	r7, r1
	str	r2, [sp, #4]
	lsls	r3, r3, #31
	bpl	.L560
	movs	r2, #242
	ldr	r1, .L568+4
	ldr	r0, .L568+8
	bl	printk
.L560:
	ldrh	r5, [r7, #4]
	add	r1, sp, #4
	ldrh	r4, [r7, #6]
	lsrs	r5, r5, #4
	add	r4, r4, r6
	mov	r2, r5
	mov	r0, r4
	bl	memcmp
	cbz	r0, .L561
	mov	r2, r5
	add	r1, sp, #4
	mov	r0, r4
	bl	memcpy
	ldrh	r2, [r7, #10]
	ldr	r3, [r6, r2]
	orr	r3, r3, #1048576
	str	r3, [r6, r2]
.L561:
	movs	r0, #0
	add	sp, sp, #12
	@ sp needed
	pop	{r4, r5, r6, r7, pc}
.L569:
	.align	2
.L568:
	.word	.LANCHOR0
	.word	.LANCHOR1+1088
	.word	.LC0
	.fnend
	.size	set_rc_qp_ip, .-set_rc_qp_ip
	.align	1
	.global	get_rc_qp_ip
	.syntax unified
	.thumb
	.thumb_func
	.fpu softvfp
	.type	get_rc_qp_ip, %function
get_rc_qp_ip:
	.fnstart
	@ args = 0, pretend = 0, frame = 0
	@ frame_needed = 0, uses_anonymous_args = 0
	ldr	r3, .L575
	push	{r4, r5, r6, lr}
	.save {r4, r5, r6, lr}
	mov	r6, r0
	ldr	r3, [r3]
	mov	r4, r1
	mov	r5, r2
	lsls	r3, r3, #31
	bpl	.L571
	movs	r2, #242
	ldr	r1, .L575+4
	ldr	r0, .L575+8
	bl	printk
.L571:
	ldrh	r2, [r4, #4]
	mov	r0, r5
	ldrh	r1, [r4, #6]
	lsrs	r2, r2, #4
	add	r1, r1, r6
	bl	memcpy
	movs	r0, #0
	pop	{r4, r5, r6, pc}
.L576:
	.align	2
.L575:
	.word	.LANCHOR0
	.word	.LANCHOR1+1101
	.word	.LC0
	.fnend
	.size	get_rc_qp_ip, .-get_rc_qp_ip
	.align	1
	.global	set_rc_qp_vi
	.syntax unified
	.thumb
	.thumb_func
	.fpu softvfp
	.type	set_rc_qp_vi, %function
set_rc_qp_vi:
	.fnstart
	@ args = 0, pretend = 0, frame = 8
	@ frame_needed = 0, uses_anonymous_args = 0
	ldr	r3, .L586
	push	{r0, r1, r2, r4, r5, r6, r7, lr}
	.save {r4, r5, r6, r7, lr}
	.pad #12
	mov	r6, r0
	ldr	r3, [r3]
	mov	r7, r1
	str	r2, [sp, #4]
	lsls	r3, r3, #31
	bpl	.L578
	movs	r2, #242
	ldr	r1, .L586+4
	ldr	r0, .L586+8
	bl	printk
.L578:
	ldrh	r5, [r7, #4]
	add	r1, sp, #4
	ldrh	r4, [r7, #6]
	lsrs	r5, r5, #4
	add	r4, r4, r6
	mov	r2, r5
	mov	r0, r4
	bl	memcmp
	cbz	r0, .L579
	mov	r2, r5
	add	r1, sp, #4
	mov	r0, r4
	bl	memcpy
	ldrh	r2, [r7, #10]
	ldr	r3, [r6, r2]
	orr	r3, r3, #2097152
	str	r3, [r6, r2]
.L579:
	movs	r0, #0
	add	sp, sp, #12
	@ sp needed
	pop	{r4, r5, r6, r7, pc}
.L587:
	.align	2
.L586:
	.word	.LANCHOR0
	.word	.LANCHOR1+1114
	.word	.LC0
	.fnend
	.size	set_rc_qp_vi, .-set_rc_qp_vi
	.align	1
	.global	get_rc_qp_vi
	.syntax unified
	.thumb
	.thumb_func
	.fpu softvfp
	.type	get_rc_qp_vi, %function
get_rc_qp_vi:
	.fnstart
	@ args = 0, pretend = 0, frame = 0
	@ frame_needed = 0, uses_anonymous_args = 0
	ldr	r3, .L593
	push	{r4, r5, r6, lr}
	.save {r4, r5, r6, lr}
	mov	r6, r0
	ldr	r3, [r3]
	mov	r4, r1
	mov	r5, r2
	lsls	r3, r3, #31
	bpl	.L589
	movs	r2, #242
	ldr	r1, .L593+4
	ldr	r0, .L593+8
	bl	printk
.L589:
	ldrh	r2, [r4, #4]
	mov	r0, r5
	ldrh	r1, [r4, #6]
	lsrs	r2, r2, #4
	add	r1, r1, r6
	bl	memcpy
	movs	r0, #0
	pop	{r4, r5, r6, pc}
.L594:
	.align	2
.L593:
	.word	.LANCHOR0
	.word	.LANCHOR1+1127
	.word	.LC0
	.fnend
	.size	get_rc_qp_vi, .-get_rc_qp_vi
	.align	1
	.global	set_rc_hier_qp_en
	.syntax unified
	.thumb
	.thumb_func
	.fpu softvfp
	.type	set_rc_hier_qp_en, %function
set_rc_hier_qp_en:
	.fnstart
	@ args = 0, pretend = 0, frame = 8
	@ frame_needed = 0, uses_anonymous_args = 0
	ldr	r3, .L604
	push	{r0, r1, r2, r4, r5, r6, r7, lr}
	.save {r4, r5, r6, r7, lr}
	.pad #12
	mov	r6, r0
	ldr	r3, [r3]
	mov	r7, r1
	str	r2, [sp, #4]
	lsls	r3, r3, #31
	bpl	.L596
	movs	r2, #242
	ldr	r1, .L604+4
	ldr	r0, .L604+8
	bl	printk
.L596:
	ldrh	r5, [r7, #4]
	add	r1, sp, #4
	ldrh	r4, [r7, #6]
	lsrs	r5, r5, #4
	add	r4, r4, r6
	mov	r2, r5
	mov	r0, r4
	bl	memcmp
	cbz	r0, .L597
	mov	r2, r5
	add	r1, sp, #4
	mov	r0, r4
	bl	memcpy
	ldrh	r2, [r7, #10]
	ldr	r3, [r6, r2]
	orr	r3, r3, #33554432
	str	r3, [r6, r2]
.L597:
	movs	r0, #0
	add	sp, sp, #12
	@ sp needed
	pop	{r4, r5, r6, r7, pc}
.L605:
	.align	2
.L604:
	.word	.LANCHOR0
	.word	.LANCHOR1+1140
	.word	.LC0
	.fnend
	.size	set_rc_hier_qp_en, .-set_rc_hier_qp_en
	.align	1
	.global	get_rc_hier_qp_en
	.syntax unified
	.thumb
	.thumb_func
	.fpu softvfp
	.type	get_rc_hier_qp_en, %function
get_rc_hier_qp_en:
	.fnstart
	@ args = 0, pretend = 0, frame = 0
	@ frame_needed = 0, uses_anonymous_args = 0
	ldr	r3, .L611
	push	{r4, r5, r6, lr}
	.save {r4, r5, r6, lr}
	mov	r6, r0
	ldr	r3, [r3]
	mov	r4, r1
	mov	r5, r2
	lsls	r3, r3, #31
	bpl	.L607
	movs	r2, #242
	ldr	r1, .L611+4
	ldr	r0, .L611+8
	bl	printk
.L607:
	ldrh	r2, [r4, #4]
	mov	r0, r5
	ldrh	r1, [r4, #6]
	lsrs	r2, r2, #4
	add	r1, r1, r6
	bl	memcpy
	movs	r0, #0
	pop	{r4, r5, r6, pc}
.L612:
	.align	2
.L611:
	.word	.LANCHOR0
	.word	.LANCHOR1+1158
	.word	.LC0
	.fnend
	.size	get_rc_hier_qp_en, .-get_rc_hier_qp_en
	.align	1
	.global	set_rc_hier_qp_delta
	.syntax unified
	.thumb
	.thumb_func
	.fpu softvfp
	.type	set_rc_hier_qp_delta, %function
set_rc_hier_qp_delta:
	.fnstart
	@ args = 0, pretend = 0, frame = 0
	@ frame_needed = 0, uses_anonymous_args = 0
	ldr	r3, .L622
	push	{r4, r5, r6, r7, r8, lr}
	.save {r4, r5, r6, r7, r8, lr}
	mov	r6, r0
	ldr	r3, [r3]
	mov	r7, r1
	mov	r8, r2
	lsls	r3, r3, #31
	bpl	.L614
	movs	r2, #242
	ldr	r1, .L622+4
	ldr	r0, .L622+8
	bl	printk
.L614:
	ldrh	r5, [r7, #4]
	mov	r1, r8
	ldrh	r4, [r7, #6]
	lsrs	r5, r5, #4
	add	r4, r4, r6
	mov	r2, r5
	mov	r0, r4
	bl	memcmp
	cbz	r0, .L615
	mov	r2, r5
	mov	r1, r8
	mov	r0, r4
	bl	memcpy
	ldrh	r2, [r7, #10]
	ldr	r3, [r6, r2]
	orr	r3, r3, #33554432
	str	r3, [r6, r2]
.L615:
	movs	r0, #0
	pop	{r4, r5, r6, r7, r8, pc}
.L623:
	.align	2
.L622:
	.word	.LANCHOR0
	.word	.LANCHOR1+1176
	.word	.LC0
	.fnend
	.size	set_rc_hier_qp_delta, .-set_rc_hier_qp_delta
	.align	1
	.global	get_rc_hier_qp_delta
	.syntax unified
	.thumb
	.thumb_func
	.fpu softvfp
	.type	get_rc_hier_qp_delta, %function
get_rc_hier_qp_delta:
	.fnstart
	@ args = 0, pretend = 0, frame = 0
	@ frame_needed = 0, uses_anonymous_args = 0
	ldr	r3, .L629
	push	{r4, r5, r6, lr}
	.save {r4, r5, r6, lr}
	mov	r6, r0
	ldr	r3, [r3]
	mov	r4, r1
	mov	r5, r2
	lsls	r3, r3, #31
	bpl	.L625
	movs	r2, #242
	ldr	r1, .L629+4
	ldr	r0, .L629+8
	bl	printk
.L625:
	ldrh	r2, [r4, #4]
	mov	r0, r5
	ldrh	r1, [r4, #6]
	lsrs	r2, r2, #4
	add	r1, r1, r6
	bl	memcpy
	movs	r0, #0
	pop	{r4, r5, r6, pc}
.L630:
	.align	2
.L629:
	.word	.LANCHOR0
	.word	.LANCHOR1+1197
	.word	.LC0
	.fnend
	.size	get_rc_hier_qp_delta, .-get_rc_hier_qp_delta
	.align	1
	.global	set_rc_hier_frame_num
	.syntax unified
	.thumb
	.thumb_func
	.fpu softvfp
	.type	set_rc_hier_frame_num, %function
set_rc_hier_frame_num:
	.fnstart
	@ args = 0, pretend = 0, frame = 0
	@ frame_needed = 0, uses_anonymous_args = 0
	ldr	r3, .L640
	push	{r4, r5, r6, r7, r8, lr}
	.save {r4, r5, r6, r7, r8, lr}
	mov	r6, r0
	ldr	r3, [r3]
	mov	r7, r1
	mov	r8, r2
	lsls	r3, r3, #31
	bpl	.L632
	movs	r2, #242
	ldr	r1, .L640+4
	ldr	r0, .L640+8
	bl	printk
.L632:
	ldrh	r5, [r7, #4]
	mov	r1, r8
	ldrh	r4, [r7, #6]
	lsrs	r5, r5, #4
	add	r4, r4, r6
	mov	r2, r5
	mov	r0, r4
	bl	memcmp
	cbz	r0, .L633
	mov	r2, r5
	mov	r1, r8
	mov	r0, r4
	bl	memcpy
	ldrh	r2, [r7, #10]
	ldr	r3, [r6, r2]
	orr	r3, r3, #33554432
	str	r3, [r6, r2]
.L633:
	movs	r0, #0
	pop	{r4, r5, r6, r7, r8, pc}
.L641:
	.align	2
.L640:
	.word	.LANCHOR0
	.word	.LANCHOR1+1218
	.word	.LC0
	.fnend
	.size	set_rc_hier_frame_num, .-set_rc_hier_frame_num
	.align	1
	.global	get_rc_hier_frame_num
	.syntax unified
	.thumb
	.thumb_func
	.fpu softvfp
	.type	get_rc_hier_frame_num, %function
get_rc_hier_frame_num:
	.fnstart
	@ args = 0, pretend = 0, frame = 0
	@ frame_needed = 0, uses_anonymous_args = 0
	ldr	r3, .L647
	push	{r4, r5, r6, lr}
	.save {r4, r5, r6, lr}
	mov	r6, r0
	ldr	r3, [r3]
	mov	r4, r1
	mov	r5, r2
	lsls	r3, r3, #31
	bpl	.L643
	movs	r2, #242
	ldr	r1, .L647+4
	ldr	r0, .L647+8
	bl	printk
.L643:
	ldrh	r2, [r4, #4]
	mov	r0, r5
	ldrh	r1, [r4, #6]
	lsrs	r2, r2, #4
	add	r1, r1, r6
	bl	memcpy
	movs	r0, #0
	pop	{r4, r5, r6, pc}
.L648:
	.align	2
.L647:
	.word	.LANCHOR0
	.word	.LANCHOR1+1240
	.word	.LC0
	.fnend
	.size	get_rc_hier_frame_num, .-get_rc_hier_frame_num
	.align	1
	.global	set_rc_stats_time
	.syntax unified
	.thumb
	.thumb_func
	.fpu softvfp
	.type	set_rc_stats_time, %function
set_rc_stats_time:
	.fnstart
	@ args = 0, pretend = 0, frame = 8
	@ frame_needed = 0, uses_anonymous_args = 0
	ldr	r3, .L658
	push	{r0, r1, r2, r4, r5, r6, r7, lr}
	.save {r4, r5, r6, r7, lr}
	.pad #12
	mov	r6, r0
	ldr	r3, [r3]
	mov	r7, r1
	str	r2, [sp, #4]
	lsls	r3, r3, #31
	bpl	.L650
	movs	r2, #242
	ldr	r1, .L658+4
	ldr	r0, .L658+8
	bl	printk
.L650:
	ldrh	r5, [r7, #4]
	add	r1, sp, #4
	ldrh	r4, [r7, #6]
	lsrs	r5, r5, #4
	add	r4, r4, r6
	mov	r2, r5
	mov	r0, r4
	bl	memcmp
	cbz	r0, .L651
	mov	r2, r5
	add	r1, sp, #4
	mov	r0, r4
	bl	memcpy
	ldrh	r2, [r7, #10]
	ldr	r3, [r6, r2]
	orr	r3, r3, #67108864
	str	r3, [r6, r2]
.L651:
	movs	r0, #0
	add	sp, sp, #12
	@ sp needed
	pop	{r4, r5, r6, r7, pc}
.L659:
	.align	2
.L658:
	.word	.LANCHOR0
	.word	.LANCHOR1+1262
	.word	.LC0
	.fnend
	.size	set_rc_stats_time, .-set_rc_stats_time
	.align	1
	.global	get_rc_stats_time
	.syntax unified
	.thumb
	.thumb_func
	.fpu softvfp
	.type	get_rc_stats_time, %function
get_rc_stats_time:
	.fnstart
	@ args = 0, pretend = 0, frame = 0
	@ frame_needed = 0, uses_anonymous_args = 0
	ldr	r3, .L665
	push	{r4, r5, r6, lr}
	.save {r4, r5, r6, lr}
	mov	r6, r0
	ldr	r3, [r3]
	mov	r4, r1
	mov	r5, r2
	lsls	r3, r3, #31
	bpl	.L661
	movs	r2, #242
	ldr	r1, .L665+4
	ldr	r0, .L665+8
	bl	printk
.L661:
	ldrh	r2, [r4, #4]
	mov	r0, r5
	ldrh	r1, [r4, #6]
	lsrs	r2, r2, #4
	add	r1, r1, r6
	bl	memcpy
	movs	r0, #0
	pop	{r4, r5, r6, pc}
.L666:
	.align	2
.L665:
	.word	.LANCHOR0
	.word	.LANCHOR1+1280
	.word	.LC0
	.fnend
	.size	get_rc_stats_time, .-get_rc_stats_time
	.align	1
	.global	set_rc_fm_lvl_qp_min_i
	.syntax unified
	.thumb
	.thumb_func
	.fpu softvfp
	.type	set_rc_fm_lvl_qp_min_i, %function
set_rc_fm_lvl_qp_min_i:
	.fnstart
	@ args = 0, pretend = 0, frame = 8
	@ frame_needed = 0, uses_anonymous_args = 0
	ldr	r3, .L676
	push	{r0, r1, r2, r4, r5, r6, r7, lr}
	.save {r4, r5, r6, r7, lr}
	.pad #12
	mov	r6, r0
	ldr	r3, [r3]
	mov	r7, r1
	str	r2, [sp, #4]
	lsls	r3, r3, #31
	bpl	.L668
	movs	r2, #242
	ldr	r1, .L676+4
	ldr	r0, .L676+8
	bl	printk
.L668:
	ldrh	r5, [r7, #4]
	add	r1, sp, #4
	ldrh	r4, [r7, #6]
	lsrs	r5, r5, #4
	add	r4, r4, r6
	mov	r2, r5
	mov	r0, r4
	bl	memcmp
	cbz	r0, .L669
	mov	r2, r5
	add	r1, sp, #4
	mov	r0, r4
	bl	memcpy
	ldrh	r2, [r7, #10]
	ldr	r3, [r6, r2]
	orr	r3, r3, #134217728
	str	r3, [r6, r2]
.L669:
	movs	r0, #0
	add	sp, sp, #12
	@ sp needed
	pop	{r4, r5, r6, r7, pc}
.L677:
	.align	2
.L676:
	.word	.LANCHOR0
	.word	.LANCHOR1+1298
	.word	.LC0
	.fnend
	.size	set_rc_fm_lvl_qp_min_i, .-set_rc_fm_lvl_qp_min_i
	.align	1
	.global	get_rc_fm_lvl_qp_min_i
	.syntax unified
	.thumb
	.thumb_func
	.fpu softvfp
	.type	get_rc_fm_lvl_qp_min_i, %function
get_rc_fm_lvl_qp_min_i:
	.fnstart
	@ args = 0, pretend = 0, frame = 0
	@ frame_needed = 0, uses_anonymous_args = 0
	ldr	r3, .L683
	push	{r4, r5, r6, lr}
	.save {r4, r5, r6, lr}
	mov	r6, r0
	ldr	r3, [r3]
	mov	r4, r1
	mov	r5, r2
	lsls	r3, r3, #31
	bpl	.L679
	movs	r2, #242
	ldr	r1, .L683+4
	ldr	r0, .L683+8
	bl	printk
.L679:
	ldrh	r2, [r4, #4]
	mov	r0, r5
	ldrh	r1, [r4, #6]
	lsrs	r2, r2, #4
	add	r1, r1, r6
	bl	memcpy
	movs	r0, #0
	pop	{r4, r5, r6, pc}
.L684:
	.align	2
.L683:
	.word	.LANCHOR0
	.word	.LANCHOR1+1321
	.word	.LC0
	.fnend
	.size	get_rc_fm_lvl_qp_min_i, .-get_rc_fm_lvl_qp_min_i
	.align	1
	.global	set_rc_fm_lvl_qp_min_p
	.syntax unified
	.thumb
	.thumb_func
	.fpu softvfp
	.type	set_rc_fm_lvl_qp_min_p, %function
set_rc_fm_lvl_qp_min_p:
	.fnstart
	@ args = 0, pretend = 0, frame = 8
	@ frame_needed = 0, uses_anonymous_args = 0
	ldr	r3, .L694
	push	{r0, r1, r2, r4, r5, r6, r7, lr}
	.save {r4, r5, r6, r7, lr}
	.pad #12
	mov	r6, r0
	ldr	r3, [r3]
	mov	r7, r1
	str	r2, [sp, #4]
	lsls	r3, r3, #31
	bpl	.L686
	movs	r2, #242
	ldr	r1, .L694+4
	ldr	r0, .L694+8
	bl	printk
.L686:
	ldrh	r5, [r7, #4]
	add	r1, sp, #4
	ldrh	r4, [r7, #6]
	lsrs	r5, r5, #4
	add	r4, r4, r6
	mov	r2, r5
	mov	r0, r4
	bl	memcmp
	cbz	r0, .L687
	mov	r2, r5
	add	r1, sp, #4
	mov	r0, r4
	bl	memcpy
	ldrh	r2, [r7, #10]
	ldr	r3, [r6, r2]
	orr	r3, r3, #134217728
	str	r3, [r6, r2]
.L687:
	movs	r0, #0
	add	sp, sp, #12
	@ sp needed
	pop	{r4, r5, r6, r7, pc}
.L695:
	.align	2
.L694:
	.word	.LANCHOR0
	.word	.LANCHOR1+1344
	.word	.LC0
	.fnend
	.size	set_rc_fm_lvl_qp_min_p, .-set_rc_fm_lvl_qp_min_p
	.align	1
	.global	get_rc_fm_lvl_qp_min_p
	.syntax unified
	.thumb
	.thumb_func
	.fpu softvfp
	.type	get_rc_fm_lvl_qp_min_p, %function
get_rc_fm_lvl_qp_min_p:
	.fnstart
	@ args = 0, pretend = 0, frame = 0
	@ frame_needed = 0, uses_anonymous_args = 0
	ldr	r3, .L701
	push	{r4, r5, r6, lr}
	.save {r4, r5, r6, lr}
	mov	r6, r0
	ldr	r3, [r3]
	mov	r4, r1
	mov	r5, r2
	lsls	r3, r3, #31
	bpl	.L697
	movs	r2, #242
	ldr	r1, .L701+4
	ldr	r0, .L701+8
	bl	printk
.L697:
	ldrh	r2, [r4, #4]
	mov	r0, r5
	ldrh	r1, [r4, #6]
	lsrs	r2, r2, #4
	add	r1, r1, r6
	bl	memcpy
	movs	r0, #0
	pop	{r4, r5, r6, pc}
.L702:
	.align	2
.L701:
	.word	.LANCHOR0
	.word	.LANCHOR1+1367
	.word	.LC0
	.fnend
	.size	get_rc_fm_lvl_qp_min_p, .-get_rc_fm_lvl_qp_min_p
	.align	1
	.global	set_rc_fm_lvl_qp_max_i
	.syntax unified
	.thumb
	.thumb_func
	.fpu softvfp
	.type	set_rc_fm_lvl_qp_max_i, %function
set_rc_fm_lvl_qp_max_i:
	.fnstart
	@ args = 0, pretend = 0, frame = 8
	@ frame_needed = 0, uses_anonymous_args = 0
	ldr	r3, .L712
	push	{r0, r1, r2, r4, r5, r6, r7, lr}
	.save {r4, r5, r6, r7, lr}
	.pad #12
	mov	r6, r0
	ldr	r3, [r3]
	mov	r7, r1
	str	r2, [sp, #4]
	lsls	r3, r3, #31
	bpl	.L704
	movs	r2, #242
	ldr	r1, .L712+4
	ldr	r0, .L712+8
	bl	printk
.L704:
	ldrh	r5, [r7, #4]
	add	r1, sp, #4
	ldrh	r4, [r7, #6]
	lsrs	r5, r5, #4
	add	r4, r4, r6
	mov	r2, r5
	mov	r0, r4
	bl	memcmp
	cbz	r0, .L705
	mov	r2, r5
	add	r1, sp, #4
	mov	r0, r4
	bl	memcpy
	ldrh	r2, [r7, #10]
	ldr	r3, [r6, r2]
	orr	r3, r3, #134217728
	str	r3, [r6, r2]
.L705:
	movs	r0, #0
	add	sp, sp, #12
	@ sp needed
	pop	{r4, r5, r6, r7, pc}
.L713:
	.align	2
.L712:
	.word	.LANCHOR0
	.word	.LANCHOR1+1390
	.word	.LC0
	.fnend
	.size	set_rc_fm_lvl_qp_max_i, .-set_rc_fm_lvl_qp_max_i
	.align	1
	.global	get_rc_fm_lvl_qp_max_i
	.syntax unified
	.thumb
	.thumb_func
	.fpu softvfp
	.type	get_rc_fm_lvl_qp_max_i, %function
get_rc_fm_lvl_qp_max_i:
	.fnstart
	@ args = 0, pretend = 0, frame = 0
	@ frame_needed = 0, uses_anonymous_args = 0
	ldr	r3, .L719
	push	{r4, r5, r6, lr}
	.save {r4, r5, r6, lr}
	mov	r6, r0
	ldr	r3, [r3]
	mov	r4, r1
	mov	r5, r2
	lsls	r3, r3, #31
	bpl	.L715
	movs	r2, #242
	ldr	r1, .L719+4
	ldr	r0, .L719+8
	bl	printk
.L715:
	ldrh	r2, [r4, #4]
	mov	r0, r5
	ldrh	r1, [r4, #6]
	lsrs	r2, r2, #4
	add	r1, r1, r6
	bl	memcpy
	movs	r0, #0
	pop	{r4, r5, r6, pc}
.L720:
	.align	2
.L719:
	.word	.LANCHOR0
	.word	.LANCHOR1+1413
	.word	.LC0
	.fnend
	.size	get_rc_fm_lvl_qp_max_i, .-get_rc_fm_lvl_qp_max_i
	.align	1
	.global	set_rc_fm_lvl_qp_max_p
	.syntax unified
	.thumb
	.thumb_func
	.fpu softvfp
	.type	set_rc_fm_lvl_qp_max_p, %function
set_rc_fm_lvl_qp_max_p:
	.fnstart
	@ args = 0, pretend = 0, frame = 8
	@ frame_needed = 0, uses_anonymous_args = 0
	ldr	r3, .L730
	push	{r0, r1, r2, r4, r5, r6, r7, lr}
	.save {r4, r5, r6, r7, lr}
	.pad #12
	mov	r6, r0
	ldr	r3, [r3]
	mov	r7, r1
	str	r2, [sp, #4]
	lsls	r3, r3, #31
	bpl	.L722
	movs	r2, #242
	ldr	r1, .L730+4
	ldr	r0, .L730+8
	bl	printk
.L722:
	ldrh	r5, [r7, #4]
	add	r1, sp, #4
	ldrh	r4, [r7, #6]
	lsrs	r5, r5, #4
	add	r4, r4, r6
	mov	r2, r5
	mov	r0, r4
	bl	memcmp
	cbz	r0, .L723
	mov	r2, r5
	add	r1, sp, #4
	mov	r0, r4
	bl	memcpy
	ldrh	r2, [r7, #10]
	ldr	r3, [r6, r2]
	orr	r3, r3, #134217728
	str	r3, [r6, r2]
.L723:
	movs	r0, #0
	add	sp, sp, #12
	@ sp needed
	pop	{r4, r5, r6, r7, pc}
.L731:
	.align	2
.L730:
	.word	.LANCHOR0
	.word	.LANCHOR1+1436
	.word	.LC0
	.fnend
	.size	set_rc_fm_lvl_qp_max_p, .-set_rc_fm_lvl_qp_max_p
	.align	1
	.global	get_rc_fm_lvl_qp_max_p
	.syntax unified
	.thumb
	.thumb_func
	.fpu softvfp
	.type	get_rc_fm_lvl_qp_max_p, %function
get_rc_fm_lvl_qp_max_p:
	.fnstart
	@ args = 0, pretend = 0, frame = 0
	@ frame_needed = 0, uses_anonymous_args = 0
	ldr	r3, .L737
	push	{r4, r5, r6, lr}
	.save {r4, r5, r6, lr}
	mov	r6, r0
	ldr	r3, [r3]
	mov	r4, r1
	mov	r5, r2
	lsls	r3, r3, #31
	bpl	.L733
	movs	r2, #242
	ldr	r1, .L737+4
	ldr	r0, .L737+8
	bl	printk
.L733:
	ldrh	r2, [r4, #4]
	mov	r0, r5
	ldrh	r1, [r4, #6]
	lsrs	r2, r2, #4
	add	r1, r1, r6
	bl	memcpy
	movs	r0, #0
	pop	{r4, r5, r6, pc}
.L738:
	.align	2
.L737:
	.word	.LANCHOR0
	.word	.LANCHOR1+1459
	.word	.LC0
	.fnend
	.size	get_rc_fm_lvl_qp_max_p, .-get_rc_fm_lvl_qp_max_p
	.align	1
	.global	set_prep_width
	.syntax unified
	.thumb
	.thumb_func
	.fpu softvfp
	.type	set_prep_width, %function
set_prep_width:
	.fnstart
	@ args = 0, pretend = 0, frame = 8
	@ frame_needed = 0, uses_anonymous_args = 0
	ldr	r3, .L748
	push	{r0, r1, r2, r4, r5, r6, r7, lr}
	.save {r4, r5, r6, r7, lr}
	.pad #12
	mov	r6, r0
	ldr	r3, [r3]
	mov	r7, r1
	str	r2, [sp, #4]
	lsls	r3, r3, #31
	bpl	.L740
	movs	r2, #242
	ldr	r1, .L748+4
	ldr	r0, .L748+8
	bl	printk
.L740:
	ldrh	r5, [r7, #4]
	add	r1, sp, #4
	ldrh	r4, [r7, #6]
	lsrs	r5, r5, #4
	add	r4, r4, r6
	mov	r2, r5
	mov	r0, r4
	bl	memcmp
	cbz	r0, .L741
	mov	r2, r5
	add	r1, sp, #4
	mov	r0, r4
	bl	memcpy
	ldrh	r2, [r7, #10]
	ldr	r3, [r6, r2]
	orr	r3, r3, #1
	str	r3, [r6, r2]
.L741:
	movs	r0, #0
	add	sp, sp, #12
	@ sp needed
	pop	{r4, r5, r6, r7, pc}
.L749:
	.align	2
.L748:
	.word	.LANCHOR0
	.word	.LANCHOR1+1482
	.word	.LC0
	.fnend
	.size	set_prep_width, .-set_prep_width
	.align	1
	.global	get_prep_width
	.syntax unified
	.thumb
	.thumb_func
	.fpu softvfp
	.type	get_prep_width, %function
get_prep_width:
	.fnstart
	@ args = 0, pretend = 0, frame = 0
	@ frame_needed = 0, uses_anonymous_args = 0
	ldr	r3, .L755
	push	{r4, r5, r6, lr}
	.save {r4, r5, r6, lr}
	mov	r6, r0
	ldr	r3, [r3]
	mov	r4, r1
	mov	r5, r2
	lsls	r3, r3, #31
	bpl	.L751
	movs	r2, #242
	ldr	r1, .L755+4
	ldr	r0, .L755+8
	bl	printk
.L751:
	ldrh	r2, [r4, #4]
	mov	r0, r5
	ldrh	r1, [r4, #6]
	lsrs	r2, r2, #4
	add	r1, r1, r6
	bl	memcpy
	movs	r0, #0
	pop	{r4, r5, r6, pc}
.L756:
	.align	2
.L755:
	.word	.LANCHOR0
	.word	.LANCHOR1+1497
	.word	.LC0
	.fnend
	.size	get_prep_width, .-get_prep_width
	.align	1
	.global	set_prep_height
	.syntax unified
	.thumb
	.thumb_func
	.fpu softvfp
	.type	set_prep_height, %function
set_prep_height:
	.fnstart
	@ args = 0, pretend = 0, frame = 8
	@ frame_needed = 0, uses_anonymous_args = 0
	ldr	r3, .L766
	push	{r0, r1, r2, r4, r5, r6, r7, lr}
	.save {r4, r5, r6, r7, lr}
	.pad #12
	mov	r6, r0
	ldr	r3, [r3]
	mov	r7, r1
	str	r2, [sp, #4]
	lsls	r3, r3, #31
	bpl	.L758
	movs	r2, #242
	ldr	r1, .L766+4
	ldr	r0, .L766+8
	bl	printk
.L758:
	ldrh	r5, [r7, #4]
	add	r1, sp, #4
	ldrh	r4, [r7, #6]
	lsrs	r5, r5, #4
	add	r4, r4, r6
	mov	r2, r5
	mov	r0, r4
	bl	memcmp
	cbz	r0, .L759
	mov	r2, r5
	add	r1, sp, #4
	mov	r0, r4
	bl	memcpy
	ldrh	r2, [r7, #10]
	ldr	r3, [r6, r2]
	orr	r3, r3, #1
	str	r3, [r6, r2]
.L759:
	movs	r0, #0
	add	sp, sp, #12
	@ sp needed
	pop	{r4, r5, r6, r7, pc}
.L767:
	.align	2
.L766:
	.word	.LANCHOR0
	.word	.LANCHOR1+1512
	.word	.LC0
	.fnend
	.size	set_prep_height, .-set_prep_height
	.align	1
	.global	get_prep_height
	.syntax unified
	.thumb
	.thumb_func
	.fpu softvfp
	.type	get_prep_height, %function
get_prep_height:
	.fnstart
	@ args = 0, pretend = 0, frame = 0
	@ frame_needed = 0, uses_anonymous_args = 0
	ldr	r3, .L773
	push	{r4, r5, r6, lr}
	.save {r4, r5, r6, lr}
	mov	r6, r0
	ldr	r3, [r3]
	mov	r4, r1
	mov	r5, r2
	lsls	r3, r3, #31
	bpl	.L769
	movs	r2, #242
	ldr	r1, .L773+4
	ldr	r0, .L773+8
	bl	printk
.L769:
	ldrh	r2, [r4, #4]
	mov	r0, r5
	ldrh	r1, [r4, #6]
	lsrs	r2, r2, #4
	add	r1, r1, r6
	bl	memcpy
	movs	r0, #0
	pop	{r4, r5, r6, pc}
.L774:
	.align	2
.L773:
	.word	.LANCHOR0
	.word	.LANCHOR1+1528
	.word	.LC0
	.fnend
	.size	get_prep_height, .-get_prep_height
	.align	1
	.global	set_prep_hor_stride
	.syntax unified
	.thumb
	.thumb_func
	.fpu softvfp
	.type	set_prep_hor_stride, %function
set_prep_hor_stride:
	.fnstart
	@ args = 0, pretend = 0, frame = 8
	@ frame_needed = 0, uses_anonymous_args = 0
	ldr	r3, .L784
	push	{r0, r1, r2, r4, r5, r6, r7, lr}
	.save {r4, r5, r6, r7, lr}
	.pad #12
	mov	r6, r0
	ldr	r3, [r3]
	mov	r7, r1
	str	r2, [sp, #4]
	lsls	r3, r3, #31
	bpl	.L776
	movs	r2, #242
	ldr	r1, .L784+4
	ldr	r0, .L784+8
	bl	printk
.L776:
	ldrh	r5, [r7, #4]
	add	r1, sp, #4
	ldrh	r4, [r7, #6]
	lsrs	r5, r5, #4
	add	r4, r4, r6
	mov	r2, r5
	mov	r0, r4
	bl	memcmp
	cbz	r0, .L777
	mov	r2, r5
	add	r1, sp, #4
	mov	r0, r4
	bl	memcpy
	ldrh	r2, [r7, #10]
	ldr	r3, [r6, r2]
	orr	r3, r3, #1
	str	r3, [r6, r2]
.L777:
	movs	r0, #0
	add	sp, sp, #12
	@ sp needed
	pop	{r4, r5, r6, r7, pc}
.L785:
	.align	2
.L784:
	.word	.LANCHOR0
	.word	.LANCHOR1+1544
	.word	.LC0
	.fnend
	.size	set_prep_hor_stride, .-set_prep_hor_stride
	.align	1
	.global	get_prep_hor_stride
	.syntax unified
	.thumb
	.thumb_func
	.fpu softvfp
	.type	get_prep_hor_stride, %function
get_prep_hor_stride:
	.fnstart
	@ args = 0, pretend = 0, frame = 0
	@ frame_needed = 0, uses_anonymous_args = 0
	ldr	r3, .L791
	push	{r4, r5, r6, lr}
	.save {r4, r5, r6, lr}
	mov	r6, r0
	ldr	r3, [r3]
	mov	r4, r1
	mov	r5, r2
	lsls	r3, r3, #31
	bpl	.L787
	movs	r2, #242
	ldr	r1, .L791+4
	ldr	r0, .L791+8
	bl	printk
.L787:
	ldrh	r2, [r4, #4]
	mov	r0, r5
	ldrh	r1, [r4, #6]
	lsrs	r2, r2, #4
	add	r1, r1, r6
	bl	memcpy
	movs	r0, #0
	pop	{r4, r5, r6, pc}
.L792:
	.align	2
.L791:
	.word	.LANCHOR0
	.word	.LANCHOR1+1564
	.word	.LC0
	.fnend
	.size	get_prep_hor_stride, .-get_prep_hor_stride
	.align	1
	.global	set_prep_ver_stride
	.syntax unified
	.thumb
	.thumb_func
	.fpu softvfp
	.type	set_prep_ver_stride, %function
set_prep_ver_stride:
	.fnstart
	@ args = 0, pretend = 0, frame = 8
	@ frame_needed = 0, uses_anonymous_args = 0
	ldr	r3, .L802
	push	{r0, r1, r2, r4, r5, r6, r7, lr}
	.save {r4, r5, r6, r7, lr}
	.pad #12
	mov	r6, r0
	ldr	r3, [r3]
	mov	r7, r1
	str	r2, [sp, #4]
	lsls	r3, r3, #31
	bpl	.L794
	movs	r2, #242
	ldr	r1, .L802+4
	ldr	r0, .L802+8
	bl	printk
.L794:
	ldrh	r5, [r7, #4]
	add	r1, sp, #4
	ldrh	r4, [r7, #6]
	lsrs	r5, r5, #4
	add	r4, r4, r6
	mov	r2, r5
	mov	r0, r4
	bl	memcmp
	cbz	r0, .L795
	mov	r2, r5
	add	r1, sp, #4
	mov	r0, r4
	bl	memcpy
	ldrh	r2, [r7, #10]
	ldr	r3, [r6, r2]
	orr	r3, r3, #1
	str	r3, [r6, r2]
.L795:
	movs	r0, #0
	add	sp, sp, #12
	@ sp needed
	pop	{r4, r5, r6, r7, pc}
.L803:
	.align	2
.L802:
	.word	.LANCHOR0
	.word	.LANCHOR1+1584
	.word	.LC0
	.fnend
	.size	set_prep_ver_stride, .-set_prep_ver_stride
	.align	1
	.global	get_prep_ver_stride
	.syntax unified
	.thumb
	.thumb_func
	.fpu softvfp
	.type	get_prep_ver_stride, %function
get_prep_ver_stride:
	.fnstart
	@ args = 0, pretend = 0, frame = 0
	@ frame_needed = 0, uses_anonymous_args = 0
	ldr	r3, .L809
	push	{r4, r5, r6, lr}
	.save {r4, r5, r6, lr}
	mov	r6, r0
	ldr	r3, [r3]
	mov	r4, r1
	mov	r5, r2
	lsls	r3, r3, #31
	bpl	.L805
	movs	r2, #242
	ldr	r1, .L809+4
	ldr	r0, .L809+8
	bl	printk
.L805:
	ldrh	r2, [r4, #4]
	mov	r0, r5
	ldrh	r1, [r4, #6]
	lsrs	r2, r2, #4
	add	r1, r1, r6
	bl	memcpy
	movs	r0, #0
	pop	{r4, r5, r6, pc}
.L810:
	.align	2
.L809:
	.word	.LANCHOR0
	.word	.LANCHOR1+1604
	.word	.LC0
	.fnend
	.size	get_prep_ver_stride, .-get_prep_ver_stride
	.align	1
	.global	set_prep_max_width
	.syntax unified
	.thumb
	.thumb_func
	.fpu softvfp
	.type	set_prep_max_width, %function
set_prep_max_width:
	.fnstart
	@ args = 0, pretend = 0, frame = 8
	@ frame_needed = 0, uses_anonymous_args = 0
	ldr	r3, .L820
	push	{r0, r1, r2, r4, r5, r6, r7, lr}
	.save {r4, r5, r6, r7, lr}
	.pad #12
	mov	r6, r0
	ldr	r3, [r3]
	mov	r7, r1
	str	r2, [sp, #4]
	lsls	r3, r3, #31
	bpl	.L812
	movs	r2, #242
	ldr	r1, .L820+4
	ldr	r0, .L820+8
	bl	printk
.L812:
	ldrh	r5, [r7, #4]
	add	r1, sp, #4
	ldrh	r4, [r7, #6]
	lsrs	r5, r5, #4
	add	r4, r4, r6
	mov	r2, r5
	mov	r0, r4
	bl	memcmp
	cbz	r0, .L813
	mov	r2, r5
	add	r1, sp, #4
	mov	r0, r4
	bl	memcpy
	ldrh	r2, [r7, #10]
	ldr	r3, [r6, r2]
	orr	r3, r3, #1
	str	r3, [r6, r2]
.L813:
	movs	r0, #0
	add	sp, sp, #12
	@ sp needed
	pop	{r4, r5, r6, r7, pc}
.L821:
	.align	2
.L820:
	.word	.LANCHOR0
	.word	.LANCHOR1+1624
	.word	.LC0
	.fnend
	.size	set_prep_max_width, .-set_prep_max_width
	.align	1
	.global	get_prep_max_width
	.syntax unified
	.thumb
	.thumb_func
	.fpu softvfp
	.type	get_prep_max_width, %function
get_prep_max_width:
	.fnstart
	@ args = 0, pretend = 0, frame = 0
	@ frame_needed = 0, uses_anonymous_args = 0
	ldr	r3, .L827
	push	{r4, r5, r6, lr}
	.save {r4, r5, r6, lr}
	mov	r6, r0
	ldr	r3, [r3]
	mov	r4, r1
	mov	r5, r2
	lsls	r3, r3, #31
	bpl	.L823
	movs	r2, #242
	ldr	r1, .L827+4
	ldr	r0, .L827+8
	bl	printk
.L823:
	ldrh	r2, [r4, #4]
	mov	r0, r5
	ldrh	r1, [r4, #6]
	lsrs	r2, r2, #4
	add	r1, r1, r6
	bl	memcpy
	movs	r0, #0
	pop	{r4, r5, r6, pc}
.L828:
	.align	2
.L827:
	.word	.LANCHOR0
	.word	.LANCHOR1+1643
	.word	.LC0
	.fnend
	.size	get_prep_max_width, .-get_prep_max_width
	.align	1
	.global	set_prep_max_height
	.syntax unified
	.thumb
	.thumb_func
	.fpu softvfp
	.type	set_prep_max_height, %function
set_prep_max_height:
	.fnstart
	@ args = 0, pretend = 0, frame = 8
	@ frame_needed = 0, uses_anonymous_args = 0
	ldr	r3, .L838
	push	{r0, r1, r2, r4, r5, r6, r7, lr}
	.save {r4, r5, r6, r7, lr}
	.pad #12
	mov	r6, r0
	ldr	r3, [r3]
	mov	r7, r1
	str	r2, [sp, #4]
	lsls	r3, r3, #31
	bpl	.L830
	movs	r2, #242
	ldr	r1, .L838+4
	ldr	r0, .L838+8
	bl	printk
.L830:
	ldrh	r5, [r7, #4]
	add	r1, sp, #4
	ldrh	r4, [r7, #6]
	lsrs	r5, r5, #4
	add	r4, r4, r6
	mov	r2, r5
	mov	r0, r4
	bl	memcmp
	cbz	r0, .L831
	mov	r2, r5
	add	r1, sp, #4
	mov	r0, r4
	bl	memcpy
	ldrh	r2, [r7, #10]
	ldr	r3, [r6, r2]
	orr	r3, r3, #1
	str	r3, [r6, r2]
.L831:
	movs	r0, #0
	add	sp, sp, #12
	@ sp needed
	pop	{r4, r5, r6, r7, pc}
.L839:
	.align	2
.L838:
	.word	.LANCHOR0
	.word	.LANCHOR1+1662
	.word	.LC0
	.fnend
	.size	set_prep_max_height, .-set_prep_max_height
	.align	1
	.global	get_prep_max_height
	.syntax unified
	.thumb
	.thumb_func
	.fpu softvfp
	.type	get_prep_max_height, %function
get_prep_max_height:
	.fnstart
	@ args = 0, pretend = 0, frame = 0
	@ frame_needed = 0, uses_anonymous_args = 0
	ldr	r3, .L845
	push	{r4, r5, r6, lr}
	.save {r4, r5, r6, lr}
	mov	r6, r0
	ldr	r3, [r3]
	mov	r4, r1
	mov	r5, r2
	lsls	r3, r3, #31
	bpl	.L841
	movs	r2, #242
	ldr	r1, .L845+4
	ldr	r0, .L845+8
	bl	printk
.L841:
	ldrh	r2, [r4, #4]
	mov	r0, r5
	ldrh	r1, [r4, #6]
	lsrs	r2, r2, #4
	add	r1, r1, r6
	bl	memcpy
	movs	r0, #0
	pop	{r4, r5, r6, pc}
.L846:
	.align	2
.L845:
	.word	.LANCHOR0
	.word	.LANCHOR1+1682
	.word	.LC0
	.fnend
	.size	get_prep_max_height, .-get_prep_max_height
	.align	1
	.global	set_prep_format
	.syntax unified
	.thumb
	.thumb_func
	.fpu softvfp
	.type	set_prep_format, %function
set_prep_format:
	.fnstart
	@ args = 0, pretend = 0, frame = 8
	@ frame_needed = 0, uses_anonymous_args = 0
	ldr	r3, .L856
	push	{r0, r1, r2, r4, r5, r6, r7, lr}
	.save {r4, r5, r6, r7, lr}
	.pad #12
	mov	r6, r0
	ldr	r3, [r3]
	mov	r7, r1
	str	r2, [sp, #4]
	lsls	r3, r3, #31
	bpl	.L848
	movs	r2, #242
	ldr	r1, .L856+4
	ldr	r0, .L856+8
	bl	printk
.L848:
	ldrh	r5, [r7, #4]
	add	r1, sp, #4
	ldrh	r4, [r7, #6]
	lsrs	r5, r5, #4
	add	r4, r4, r6
	mov	r2, r5
	mov	r0, r4
	bl	memcmp
	cbz	r0, .L849
	mov	r2, r5
	add	r1, sp, #4
	mov	r0, r4
	bl	memcpy
	ldrh	r2, [r7, #10]
	ldr	r3, [r6, r2]
	orr	r3, r3, #4
	str	r3, [r6, r2]
.L849:
	movs	r0, #0
	add	sp, sp, #12
	@ sp needed
	pop	{r4, r5, r6, r7, pc}
.L857:
	.align	2
.L856:
	.word	.LANCHOR0
	.word	.LANCHOR1+1702
	.word	.LC0
	.fnend
	.size	set_prep_format, .-set_prep_format
	.align	1
	.global	get_prep_format
	.syntax unified
	.thumb
	.thumb_func
	.fpu softvfp
	.type	get_prep_format, %function
get_prep_format:
	.fnstart
	@ args = 0, pretend = 0, frame = 0
	@ frame_needed = 0, uses_anonymous_args = 0
	ldr	r3, .L863
	push	{r4, r5, r6, lr}
	.save {r4, r5, r6, lr}
	mov	r6, r0
	ldr	r3, [r3]
	mov	r4, r1
	mov	r5, r2
	lsls	r3, r3, #31
	bpl	.L859
	movs	r2, #242
	ldr	r1, .L863+4
	ldr	r0, .L863+8
	bl	printk
.L859:
	ldrh	r2, [r4, #4]
	mov	r0, r5
	ldrh	r1, [r4, #6]
	lsrs	r2, r2, #4
	add	r1, r1, r6
	bl	memcpy
	movs	r0, #0
	pop	{r4, r5, r6, pc}
.L864:
	.align	2
.L863:
	.word	.LANCHOR0
	.word	.LANCHOR1+1718
	.word	.LC0
	.fnend
	.size	get_prep_format, .-get_prep_format
	.align	1
	.global	set_prep_colorspace
	.syntax unified
	.thumb
	.thumb_func
	.fpu softvfp
	.type	set_prep_colorspace, %function
set_prep_colorspace:
	.fnstart
	@ args = 0, pretend = 0, frame = 8
	@ frame_needed = 0, uses_anonymous_args = 0
	ldr	r3, .L874
	push	{r0, r1, r2, r4, r5, r6, r7, lr}
	.save {r4, r5, r6, r7, lr}
	.pad #12
	mov	r6, r0
	ldr	r3, [r3]
	mov	r7, r1
	str	r2, [sp, #4]
	lsls	r3, r3, #31
	bpl	.L866
	movs	r2, #242
	ldr	r1, .L874+4
	ldr	r0, .L874+8
	bl	printk
.L866:
	ldrh	r5, [r7, #4]
	add	r1, sp, #4
	ldrh	r4, [r7, #6]
	lsrs	r5, r5, #4
	add	r4, r4, r6
	mov	r2, r5
	mov	r0, r4
	bl	memcmp
	cbz	r0, .L867
	mov	r2, r5
	add	r1, sp, #4
	mov	r0, r4
	bl	memcpy
	ldrh	r2, [r7, #10]
	ldr	r3, [r6, r2]
	orr	r3, r3, #131072
	str	r3, [r6, r2]
.L867:
	movs	r0, #0
	add	sp, sp, #12
	@ sp needed
	pop	{r4, r5, r6, r7, pc}
.L875:
	.align	2
.L874:
	.word	.LANCHOR0
	.word	.LANCHOR1+1734
	.word	.LC0
	.fnend
	.size	set_prep_colorspace, .-set_prep_colorspace
	.align	1
	.global	get_prep_colorspace
	.syntax unified
	.thumb
	.thumb_func
	.fpu softvfp
	.type	get_prep_colorspace, %function
get_prep_colorspace:
	.fnstart
	@ args = 0, pretend = 0, frame = 0
	@ frame_needed = 0, uses_anonymous_args = 0
	ldr	r3, .L881
	push	{r4, r5, r6, lr}
	.save {r4, r5, r6, lr}
	mov	r6, r0
	ldr	r3, [r3]
	mov	r4, r1
	mov	r5, r2
	lsls	r3, r3, #31
	bpl	.L877
	movs	r2, #242
	ldr	r1, .L881+4
	ldr	r0, .L881+8
	bl	printk
.L877:
	ldrh	r2, [r4, #4]
	mov	r0, r5
	ldrh	r1, [r4, #6]
	lsrs	r2, r2, #4
	add	r1, r1, r6
	bl	memcpy
	movs	r0, #0
	pop	{r4, r5, r6, pc}
.L882:
	.align	2
.L881:
	.word	.LANCHOR0
	.word	.LANCHOR1+1754
	.word	.LC0
	.fnend
	.size	get_prep_colorspace, .-get_prep_colorspace
	.align	1
	.global	set_prep_colorprim
	.syntax unified
	.thumb
	.thumb_func
	.fpu softvfp
	.type	set_prep_colorprim, %function
set_prep_colorprim:
	.fnstart
	@ args = 0, pretend = 0, frame = 8
	@ frame_needed = 0, uses_anonymous_args = 0
	ldr	r3, .L892
	push	{r0, r1, r2, r4, r5, r6, r7, lr}
	.save {r4, r5, r6, r7, lr}
	.pad #12
	mov	r6, r0
	ldr	r3, [r3]
	mov	r7, r1
	str	r2, [sp, #4]
	lsls	r3, r3, #31
	bpl	.L884
	movs	r2, #242
	ldr	r1, .L892+4
	ldr	r0, .L892+8
	bl	printk
.L884:
	ldrh	r5, [r7, #4]
	add	r1, sp, #4
	ldrh	r4, [r7, #6]
	lsrs	r5, r5, #4
	add	r4, r4, r6
	mov	r2, r5
	mov	r0, r4
	bl	memcmp
	cbz	r0, .L885
	mov	r2, r5
	add	r1, sp, #4
	mov	r0, r4
	bl	memcpy
	ldrh	r2, [r7, #10]
	ldr	r3, [r6, r2]
	orr	r3, r3, #262144
	str	r3, [r6, r2]
.L885:
	movs	r0, #0
	add	sp, sp, #12
	@ sp needed
	pop	{r4, r5, r6, r7, pc}
.L893:
	.align	2
.L892:
	.word	.LANCHOR0
	.word	.LANCHOR1+1774
	.word	.LC0
	.fnend
	.size	set_prep_colorprim, .-set_prep_colorprim
	.align	1
	.global	get_prep_colorprim
	.syntax unified
	.thumb
	.thumb_func
	.fpu softvfp
	.type	get_prep_colorprim, %function
get_prep_colorprim:
	.fnstart
	@ args = 0, pretend = 0, frame = 0
	@ frame_needed = 0, uses_anonymous_args = 0
	ldr	r3, .L899
	push	{r4, r5, r6, lr}
	.save {r4, r5, r6, lr}
	mov	r6, r0
	ldr	r3, [r3]
	mov	r4, r1
	mov	r5, r2
	lsls	r3, r3, #31
	bpl	.L895
	movs	r2, #242
	ldr	r1, .L899+4
	ldr	r0, .L899+8
	bl	printk
.L895:
	ldrh	r2, [r4, #4]
	mov	r0, r5
	ldrh	r1, [r4, #6]
	lsrs	r2, r2, #4
	add	r1, r1, r6
	bl	memcpy
	movs	r0, #0
	pop	{r4, r5, r6, pc}
.L900:
	.align	2
.L899:
	.word	.LANCHOR0
	.word	.LANCHOR1+1793
	.word	.LC0
	.fnend
	.size	get_prep_colorprim, .-get_prep_colorprim
	.align	1
	.global	set_prep_colortrc
	.syntax unified
	.thumb
	.thumb_func
	.fpu softvfp
	.type	set_prep_colortrc, %function
set_prep_colortrc:
	.fnstart
	@ args = 0, pretend = 0, frame = 8
	@ frame_needed = 0, uses_anonymous_args = 0
	ldr	r3, .L910
	push	{r0, r1, r2, r4, r5, r6, r7, lr}
	.save {r4, r5, r6, r7, lr}
	.pad #12
	mov	r6, r0
	ldr	r3, [r3]
	mov	r7, r1
	str	r2, [sp, #4]
	lsls	r3, r3, #31
	bpl	.L902
	movs	r2, #242
	ldr	r1, .L910+4
	ldr	r0, .L910+8
	bl	printk
.L902:
	ldrh	r5, [r7, #4]
	add	r1, sp, #4
	ldrh	r4, [r7, #6]
	lsrs	r5, r5, #4
	add	r4, r4, r6
	mov	r2, r5
	mov	r0, r4
	bl	memcmp
	cbz	r0, .L903
	mov	r2, r5
	add	r1, sp, #4
	mov	r0, r4
	bl	memcpy
	ldrh	r2, [r7, #10]
	ldr	r3, [r6, r2]
	orr	r3, r3, #524288
	str	r3, [r6, r2]
.L903:
	movs	r0, #0
	add	sp, sp, #12
	@ sp needed
	pop	{r4, r5, r6, r7, pc}
.L911:
	.align	2
.L910:
	.word	.LANCHOR0
	.word	.LANCHOR1+1812
	.word	.LC0
	.fnend
	.size	set_prep_colortrc, .-set_prep_colortrc
	.align	1
	.global	get_prep_colortrc
	.syntax unified
	.thumb
	.thumb_func
	.fpu softvfp
	.type	get_prep_colortrc, %function
get_prep_colortrc:
	.fnstart
	@ args = 0, pretend = 0, frame = 0
	@ frame_needed = 0, uses_anonymous_args = 0
	ldr	r3, .L917
	push	{r4, r5, r6, lr}
	.save {r4, r5, r6, lr}
	mov	r6, r0
	ldr	r3, [r3]
	mov	r4, r1
	mov	r5, r2
	lsls	r3, r3, #31
	bpl	.L913
	movs	r2, #242
	ldr	r1, .L917+4
	ldr	r0, .L917+8
	bl	printk
.L913:
	ldrh	r2, [r4, #4]
	mov	r0, r5
	ldrh	r1, [r4, #6]
	lsrs	r2, r2, #4
	add	r1, r1, r6
	bl	memcpy
	movs	r0, #0
	pop	{r4, r5, r6, pc}
.L918:
	.align	2
.L917:
	.word	.LANCHOR0
	.word	.LANCHOR1+1830
	.word	.LC0
	.fnend
	.size	get_prep_colortrc, .-get_prep_colortrc
	.align	1
	.global	set_prep_colorrange
	.syntax unified
	.thumb
	.thumb_func
	.fpu softvfp
	.type	set_prep_colorrange, %function
set_prep_colorrange:
	.fnstart
	@ args = 0, pretend = 0, frame = 8
	@ frame_needed = 0, uses_anonymous_args = 0
	ldr	r3, .L928
	push	{r0, r1, r2, r4, r5, r6, r7, lr}
	.save {r4, r5, r6, r7, lr}
	.pad #12
	mov	r6, r0
	ldr	r3, [r3]
	mov	r7, r1
	str	r2, [sp, #4]
	lsls	r3, r3, #31
	bpl	.L920
	movs	r2, #242
	ldr	r1, .L928+4
	ldr	r0, .L928+8
	bl	printk
.L920:
	ldrh	r5, [r7, #4]
	add	r1, sp, #4
	ldrh	r4, [r7, #6]
	lsrs	r5, r5, #4
	add	r4, r4, r6
	mov	r2, r5
	mov	r0, r4
	bl	memcmp
	cbz	r0, .L921
	mov	r2, r5
	add	r1, sp, #4
	mov	r0, r4
	bl	memcpy
	ldrh	r2, [r7, #10]
	ldr	r3, [r6, r2]
	orr	r3, r3, #65536
	str	r3, [r6, r2]
.L921:
	movs	r0, #0
	add	sp, sp, #12
	@ sp needed
	pop	{r4, r5, r6, r7, pc}
.L929:
	.align	2
.L928:
	.word	.LANCHOR0
	.word	.LANCHOR1+1848
	.word	.LC0
	.fnend
	.size	set_prep_colorrange, .-set_prep_colorrange
	.align	1
	.global	get_prep_colorrange
	.syntax unified
	.thumb
	.thumb_func
	.fpu softvfp
	.type	get_prep_colorrange, %function
get_prep_colorrange:
	.fnstart
	@ args = 0, pretend = 0, frame = 0
	@ frame_needed = 0, uses_anonymous_args = 0
	ldr	r3, .L935
	push	{r4, r5, r6, lr}
	.save {r4, r5, r6, lr}
	mov	r6, r0
	ldr	r3, [r3]
	mov	r4, r1
	mov	r5, r2
	lsls	r3, r3, #31
	bpl	.L931
	movs	r2, #242
	ldr	r1, .L935+4
	ldr	r0, .L935+8
	bl	printk
.L931:
	ldrh	r2, [r4, #4]
	mov	r0, r5
	ldrh	r1, [r4, #6]
	lsrs	r2, r2, #4
	add	r1, r1, r6
	bl	memcpy
	movs	r0, #0
	pop	{r4, r5, r6, pc}
.L936:
	.align	2
.L935:
	.word	.LANCHOR0
	.word	.LANCHOR1+1868
	.word	.LC0
	.fnend
	.size	get_prep_colorrange, .-get_prep_colorrange
	.align	1
	.global	set_prep_range
	.syntax unified
	.thumb
	.thumb_func
	.fpu softvfp
	.type	set_prep_range, %function
set_prep_range:
	.fnstart
	@ args = 0, pretend = 0, frame = 8
	@ frame_needed = 0, uses_anonymous_args = 0
	ldr	r3, .L946
	push	{r0, r1, r2, r4, r5, r6, r7, lr}
	.save {r4, r5, r6, r7, lr}
	.pad #12
	mov	r6, r0
	ldr	r3, [r3]
	mov	r7, r1
	str	r2, [sp, #4]
	lsls	r3, r3, #31
	bpl	.L938
	movs	r2, #242
	ldr	r1, .L946+4
	ldr	r0, .L946+8
	bl	printk
.L938:
	ldrh	r5, [r7, #4]
	add	r1, sp, #4
	ldrh	r4, [r7, #6]
	lsrs	r5, r5, #4
	add	r4, r4, r6
	mov	r2, r5
	mov	r0, r4
	bl	memcmp
	cbz	r0, .L939
	mov	r2, r5
	add	r1, sp, #4
	mov	r0, r4
	bl	memcpy
	ldrh	r2, [r7, #10]
	ldr	r3, [r6, r2]
	orr	r3, r3, #65536
	str	r3, [r6, r2]
.L939:
	movs	r0, #0
	add	sp, sp, #12
	@ sp needed
	pop	{r4, r5, r6, r7, pc}
.L947:
	.align	2
.L946:
	.word	.LANCHOR0
	.word	.LANCHOR1+1888
	.word	.LC0
	.fnend
	.size	set_prep_range, .-set_prep_range
	.align	1
	.global	get_prep_range
	.syntax unified
	.thumb
	.thumb_func
	.fpu softvfp
	.type	get_prep_range, %function
get_prep_range:
	.fnstart
	@ args = 0, pretend = 0, frame = 0
	@ frame_needed = 0, uses_anonymous_args = 0
	ldr	r3, .L953
	push	{r4, r5, r6, lr}
	.save {r4, r5, r6, lr}
	mov	r6, r0
	ldr	r3, [r3]
	mov	r4, r1
	mov	r5, r2
	lsls	r3, r3, #31
	bpl	.L949
	movs	r2, #242
	ldr	r1, .L953+4
	ldr	r0, .L953+8
	bl	printk
.L949:
	ldrh	r2, [r4, #4]
	mov	r0, r5
	ldrh	r1, [r4, #6]
	lsrs	r2, r2, #4
	add	r1, r1, r6
	bl	memcpy
	movs	r0, #0
	pop	{r4, r5, r6, pc}
.L954:
	.align	2
.L953:
	.word	.LANCHOR0
	.word	.LANCHOR1+1903
	.word	.LC0
	.fnend
	.size	get_prep_range, .-get_prep_range
	.align	1
	.global	set_prep_rotation
	.syntax unified
	.thumb
	.thumb_func
	.fpu softvfp
	.type	set_prep_rotation, %function
set_prep_rotation:
	.fnstart
	@ args = 0, pretend = 0, frame = 8
	@ frame_needed = 0, uses_anonymous_args = 0
	ldr	r3, .L964
	push	{r0, r1, r2, r4, r5, r6, r7, lr}
	.save {r4, r5, r6, r7, lr}
	.pad #12
	mov	r6, r0
	ldr	r3, [r3]
	mov	r7, r1
	str	r2, [sp, #4]
	lsls	r3, r3, #31
	bpl	.L956
	movs	r2, #242
	ldr	r1, .L964+4
	ldr	r0, .L964+8
	bl	printk
.L956:
	ldrh	r5, [r7, #4]
	add	r1, sp, #4
	ldrh	r4, [r7, #6]
	lsrs	r5, r5, #4
	add	r4, r4, r6
	mov	r2, r5
	mov	r0, r4
	bl	memcmp
	cbz	r0, .L957
	mov	r2, r5
	add	r1, sp, #4
	mov	r0, r4
	bl	memcpy
	ldrh	r2, [r7, #10]
	ldr	r3, [r6, r2]
	orr	r3, r3, #16
	str	r3, [r6, r2]
.L957:
	movs	r0, #0
	add	sp, sp, #12
	@ sp needed
	pop	{r4, r5, r6, r7, pc}
.L965:
	.align	2
.L964:
	.word	.LANCHOR0
	.word	.LANCHOR1+1918
	.word	.LC0
	.fnend
	.size	set_prep_rotation, .-set_prep_rotation
	.align	1
	.global	get_prep_rotation
	.syntax unified
	.thumb
	.thumb_func
	.fpu softvfp
	.type	get_prep_rotation, %function
get_prep_rotation:
	.fnstart
	@ args = 0, pretend = 0, frame = 0
	@ frame_needed = 0, uses_anonymous_args = 0
	ldr	r3, .L971
	push	{r4, r5, r6, lr}
	.save {r4, r5, r6, lr}
	mov	r6, r0
	ldr	r3, [r3]
	mov	r4, r1
	mov	r5, r2
	lsls	r3, r3, #31
	bpl	.L967
	movs	r2, #242
	ldr	r1, .L971+4
	ldr	r0, .L971+8
	bl	printk
.L967:
	ldrh	r2, [r4, #4]
	mov	r0, r5
	ldrh	r1, [r4, #6]
	lsrs	r2, r2, #4
	add	r1, r1, r6
	bl	memcpy
	movs	r0, #0
	pop	{r4, r5, r6, pc}
.L972:
	.align	2
.L971:
	.word	.LANCHOR0
	.word	.LANCHOR1+1936
	.word	.LC0
	.fnend
	.size	get_prep_rotation, .-get_prep_rotation
	.align	1
	.global	set_prep_mirroring
	.syntax unified
	.thumb
	.thumb_func
	.fpu softvfp
	.type	set_prep_mirroring, %function
set_prep_mirroring:
	.fnstart
	@ args = 0, pretend = 0, frame = 8
	@ frame_needed = 0, uses_anonymous_args = 0
	ldr	r3, .L982
	push	{r0, r1, r2, r4, r5, r6, r7, lr}
	.save {r4, r5, r6, r7, lr}
	.pad #12
	mov	r6, r0
	ldr	r3, [r3]
	mov	r7, r1
	str	r2, [sp, #4]
	lsls	r3, r3, #31
	bpl	.L974
	movs	r2, #242
	ldr	r1, .L982+4
	ldr	r0, .L982+8
	bl	printk
.L974:
	ldrh	r5, [r7, #4]
	add	r1, sp, #4
	ldrh	r4, [r7, #6]
	lsrs	r5, r5, #4
	add	r4, r4, r6
	mov	r2, r5
	mov	r0, r4
	bl	memcmp
	cbz	r0, .L975
	mov	r2, r5
	add	r1, sp, #4
	mov	r0, r4
	bl	memcpy
	ldrh	r2, [r7, #10]
	ldr	r3, [r6, r2]
	orr	r3, r3, #32
	str	r3, [r6, r2]
.L975:
	movs	r0, #0
	add	sp, sp, #12
	@ sp needed
	pop	{r4, r5, r6, r7, pc}
.L983:
	.align	2
.L982:
	.word	.LANCHOR0
	.word	.LANCHOR1+1954
	.word	.LC0
	.fnend
	.size	set_prep_mirroring, .-set_prep_mirroring
	.align	1
	.global	get_prep_mirroring
	.syntax unified
	.thumb
	.thumb_func
	.fpu softvfp
	.type	get_prep_mirroring, %function
get_prep_mirroring:
	.fnstart
	@ args = 0, pretend = 0, frame = 0
	@ frame_needed = 0, uses_anonymous_args = 0
	ldr	r3, .L989
	push	{r4, r5, r6, lr}
	.save {r4, r5, r6, lr}
	mov	r6, r0
	ldr	r3, [r3]
	mov	r4, r1
	mov	r5, r2
	lsls	r3, r3, #31
	bpl	.L985
	movs	r2, #242
	ldr	r1, .L989+4
	ldr	r0, .L989+8
	bl	printk
.L985:
	ldrh	r2, [r4, #4]
	mov	r0, r5
	ldrh	r1, [r4, #6]
	lsrs	r2, r2, #4
	add	r1, r1, r6
	bl	memcpy
	movs	r0, #0
	pop	{r4, r5, r6, pc}
.L990:
	.align	2
.L989:
	.word	.LANCHOR0
	.word	.LANCHOR1+1973
	.word	.LC0
	.fnend
	.size	get_prep_mirroring, .-get_prep_mirroring
	.align	1
	.global	set_codec_type
	.syntax unified
	.thumb
	.thumb_func
	.fpu softvfp
	.type	set_codec_type, %function
set_codec_type:
	.fnstart
	@ args = 0, pretend = 0, frame = 8
	@ frame_needed = 0, uses_anonymous_args = 0
	ldr	r3, .L1000
	push	{r0, r1, r2, r4, r5, lr}
	.save {r4, r5, lr}
	.pad #12
	mov	r4, r0
	ldr	r3, [r3]
	mov	r5, r1
	str	r2, [sp, #4]
	lsls	r3, r3, #31
	bpl	.L992
	movs	r2, #242
	ldr	r1, .L1000+4
	ldr	r0, .L1000+8
	bl	printk
.L992:
	ldrh	r3, [r5, #6]
	add	r1, sp, #4
	ldrh	r5, [r5, #4]
	add	r4, r4, r3
	lsrs	r5, r5, #4
	mov	r0, r4
	mov	r2, r5
	bl	memcmp
	cbz	r0, .L993
	mov	r2, r5
	add	r1, sp, #4
	mov	r0, r4
	bl	memcpy
.L993:
	movs	r0, #0
	add	sp, sp, #12
	@ sp needed
	pop	{r4, r5, pc}
.L1001:
	.align	2
.L1000:
	.word	.LANCHOR0
	.word	.LANCHOR1+1992
	.word	.LC0
	.fnend
	.size	set_codec_type, .-set_codec_type
	.align	1
	.global	get_codec_type
	.syntax unified
	.thumb
	.thumb_func
	.fpu softvfp
	.type	get_codec_type, %function
get_codec_type:
	.fnstart
	@ args = 0, pretend = 0, frame = 0
	@ frame_needed = 0, uses_anonymous_args = 0
	ldr	r3, .L1007
	push	{r4, r5, r6, lr}
	.save {r4, r5, r6, lr}
	mov	r6, r0
	ldr	r3, [r3]
	mov	r4, r1
	mov	r5, r2
	lsls	r3, r3, #31
	bpl	.L1003
	movs	r2, #242
	ldr	r1, .L1007+4
	ldr	r0, .L1007+8
	bl	printk
.L1003:
	ldrh	r2, [r4, #4]
	mov	r0, r5
	ldrh	r1, [r4, #6]
	lsrs	r2, r2, #4
	add	r1, r1, r6
	bl	memcpy
	movs	r0, #0
	pop	{r4, r5, r6, pc}
.L1008:
	.align	2
.L1007:
	.word	.LANCHOR0
	.word	.LANCHOR1+2007
	.word	.LC0
	.fnend
	.size	get_codec_type, .-get_codec_type
	.align	1
	.global	set_h264_stream_type
	.syntax unified
	.thumb
	.thumb_func
	.fpu softvfp
	.type	set_h264_stream_type, %function
set_h264_stream_type:
	.fnstart
	@ args = 0, pretend = 0, frame = 8
	@ frame_needed = 0, uses_anonymous_args = 0
	ldr	r3, .L1018
	push	{r0, r1, r2, r4, r5, r6, r7, lr}
	.save {r4, r5, r6, r7, lr}
	.pad #12
	mov	r6, r0
	ldr	r3, [r3]
	mov	r7, r1
	str	r2, [sp, #4]
	lsls	r3, r3, #31
	bpl	.L1010
	movs	r2, #242
	ldr	r1, .L1018+4
	ldr	r0, .L1018+8
	bl	printk
.L1010:
	ldrh	r5, [r7, #4]
	add	r1, sp, #4
	ldrh	r4, [r7, #6]
	lsrs	r5, r5, #4
	add	r4, r4, r6
	mov	r2, r5
	mov	r0, r4
	bl	memcmp
	cbz	r0, .L1011
	mov	r2, r5
	add	r1, sp, #4
	mov	r0, r4
	bl	memcpy
	ldrh	r2, [r7, #10]
	ldr	r3, [r6, r2]
	orr	r3, r3, #1
	str	r3, [r6, r2]
.L1011:
	movs	r0, #0
	add	sp, sp, #12
	@ sp needed
	pop	{r4, r5, r6, r7, pc}
.L1019:
	.align	2
.L1018:
	.word	.LANCHOR0
	.word	.LANCHOR1+2022
	.word	.LC0
	.fnend
	.size	set_h264_stream_type, .-set_h264_stream_type
	.align	1
	.global	get_h264_stream_type
	.syntax unified
	.thumb
	.thumb_func
	.fpu softvfp
	.type	get_h264_stream_type, %function
get_h264_stream_type:
	.fnstart
	@ args = 0, pretend = 0, frame = 0
	@ frame_needed = 0, uses_anonymous_args = 0
	ldr	r3, .L1025
	push	{r4, r5, r6, lr}
	.save {r4, r5, r6, lr}
	mov	r6, r0
	ldr	r3, [r3]
	mov	r4, r1
	mov	r5, r2
	lsls	r3, r3, #31
	bpl	.L1021
	movs	r2, #242
	ldr	r1, .L1025+4
	ldr	r0, .L1025+8
	bl	printk
.L1021:
	ldrh	r2, [r4, #4]
	mov	r0, r5
	ldrh	r1, [r4, #6]
	lsrs	r2, r2, #4
	add	r1, r1, r6
	bl	memcpy
	movs	r0, #0
	pop	{r4, r5, r6, pc}
.L1026:
	.align	2
.L1025:
	.word	.LANCHOR0
	.word	.LANCHOR1+2043
	.word	.LC0
	.fnend
	.size	get_h264_stream_type, .-get_h264_stream_type
	.align	1
	.global	set_h264_profile
	.syntax unified
	.thumb
	.thumb_func
	.fpu softvfp
	.type	set_h264_profile, %function
set_h264_profile:
	.fnstart
	@ args = 0, pretend = 0, frame = 8
	@ frame_needed = 0, uses_anonymous_args = 0
	ldr	r3, .L1036
	push	{r0, r1, r2, r4, r5, r6, r7, lr}
	.save {r4, r5, r6, r7, lr}
	.pad #12
	mov	r6, r0
	ldr	r3, [r3]
	mov	r7, r1
	str	r2, [sp, #4]
	lsls	r3, r3, #31
	bpl	.L1028
	movs	r2, #242
	ldr	r1, .L1036+4
	ldr	r0, .L1036+8
	bl	printk
.L1028:
	ldrh	r5, [r7, #4]
	add	r1, sp, #4
	ldrh	r4, [r7, #6]
	lsrs	r5, r5, #4
	add	r4, r4, r6
	mov	r2, r5
	mov	r0, r4
	bl	memcmp
	cbz	r0, .L1029
	mov	r2, r5
	add	r1, sp, #4
	mov	r0, r4
	bl	memcpy
	ldrh	r2, [r7, #10]
	ldr	r3, [r6, r2]
	orr	r3, r3, #2
	str	r3, [r6, r2]
.L1029:
	movs	r0, #0
	add	sp, sp, #12
	@ sp needed
	pop	{r4, r5, r6, r7, pc}
.L1037:
	.align	2
.L1036:
	.word	.LANCHOR0
	.word	.LANCHOR1+2064
	.word	.LC0
	.fnend
	.size	set_h264_profile, .-set_h264_profile
	.align	1
	.global	get_h264_profile
	.syntax unified
	.thumb
	.thumb_func
	.fpu softvfp
	.type	get_h264_profile, %function
get_h264_profile:
	.fnstart
	@ args = 0, pretend = 0, frame = 0
	@ frame_needed = 0, uses_anonymous_args = 0
	ldr	r3, .L1043
	push	{r4, r5, r6, lr}
	.save {r4, r5, r6, lr}
	mov	r6, r0
	ldr	r3, [r3]
	mov	r4, r1
	mov	r5, r2
	lsls	r3, r3, #31
	bpl	.L1039
	movs	r2, #242
	ldr	r1, .L1043+4
	ldr	r0, .L1043+8
	bl	printk
.L1039:
	ldrh	r2, [r4, #4]
	mov	r0, r5
	ldrh	r1, [r4, #6]
	lsrs	r2, r2, #4
	add	r1, r1, r6
	bl	memcpy
	movs	r0, #0
	pop	{r4, r5, r6, pc}
.L1044:
	.align	2
.L1043:
	.word	.LANCHOR0
	.word	.LANCHOR1+2081
	.word	.LC0
	.fnend
	.size	get_h264_profile, .-get_h264_profile
	.align	1
	.global	set_h264_level
	.syntax unified
	.thumb
	.thumb_func
	.fpu softvfp
	.type	set_h264_level, %function
set_h264_level:
	.fnstart
	@ args = 0, pretend = 0, frame = 8
	@ frame_needed = 0, uses_anonymous_args = 0
	ldr	r3, .L1054
	push	{r0, r1, r2, r4, r5, r6, r7, lr}
	.save {r4, r5, r6, r7, lr}
	.pad #12
	mov	r6, r0
	ldr	r3, [r3]
	mov	r7, r1
	str	r2, [sp, #4]
	lsls	r3, r3, #31
	bpl	.L1046
	movs	r2, #242
	ldr	r1, .L1054+4
	ldr	r0, .L1054+8
	bl	printk
.L1046:
	ldrh	r5, [r7, #4]
	add	r1, sp, #4
	ldrh	r4, [r7, #6]
	lsrs	r5, r5, #4
	add	r4, r4, r6
	mov	r2, r5
	mov	r0, r4
	bl	memcmp
	cbz	r0, .L1047
	mov	r2, r5
	add	r1, sp, #4
	mov	r0, r4
	bl	memcpy
	ldrh	r2, [r7, #10]
	ldr	r3, [r6, r2]
	orr	r3, r3, #2
	str	r3, [r6, r2]
.L1047:
	movs	r0, #0
	add	sp, sp, #12
	@ sp needed
	pop	{r4, r5, r6, r7, pc}
.L1055:
	.align	2
.L1054:
	.word	.LANCHOR0
	.word	.LANCHOR1+2098
	.word	.LC0
	.fnend
	.size	set_h264_level, .-set_h264_level
	.align	1
	.global	get_h264_level
	.syntax unified
	.thumb
	.thumb_func
	.fpu softvfp
	.type	get_h264_level, %function
get_h264_level:
	.fnstart
	@ args = 0, pretend = 0, frame = 0
	@ frame_needed = 0, uses_anonymous_args = 0
	ldr	r3, .L1061
	push	{r4, r5, r6, lr}
	.save {r4, r5, r6, lr}
	mov	r6, r0
	ldr	r3, [r3]
	mov	r4, r1
	mov	r5, r2
	lsls	r3, r3, #31
	bpl	.L1057
	movs	r2, #242
	ldr	r1, .L1061+4
	ldr	r0, .L1061+8
	bl	printk
.L1057:
	ldrh	r2, [r4, #4]
	mov	r0, r5
	ldrh	r1, [r4, #6]
	lsrs	r2, r2, #4
	add	r1, r1, r6
	bl	memcpy
	movs	r0, #0
	pop	{r4, r5, r6, pc}
.L1062:
	.align	2
.L1061:
	.word	.LANCHOR0
	.word	.LANCHOR1+2113
	.word	.LC0
	.fnend
	.size	get_h264_level, .-get_h264_level
	.align	1
	.global	set_h264_poc_type
	.syntax unified
	.thumb
	.thumb_func
	.fpu softvfp
	.type	set_h264_poc_type, %function
set_h264_poc_type:
	.fnstart
	@ args = 0, pretend = 0, frame = 8
	@ frame_needed = 0, uses_anonymous_args = 0
	ldr	r3, .L1072
	push	{r0, r1, r2, r4, r5, r6, r7, lr}
	.save {r4, r5, r6, r7, lr}
	.pad #12
	mov	r6, r0
	ldr	r3, [r3]
	mov	r7, r1
	str	r2, [sp, #4]
	lsls	r3, r3, #31
	bpl	.L1064
	movs	r2, #242
	ldr	r1, .L1072+4
	ldr	r0, .L1072+8
	bl	printk
.L1064:
	ldrh	r5, [r7, #4]
	add	r1, sp, #4
	ldrh	r4, [r7, #6]
	lsrs	r5, r5, #4
	add	r4, r4, r6
	mov	r2, r5
	mov	r0, r4
	bl	memcmp
	cbz	r0, .L1065
	mov	r2, r5
	add	r1, sp, #4
	mov	r0, r4
	bl	memcpy
	ldrh	r2, [r7, #10]
	ldr	r3, [r6, r2]
	orr	r3, r3, #1024
	str	r3, [r6, r2]
.L1065:
	movs	r0, #0
	add	sp, sp, #12
	@ sp needed
	pop	{r4, r5, r6, r7, pc}
.L1073:
	.align	2
.L1072:
	.word	.LANCHOR0
	.word	.LANCHOR1+2128
	.word	.LC0
	.fnend
	.size	set_h264_poc_type, .-set_h264_poc_type
	.align	1
	.global	get_h264_poc_type
	.syntax unified
	.thumb
	.thumb_func
	.fpu softvfp
	.type	get_h264_poc_type, %function
get_h264_poc_type:
	.fnstart
	@ args = 0, pretend = 0, frame = 0
	@ frame_needed = 0, uses_anonymous_args = 0
	ldr	r3, .L1079
	push	{r4, r5, r6, lr}
	.save {r4, r5, r6, lr}
	mov	r6, r0
	ldr	r3, [r3]
	mov	r4, r1
	mov	r5, r2
	lsls	r3, r3, #31
	bpl	.L1075
	movs	r2, #242
	ldr	r1, .L1079+4
	ldr	r0, .L1079+8
	bl	printk
.L1075:
	ldrh	r2, [r4, #4]
	mov	r0, r5
	ldrh	r1, [r4, #6]
	lsrs	r2, r2, #4
	add	r1, r1, r6
	bl	memcpy
	movs	r0, #0
	pop	{r4, r5, r6, pc}
.L1080:
	.align	2
.L1079:
	.word	.LANCHOR0
	.word	.LANCHOR1+2146
	.word	.LC0
	.fnend
	.size	get_h264_poc_type, .-get_h264_poc_type
	.align	1
	.global	set_h264_log2_max_poc_lsb
	.syntax unified
	.thumb
	.thumb_func
	.fpu softvfp
	.type	set_h264_log2_max_poc_lsb, %function
set_h264_log2_max_poc_lsb:
	.fnstart
	@ args = 0, pretend = 0, frame = 8
	@ frame_needed = 0, uses_anonymous_args = 0
	ldr	r3, .L1090
	push	{r0, r1, r2, r4, r5, r6, r7, lr}
	.save {r4, r5, r6, r7, lr}
	.pad #12
	mov	r6, r0
	ldr	r3, [r3]
	mov	r7, r1
	str	r2, [sp, #4]
	lsls	r3, r3, #31
	bpl	.L1082
	movs	r2, #242
	ldr	r1, .L1090+4
	ldr	r0, .L1090+8
	bl	printk
.L1082:
	ldrh	r5, [r7, #4]
	add	r1, sp, #4
	ldrh	r4, [r7, #6]
	lsrs	r5, r5, #4
	add	r4, r4, r6
	mov	r2, r5
	mov	r0, r4
	bl	memcmp
	cbz	r0, .L1083
	mov	r2, r5
	add	r1, sp, #4
	mov	r0, r4
	bl	memcpy
	ldrh	r2, [r7, #10]
	ldr	r3, [r6, r2]
	orr	r3, r3, #2048
	str	r3, [r6, r2]
.L1083:
	movs	r0, #0
	add	sp, sp, #12
	@ sp needed
	pop	{r4, r5, r6, r7, pc}
.L1091:
	.align	2
.L1090:
	.word	.LANCHOR0
	.word	.LANCHOR1+2164
	.word	.LC0
	.fnend
	.size	set_h264_log2_max_poc_lsb, .-set_h264_log2_max_poc_lsb
	.align	1
	.global	get_h264_log2_max_poc_lsb
	.syntax unified
	.thumb
	.thumb_func
	.fpu softvfp
	.type	get_h264_log2_max_poc_lsb, %function
get_h264_log2_max_poc_lsb:
	.fnstart
	@ args = 0, pretend = 0, frame = 0
	@ frame_needed = 0, uses_anonymous_args = 0
	ldr	r3, .L1097
	push	{r4, r5, r6, lr}
	.save {r4, r5, r6, lr}
	mov	r6, r0
	ldr	r3, [r3]
	mov	r4, r1
	mov	r5, r2
	lsls	r3, r3, #31
	bpl	.L1093
	movs	r2, #242
	ldr	r1, .L1097+4
	ldr	r0, .L1097+8
	bl	printk
.L1093:
	ldrh	r2, [r4, #4]
	mov	r0, r5
	ldrh	r1, [r4, #6]
	lsrs	r2, r2, #4
	add	r1, r1, r6
	bl	memcpy
	movs	r0, #0
	pop	{r4, r5, r6, pc}
.L1098:
	.align	2
.L1097:
	.word	.LANCHOR0
	.word	.LANCHOR1+2190
	.word	.LC0
	.fnend
	.size	get_h264_log2_max_poc_lsb, .-get_h264_log2_max_poc_lsb
	.align	1
	.global	set_h264_log2_max_frm_num
	.syntax unified
	.thumb
	.thumb_func
	.fpu softvfp
	.type	set_h264_log2_max_frm_num, %function
set_h264_log2_max_frm_num:
	.fnstart
	@ args = 0, pretend = 0, frame = 8
	@ frame_needed = 0, uses_anonymous_args = 0
	ldr	r3, .L1108
	push	{r0, r1, r2, r4, r5, r6, r7, lr}
	.save {r4, r5, r6, r7, lr}
	.pad #12
	mov	r6, r0
	ldr	r3, [r3]
	mov	r7, r1
	str	r2, [sp, #4]
	lsls	r3, r3, #31
	bpl	.L1100
	movs	r2, #242
	ldr	r1, .L1108+4
	ldr	r0, .L1108+8
	bl	printk
.L1100:
	ldrh	r5, [r7, #4]
	add	r1, sp, #4
	ldrh	r4, [r7, #6]
	lsrs	r5, r5, #4
	add	r4, r4, r6
	mov	r2, r5
	mov	r0, r4
	bl	memcmp
	cbz	r0, .L1101
	mov	r2, r5
	add	r1, sp, #4
	mov	r0, r4
	bl	memcpy
	ldrh	r2, [r7, #10]
	ldr	r3, [r6, r2]
	orr	r3, r3, #4096
	str	r3, [r6, r2]
.L1101:
	movs	r0, #0
	add	sp, sp, #12
	@ sp needed
	pop	{r4, r5, r6, r7, pc}
.L1109:
	.align	2
.L1108:
	.word	.LANCHOR0
	.word	.LANCHOR1+2216
	.word	.LC0
	.fnend
	.size	set_h264_log2_max_frm_num, .-set_h264_log2_max_frm_num
	.align	1
	.global	get_h264_log2_max_frm_num
	.syntax unified
	.thumb
	.thumb_func
	.fpu softvfp
	.type	get_h264_log2_max_frm_num, %function
get_h264_log2_max_frm_num:
	.fnstart
	@ args = 0, pretend = 0, frame = 0
	@ frame_needed = 0, uses_anonymous_args = 0
	ldr	r3, .L1115
	push	{r4, r5, r6, lr}
	.save {r4, r5, r6, lr}
	mov	r6, r0
	ldr	r3, [r3]
	mov	r4, r1
	mov	r5, r2
	lsls	r3, r3, #31
	bpl	.L1111
	movs	r2, #242
	ldr	r1, .L1115+4
	ldr	r0, .L1115+8
	bl	printk
.L1111:
	ldrh	r2, [r4, #4]
	mov	r0, r5
	ldrh	r1, [r4, #6]
	lsrs	r2, r2, #4
	add	r1, r1, r6
	bl	memcpy
	movs	r0, #0
	pop	{r4, r5, r6, pc}
.L1116:
	.align	2
.L1115:
	.word	.LANCHOR0
	.word	.LANCHOR1+2242
	.word	.LC0
	.fnend
	.size	get_h264_log2_max_frm_num, .-get_h264_log2_max_frm_num
	.align	1
	.global	set_h264_gaps_not_allowed
	.syntax unified
	.thumb
	.thumb_func
	.fpu softvfp
	.type	set_h264_gaps_not_allowed, %function
set_h264_gaps_not_allowed:
	.fnstart
	@ args = 0, pretend = 0, frame = 8
	@ frame_needed = 0, uses_anonymous_args = 0
	ldr	r3, .L1126
	push	{r0, r1, r2, r4, r5, r6, r7, lr}
	.save {r4, r5, r6, r7, lr}
	.pad #12
	mov	r6, r0
	ldr	r3, [r3]
	mov	r7, r1
	str	r2, [sp, #4]
	lsls	r3, r3, #31
	bpl	.L1118
	movs	r2, #242
	ldr	r1, .L1126+4
	ldr	r0, .L1126+8
	bl	printk
.L1118:
	ldrh	r5, [r7, #4]
	add	r1, sp, #4
	ldrh	r4, [r7, #6]
	lsrs	r5, r5, #4
	add	r4, r4, r6
	mov	r2, r5
	mov	r0, r4
	bl	memcmp
	cbz	r0, .L1119
	mov	r2, r5
	add	r1, sp, #4
	mov	r0, r4
	bl	memcpy
	ldrh	r2, [r7, #10]
	ldr	r3, [r6, r2]
	orr	r3, r3, #8192
	str	r3, [r6, r2]
.L1119:
	movs	r0, #0
	add	sp, sp, #12
	@ sp needed
	pop	{r4, r5, r6, r7, pc}
.L1127:
	.align	2
.L1126:
	.word	.LANCHOR0
	.word	.LANCHOR1+2268
	.word	.LC0
	.fnend
	.size	set_h264_gaps_not_allowed, .-set_h264_gaps_not_allowed
	.align	1
	.global	get_h264_gaps_not_allowed
	.syntax unified
	.thumb
	.thumb_func
	.fpu softvfp
	.type	get_h264_gaps_not_allowed, %function
get_h264_gaps_not_allowed:
	.fnstart
	@ args = 0, pretend = 0, frame = 0
	@ frame_needed = 0, uses_anonymous_args = 0
	ldr	r3, .L1133
	push	{r4, r5, r6, lr}
	.save {r4, r5, r6, lr}
	mov	r6, r0
	ldr	r3, [r3]
	mov	r4, r1
	mov	r5, r2
	lsls	r3, r3, #31
	bpl	.L1129
	movs	r2, #242
	ldr	r1, .L1133+4
	ldr	r0, .L1133+8
	bl	printk
.L1129:
	ldrh	r2, [r4, #4]
	mov	r0, r5
	ldrh	r1, [r4, #6]
	lsrs	r2, r2, #4
	add	r1, r1, r6
	bl	memcpy
	movs	r0, #0
	pop	{r4, r5, r6, pc}
.L1134:
	.align	2
.L1133:
	.word	.LANCHOR0
	.word	.LANCHOR1+2294
	.word	.LC0
	.fnend
	.size	get_h264_gaps_not_allowed, .-get_h264_gaps_not_allowed
	.align	1
	.global	set_h264_cabac_en
	.syntax unified
	.thumb
	.thumb_func
	.fpu softvfp
	.type	set_h264_cabac_en, %function
set_h264_cabac_en:
	.fnstart
	@ args = 0, pretend = 0, frame = 8
	@ frame_needed = 0, uses_anonymous_args = 0
	ldr	r3, .L1144
	push	{r0, r1, r2, r4, r5, r6, r7, lr}
	.save {r4, r5, r6, r7, lr}
	.pad #12
	mov	r6, r0
	ldr	r3, [r3]
	mov	r7, r1
	str	r2, [sp, #4]
	lsls	r3, r3, #31
	bpl	.L1136
	movs	r2, #242
	ldr	r1, .L1144+4
	ldr	r0, .L1144+8
	bl	printk
.L1136:
	ldrh	r5, [r7, #4]
	add	r1, sp, #4
	ldrh	r4, [r7, #6]
	lsrs	r5, r5, #4
	add	r4, r4, r6
	mov	r2, r5
	mov	r0, r4
	bl	memcmp
	cbz	r0, .L1137
	mov	r2, r5
	add	r1, sp, #4
	mov	r0, r4
	bl	memcpy
	ldrh	r2, [r7, #10]
	ldr	r3, [r6, r2]
	orr	r3, r3, #4
	str	r3, [r6, r2]
.L1137:
	movs	r0, #0
	add	sp, sp, #12
	@ sp needed
	pop	{r4, r5, r6, r7, pc}
.L1145:
	.align	2
.L1144:
	.word	.LANCHOR0
	.word	.LANCHOR1+2320
	.word	.LC0
	.fnend
	.size	set_h264_cabac_en, .-set_h264_cabac_en
	.align	1
	.global	get_h264_cabac_en
	.syntax unified
	.thumb
	.thumb_func
	.fpu softvfp
	.type	get_h264_cabac_en, %function
get_h264_cabac_en:
	.fnstart
	@ args = 0, pretend = 0, frame = 0
	@ frame_needed = 0, uses_anonymous_args = 0
	ldr	r3, .L1151
	push	{r4, r5, r6, lr}
	.save {r4, r5, r6, lr}
	mov	r6, r0
	ldr	r3, [r3]
	mov	r4, r1
	mov	r5, r2
	lsls	r3, r3, #31
	bpl	.L1147
	movs	r2, #242
	ldr	r1, .L1151+4
	ldr	r0, .L1151+8
	bl	printk
.L1147:
	ldrh	r2, [r4, #4]
	mov	r0, r5
	ldrh	r1, [r4, #6]
	lsrs	r2, r2, #4
	add	r1, r1, r6
	bl	memcpy
	movs	r0, #0
	pop	{r4, r5, r6, pc}
.L1152:
	.align	2
.L1151:
	.word	.LANCHOR0
	.word	.LANCHOR1+2338
	.word	.LC0
	.fnend
	.size	get_h264_cabac_en, .-get_h264_cabac_en
	.align	1
	.global	set_h264_cabac_idc
	.syntax unified
	.thumb
	.thumb_func
	.fpu softvfp
	.type	set_h264_cabac_idc, %function
set_h264_cabac_idc:
	.fnstart
	@ args = 0, pretend = 0, frame = 8
	@ frame_needed = 0, uses_anonymous_args = 0
	ldr	r3, .L1162
	push	{r0, r1, r2, r4, r5, r6, r7, lr}
	.save {r4, r5, r6, r7, lr}
	.pad #12
	mov	r6, r0
	ldr	r3, [r3]
	mov	r7, r1
	str	r2, [sp, #4]
	lsls	r3, r3, #31
	bpl	.L1154
	movs	r2, #242
	ldr	r1, .L1162+4
	ldr	r0, .L1162+8
	bl	printk
.L1154:
	ldrh	r5, [r7, #4]
	add	r1, sp, #4
	ldrh	r4, [r7, #6]
	lsrs	r5, r5, #4
	add	r4, r4, r6
	mov	r2, r5
	mov	r0, r4
	bl	memcmp
	cbz	r0, .L1155
	mov	r2, r5
	add	r1, sp, #4
	mov	r0, r4
	bl	memcpy
	ldrh	r2, [r7, #10]
	ldr	r3, [r6, r2]
	orr	r3, r3, #4
	str	r3, [r6, r2]
.L1155:
	movs	r0, #0
	add	sp, sp, #12
	@ sp needed
	pop	{r4, r5, r6, r7, pc}
.L1163:
	.align	2
.L1162:
	.word	.LANCHOR0
	.word	.LANCHOR1+2356
	.word	.LC0
	.fnend
	.size	set_h264_cabac_idc, .-set_h264_cabac_idc
	.align	1
	.global	get_h264_cabac_idc
	.syntax unified
	.thumb
	.thumb_func
	.fpu softvfp
	.type	get_h264_cabac_idc, %function
get_h264_cabac_idc:
	.fnstart
	@ args = 0, pretend = 0, frame = 0
	@ frame_needed = 0, uses_anonymous_args = 0
	ldr	r3, .L1169
	push	{r4, r5, r6, lr}
	.save {r4, r5, r6, lr}
	mov	r6, r0
	ldr	r3, [r3]
	mov	r4, r1
	mov	r5, r2
	lsls	r3, r3, #31
	bpl	.L1165
	movs	r2, #242
	ldr	r1, .L1169+4
	ldr	r0, .L1169+8
	bl	printk
.L1165:
	ldrh	r2, [r4, #4]
	mov	r0, r5
	ldrh	r1, [r4, #6]
	lsrs	r2, r2, #4
	add	r1, r1, r6
	bl	memcpy
	movs	r0, #0
	pop	{r4, r5, r6, pc}
.L1170:
	.align	2
.L1169:
	.word	.LANCHOR0
	.word	.LANCHOR1+2375
	.word	.LC0
	.fnend
	.size	get_h264_cabac_idc, .-get_h264_cabac_idc
	.align	1
	.global	set_h264_trans8x8
	.syntax unified
	.thumb
	.thumb_func
	.fpu softvfp
	.type	set_h264_trans8x8, %function
set_h264_trans8x8:
	.fnstart
	@ args = 0, pretend = 0, frame = 8
	@ frame_needed = 0, uses_anonymous_args = 0
	ldr	r3, .L1180
	push	{r0, r1, r2, r4, r5, r6, r7, lr}
	.save {r4, r5, r6, r7, lr}
	.pad #12
	mov	r6, r0
	ldr	r3, [r3]
	mov	r7, r1
	str	r2, [sp, #4]
	lsls	r3, r3, #31
	bpl	.L1172
	movs	r2, #242
	ldr	r1, .L1180+4
	ldr	r0, .L1180+8
	bl	printk
.L1172:
	ldrh	r5, [r7, #4]
	add	r1, sp, #4
	ldrh	r4, [r7, #6]
	lsrs	r5, r5, #4
	add	r4, r4, r6
	mov	r2, r5
	mov	r0, r4
	bl	memcmp
	cbz	r0, .L1173
	mov	r2, r5
	add	r1, sp, #4
	mov	r0, r4
	bl	memcpy
	ldrh	r2, [r7, #10]
	ldr	r3, [r6, r2]
	orr	r3, r3, #16
	str	r3, [r6, r2]
.L1173:
	movs	r0, #0
	add	sp, sp, #12
	@ sp needed
	pop	{r4, r5, r6, r7, pc}
.L1181:
	.align	2
.L1180:
	.word	.LANCHOR0
	.word	.LANCHOR1+2394
	.word	.LC0
	.fnend
	.size	set_h264_trans8x8, .-set_h264_trans8x8
	.align	1
	.global	get_h264_trans8x8
	.syntax unified
	.thumb
	.thumb_func
	.fpu softvfp
	.type	get_h264_trans8x8, %function
get_h264_trans8x8:
	.fnstart
	@ args = 0, pretend = 0, frame = 0
	@ frame_needed = 0, uses_anonymous_args = 0
	ldr	r3, .L1187
	push	{r4, r5, r6, lr}
	.save {r4, r5, r6, lr}
	mov	r6, r0
	ldr	r3, [r3]
	mov	r4, r1
	mov	r5, r2
	lsls	r3, r3, #31
	bpl	.L1183
	movs	r2, #242
	ldr	r1, .L1187+4
	ldr	r0, .L1187+8
	bl	printk
.L1183:
	ldrh	r2, [r4, #4]
	mov	r0, r5
	ldrh	r1, [r4, #6]
	lsrs	r2, r2, #4
	add	r1, r1, r6
	bl	memcpy
	movs	r0, #0
	pop	{r4, r5, r6, pc}
.L1188:
	.align	2
.L1187:
	.word	.LANCHOR0
	.word	.LANCHOR1+2412
	.word	.LC0
	.fnend
	.size	get_h264_trans8x8, .-get_h264_trans8x8
	.align	1
	.global	set_h264_const_intra
	.syntax unified
	.thumb
	.thumb_func
	.fpu softvfp
	.type	set_h264_const_intra, %function
set_h264_const_intra:
	.fnstart
	@ args = 0, pretend = 0, frame = 8
	@ frame_needed = 0, uses_anonymous_args = 0
	ldr	r3, .L1198
	push	{r0, r1, r2, r4, r5, r6, r7, lr}
	.save {r4, r5, r6, r7, lr}
	.pad #12
	mov	r6, r0
	ldr	r3, [r3]
	mov	r7, r1
	str	r2, [sp, #4]
	lsls	r3, r3, #31
	bpl	.L1190
	movs	r2, #242
	ldr	r1, .L1198+4
	ldr	r0, .L1198+8
	bl	printk
.L1190:
	ldrh	r5, [r7, #4]
	add	r1, sp, #4
	ldrh	r4, [r7, #6]
	lsrs	r5, r5, #4
	add	r4, r4, r6
	mov	r2, r5
	mov	r0, r4
	bl	memcmp
	cbz	r0, .L1191
	mov	r2, r5
	add	r1, sp, #4
	mov	r0, r4
	bl	memcpy
	ldrh	r2, [r7, #10]
	ldr	r3, [r6, r2]
	orr	r3, r3, #32
	str	r3, [r6, r2]
.L1191:
	movs	r0, #0
	add	sp, sp, #12
	@ sp needed
	pop	{r4, r5, r6, r7, pc}
.L1199:
	.align	2
.L1198:
	.word	.LANCHOR0
	.word	.LANCHOR1+2430
	.word	.LC0
	.fnend
	.size	set_h264_const_intra, .-set_h264_const_intra
	.align	1
	.global	get_h264_const_intra
	.syntax unified
	.thumb
	.thumb_func
	.fpu softvfp
	.type	get_h264_const_intra, %function
get_h264_const_intra:
	.fnstart
	@ args = 0, pretend = 0, frame = 0
	@ frame_needed = 0, uses_anonymous_args = 0
	ldr	r3, .L1205
	push	{r4, r5, r6, lr}
	.save {r4, r5, r6, lr}
	mov	r6, r0
	ldr	r3, [r3]
	mov	r4, r1
	mov	r5, r2
	lsls	r3, r3, #31
	bpl	.L1201
	movs	r2, #242
	ldr	r1, .L1205+4
	ldr	r0, .L1205+8
	bl	printk
.L1201:
	ldrh	r2, [r4, #4]
	mov	r0, r5
	ldrh	r1, [r4, #6]
	lsrs	r2, r2, #4
	add	r1, r1, r6
	bl	memcpy
	movs	r0, #0
	pop	{r4, r5, r6, pc}
.L1206:
	.align	2
.L1205:
	.word	.LANCHOR0
	.word	.LANCHOR1+2451
	.word	.LC0
	.fnend
	.size	get_h264_const_intra, .-get_h264_const_intra
	.align	1
	.global	set_h264_scaling_list
	.syntax unified
	.thumb
	.thumb_func
	.fpu softvfp
	.type	set_h264_scaling_list, %function
set_h264_scaling_list:
	.fnstart
	@ args = 0, pretend = 0, frame = 8
	@ frame_needed = 0, uses_anonymous_args = 0
	ldr	r3, .L1216
	push	{r0, r1, r2, r4, r5, r6, r7, lr}
	.save {r4, r5, r6, r7, lr}
	.pad #12
	mov	r6, r0
	ldr	r3, [r3]
	mov	r7, r1
	str	r2, [sp, #4]
	lsls	r3, r3, #31
	bpl	.L1208
	movs	r2, #242
	ldr	r1, .L1216+4
	ldr	r0, .L1216+8
	bl	printk
.L1208:
	ldrh	r5, [r7, #4]
	add	r1, sp, #4
	ldrh	r4, [r7, #6]
	lsrs	r5, r5, #4
	add	r4, r4, r6
	mov	r2, r5
	mov	r0, r4
	bl	memcmp
	cbz	r0, .L1209
	mov	r2, r5
	add	r1, sp, #4
	mov	r0, r4
	bl	memcpy
	ldrh	r2, [r7, #10]
	ldr	r3, [r6, r2]
	orr	r3, r3, #512
	str	r3, [r6, r2]
.L1209:
	movs	r0, #0
	add	sp, sp, #12
	@ sp needed
	pop	{r4, r5, r6, r7, pc}
.L1217:
	.align	2
.L1216:
	.word	.LANCHOR0
	.word	.LANCHOR1+2472
	.word	.LC0
	.fnend
	.size	set_h264_scaling_list, .-set_h264_scaling_list
	.align	1
	.global	get_h264_scaling_list
	.syntax unified
	.thumb
	.thumb_func
	.fpu softvfp
	.type	get_h264_scaling_list, %function
get_h264_scaling_list:
	.fnstart
	@ args = 0, pretend = 0, frame = 0
	@ frame_needed = 0, uses_anonymous_args = 0
	ldr	r3, .L1223
	push	{r4, r5, r6, lr}
	.save {r4, r5, r6, lr}
	mov	r6, r0
	ldr	r3, [r3]
	mov	r4, r1
	mov	r5, r2
	lsls	r3, r3, #31
	bpl	.L1219
	movs	r2, #242
	ldr	r1, .L1223+4
	ldr	r0, .L1223+8
	bl	printk
.L1219:
	ldrh	r2, [r4, #4]
	mov	r0, r5
	ldrh	r1, [r4, #6]
	lsrs	r2, r2, #4
	add	r1, r1, r6
	bl	memcpy
	movs	r0, #0
	pop	{r4, r5, r6, pc}
.L1224:
	.align	2
.L1223:
	.word	.LANCHOR0
	.word	.LANCHOR1+2494
	.word	.LC0
	.fnend
	.size	get_h264_scaling_list, .-get_h264_scaling_list
	.align	1
	.global	set_h264_cb_qp_offset
	.syntax unified
	.thumb
	.thumb_func
	.fpu softvfp
	.type	set_h264_cb_qp_offset, %function
set_h264_cb_qp_offset:
	.fnstart
	@ args = 0, pretend = 0, frame = 8
	@ frame_needed = 0, uses_anonymous_args = 0
	ldr	r3, .L1234
	push	{r0, r1, r2, r4, r5, r6, r7, lr}
	.save {r4, r5, r6, r7, lr}
	.pad #12
	mov	r6, r0
	ldr	r3, [r3]
	mov	r7, r1
	str	r2, [sp, #4]
	lsls	r3, r3, #31
	bpl	.L1226
	movs	r2, #242
	ldr	r1, .L1234+4
	ldr	r0, .L1234+8
	bl	printk
.L1226:
	ldrh	r5, [r7, #4]
	add	r1, sp, #4
	ldrh	r4, [r7, #6]
	lsrs	r5, r5, #4
	add	r4, r4, r6
	mov	r2, r5
	mov	r0, r4
	bl	memcmp
	cbz	r0, .L1227
	mov	r2, r5
	add	r1, sp, #4
	mov	r0, r4
	bl	memcpy
	ldrh	r2, [r7, #10]
	ldr	r3, [r6, r2]
	orr	r3, r3, #64
	str	r3, [r6, r2]
.L1227:
	movs	r0, #0
	add	sp, sp, #12
	@ sp needed
	pop	{r4, r5, r6, r7, pc}
.L1235:
	.align	2
.L1234:
	.word	.LANCHOR0
	.word	.LANCHOR1+2516
	.word	.LC0
	.fnend
	.size	set_h264_cb_qp_offset, .-set_h264_cb_qp_offset
	.align	1
	.global	get_h264_cb_qp_offset
	.syntax unified
	.thumb
	.thumb_func
	.fpu softvfp
	.type	get_h264_cb_qp_offset, %function
get_h264_cb_qp_offset:
	.fnstart
	@ args = 0, pretend = 0, frame = 0
	@ frame_needed = 0, uses_anonymous_args = 0
	ldr	r3, .L1241
	push	{r4, r5, r6, lr}
	.save {r4, r5, r6, lr}
	mov	r6, r0
	ldr	r3, [r3]
	mov	r4, r1
	mov	r5, r2
	lsls	r3, r3, #31
	bpl	.L1237
	movs	r2, #242
	ldr	r1, .L1241+4
	ldr	r0, .L1241+8
	bl	printk
.L1237:
	ldrh	r2, [r4, #4]
	mov	r0, r5
	ldrh	r1, [r4, #6]
	lsrs	r2, r2, #4
	add	r1, r1, r6
	bl	memcpy
	movs	r0, #0
	pop	{r4, r5, r6, pc}
.L1242:
	.align	2
.L1241:
	.word	.LANCHOR0
	.word	.LANCHOR1+2538
	.word	.LC0
	.fnend
	.size	get_h264_cb_qp_offset, .-get_h264_cb_qp_offset
	.align	1
	.global	set_h264_cr_qp_offset
	.syntax unified
	.thumb
	.thumb_func
	.fpu softvfp
	.type	set_h264_cr_qp_offset, %function
set_h264_cr_qp_offset:
	.fnstart
	@ args = 0, pretend = 0, frame = 8
	@ frame_needed = 0, uses_anonymous_args = 0
	ldr	r3, .L1252
	push	{r0, r1, r2, r4, r5, r6, r7, lr}
	.save {r4, r5, r6, r7, lr}
	.pad #12
	mov	r6, r0
	ldr	r3, [r3]
	mov	r7, r1
	str	r2, [sp, #4]
	lsls	r3, r3, #31
	bpl	.L1244
	movs	r2, #242
	ldr	r1, .L1252+4
	ldr	r0, .L1252+8
	bl	printk
.L1244:
	ldrh	r5, [r7, #4]
	add	r1, sp, #4
	ldrh	r4, [r7, #6]
	lsrs	r5, r5, #4
	add	r4, r4, r6
	mov	r2, r5
	mov	r0, r4
	bl	memcmp
	cbz	r0, .L1245
	mov	r2, r5
	add	r1, sp, #4
	mov	r0, r4
	bl	memcpy
	ldrh	r2, [r7, #10]
	ldr	r3, [r6, r2]
	orr	r3, r3, #64
	str	r3, [r6, r2]
.L1245:
	movs	r0, #0
	add	sp, sp, #12
	@ sp needed
	pop	{r4, r5, r6, r7, pc}
.L1253:
	.align	2
.L1252:
	.word	.LANCHOR0
	.word	.LANCHOR1+2560
	.word	.LC0
	.fnend
	.size	set_h264_cr_qp_offset, .-set_h264_cr_qp_offset
	.align	1
	.global	get_h264_cr_qp_offset
	.syntax unified
	.thumb
	.thumb_func
	.fpu softvfp
	.type	get_h264_cr_qp_offset, %function
get_h264_cr_qp_offset:
	.fnstart
	@ args = 0, pretend = 0, frame = 0
	@ frame_needed = 0, uses_anonymous_args = 0
	ldr	r3, .L1259
	push	{r4, r5, r6, lr}
	.save {r4, r5, r6, lr}
	mov	r6, r0
	ldr	r3, [r3]
	mov	r4, r1
	mov	r5, r2
	lsls	r3, r3, #31
	bpl	.L1255
	movs	r2, #242
	ldr	r1, .L1259+4
	ldr	r0, .L1259+8
	bl	printk
.L1255:
	ldrh	r2, [r4, #4]
	mov	r0, r5
	ldrh	r1, [r4, #6]
	lsrs	r2, r2, #4
	add	r1, r1, r6
	bl	memcpy
	movs	r0, #0
	pop	{r4, r5, r6, pc}
.L1260:
	.align	2
.L1259:
	.word	.LANCHOR0
	.word	.LANCHOR1+2582
	.word	.LC0
	.fnend
	.size	get_h264_cr_qp_offset, .-get_h264_cr_qp_offset
	.align	1
	.global	set_h264_dblk_disable
	.syntax unified
	.thumb
	.thumb_func
	.fpu softvfp
	.type	set_h264_dblk_disable, %function
set_h264_dblk_disable:
	.fnstart
	@ args = 0, pretend = 0, frame = 8
	@ frame_needed = 0, uses_anonymous_args = 0
	ldr	r3, .L1270
	push	{r0, r1, r2, r4, r5, r6, r7, lr}
	.save {r4, r5, r6, r7, lr}
	.pad #12
	mov	r6, r0
	ldr	r3, [r3]
	mov	r7, r1
	str	r2, [sp, #4]
	lsls	r3, r3, #31
	bpl	.L1262
	movs	r2, #242
	ldr	r1, .L1270+4
	ldr	r0, .L1270+8
	bl	printk
.L1262:
	ldrh	r5, [r7, #4]
	add	r1, sp, #4
	ldrh	r4, [r7, #6]
	lsrs	r5, r5, #4
	add	r4, r4, r6
	mov	r2, r5
	mov	r0, r4
	bl	memcmp
	cbz	r0, .L1263
	mov	r2, r5
	add	r1, sp, #4
	mov	r0, r4
	bl	memcpy
	ldrh	r2, [r7, #10]
	ldr	r3, [r6, r2]
	orr	r3, r3, #128
	str	r3, [r6, r2]
.L1263:
	movs	r0, #0
	add	sp, sp, #12
	@ sp needed
	pop	{r4, r5, r6, r7, pc}
.L1271:
	.align	2
.L1270:
	.word	.LANCHOR0
	.word	.LANCHOR1+2604
	.word	.LC0
	.fnend
	.size	set_h264_dblk_disable, .-set_h264_dblk_disable
	.align	1
	.global	get_h264_dblk_disable
	.syntax unified
	.thumb
	.thumb_func
	.fpu softvfp
	.type	get_h264_dblk_disable, %function
get_h264_dblk_disable:
	.fnstart
	@ args = 0, pretend = 0, frame = 0
	@ frame_needed = 0, uses_anonymous_args = 0
	ldr	r3, .L1277
	push	{r4, r5, r6, lr}
	.save {r4, r5, r6, lr}
	mov	r6, r0
	ldr	r3, [r3]
	mov	r4, r1
	mov	r5, r2
	lsls	r3, r3, #31
	bpl	.L1273
	movs	r2, #242
	ldr	r1, .L1277+4
	ldr	r0, .L1277+8
	bl	printk
.L1273:
	ldrh	r2, [r4, #4]
	mov	r0, r5
	ldrh	r1, [r4, #6]
	lsrs	r2, r2, #4
	add	r1, r1, r6
	bl	memcpy
	movs	r0, #0
	pop	{r4, r5, r6, pc}
.L1278:
	.align	2
.L1277:
	.word	.LANCHOR0
	.word	.LANCHOR1+2626
	.word	.LC0
	.fnend
	.size	get_h264_dblk_disable, .-get_h264_dblk_disable
	.align	1
	.global	set_h264_dblk_alpha
	.syntax unified
	.thumb
	.thumb_func
	.fpu softvfp
	.type	set_h264_dblk_alpha, %function
set_h264_dblk_alpha:
	.fnstart
	@ args = 0, pretend = 0, frame = 8
	@ frame_needed = 0, uses_anonymous_args = 0
	ldr	r3, .L1288
	push	{r0, r1, r2, r4, r5, r6, r7, lr}
	.save {r4, r5, r6, r7, lr}
	.pad #12
	mov	r6, r0
	ldr	r3, [r3]
	mov	r7, r1
	str	r2, [sp, #4]
	lsls	r3, r3, #31
	bpl	.L1280
	movs	r2, #242
	ldr	r1, .L1288+4
	ldr	r0, .L1288+8
	bl	printk
.L1280:
	ldrh	r5, [r7, #4]
	add	r1, sp, #4
	ldrh	r4, [r7, #6]
	lsrs	r5, r5, #4
	add	r4, r4, r6
	mov	r2, r5
	mov	r0, r4
	bl	memcmp
	cbz	r0, .L1281
	mov	r2, r5
	add	r1, sp, #4
	mov	r0, r4
	bl	memcpy
	ldrh	r2, [r7, #10]
	ldr	r3, [r6, r2]
	orr	r3, r3, #128
	str	r3, [r6, r2]
.L1281:
	movs	r0, #0
	add	sp, sp, #12
	@ sp needed
	pop	{r4, r5, r6, r7, pc}
.L1289:
	.align	2
.L1288:
	.word	.LANCHOR0
	.word	.LANCHOR1+2648
	.word	.LC0
	.fnend
	.size	set_h264_dblk_alpha, .-set_h264_dblk_alpha
	.align	1
	.global	get_h264_dblk_alpha
	.syntax unified
	.thumb
	.thumb_func
	.fpu softvfp
	.type	get_h264_dblk_alpha, %function
get_h264_dblk_alpha:
	.fnstart
	@ args = 0, pretend = 0, frame = 0
	@ frame_needed = 0, uses_anonymous_args = 0
	ldr	r3, .L1295
	push	{r4, r5, r6, lr}
	.save {r4, r5, r6, lr}
	mov	r6, r0
	ldr	r3, [r3]
	mov	r4, r1
	mov	r5, r2
	lsls	r3, r3, #31
	bpl	.L1291
	movs	r2, #242
	ldr	r1, .L1295+4
	ldr	r0, .L1295+8
	bl	printk
.L1291:
	ldrh	r2, [r4, #4]
	mov	r0, r5
	ldrh	r1, [r4, #6]
	lsrs	r2, r2, #4
	add	r1, r1, r6
	bl	memcpy
	movs	r0, #0
	pop	{r4, r5, r6, pc}
.L1296:
	.align	2
.L1295:
	.word	.LANCHOR0
	.word	.LANCHOR1+2668
	.word	.LC0
	.fnend
	.size	get_h264_dblk_alpha, .-get_h264_dblk_alpha
	.align	1
	.global	set_h264_dblk_beta
	.syntax unified
	.thumb
	.thumb_func
	.fpu softvfp
	.type	set_h264_dblk_beta, %function
set_h264_dblk_beta:
	.fnstart
	@ args = 0, pretend = 0, frame = 8
	@ frame_needed = 0, uses_anonymous_args = 0
	ldr	r3, .L1306
	push	{r0, r1, r2, r4, r5, r6, r7, lr}
	.save {r4, r5, r6, r7, lr}
	.pad #12
	mov	r6, r0
	ldr	r3, [r3]
	mov	r7, r1
	str	r2, [sp, #4]
	lsls	r3, r3, #31
	bpl	.L1298
	movs	r2, #242
	ldr	r1, .L1306+4
	ldr	r0, .L1306+8
	bl	printk
.L1298:
	ldrh	r5, [r7, #4]
	add	r1, sp, #4
	ldrh	r4, [r7, #6]
	lsrs	r5, r5, #4
	add	r4, r4, r6
	mov	r2, r5
	mov	r0, r4
	bl	memcmp
	cbz	r0, .L1299
	mov	r2, r5
	add	r1, sp, #4
	mov	r0, r4
	bl	memcpy
	ldrh	r2, [r7, #10]
	ldr	r3, [r6, r2]
	orr	r3, r3, #128
	str	r3, [r6, r2]
.L1299:
	movs	r0, #0
	add	sp, sp, #12
	@ sp needed
	pop	{r4, r5, r6, r7, pc}
.L1307:
	.align	2
.L1306:
	.word	.LANCHOR0
	.word	.LANCHOR1+2688
	.word	.LC0
	.fnend
	.size	set_h264_dblk_beta, .-set_h264_dblk_beta
	.align	1
	.global	get_h264_dblk_beta
	.syntax unified
	.thumb
	.thumb_func
	.fpu softvfp
	.type	get_h264_dblk_beta, %function
get_h264_dblk_beta:
	.fnstart
	@ args = 0, pretend = 0, frame = 0
	@ frame_needed = 0, uses_anonymous_args = 0
	ldr	r3, .L1313
	push	{r4, r5, r6, lr}
	.save {r4, r5, r6, lr}
	mov	r6, r0
	ldr	r3, [r3]
	mov	r4, r1
	mov	r5, r2
	lsls	r3, r3, #31
	bpl	.L1309
	movs	r2, #242
	ldr	r1, .L1313+4
	ldr	r0, .L1313+8
	bl	printk
.L1309:
	ldrh	r2, [r4, #4]
	mov	r0, r5
	ldrh	r1, [r4, #6]
	lsrs	r2, r2, #4
	add	r1, r1, r6
	bl	memcpy
	movs	r0, #0
	pop	{r4, r5, r6, pc}
.L1314:
	.align	2
.L1313:
	.word	.LANCHOR0
	.word	.LANCHOR1+2707
	.word	.LC0
	.fnend
	.size	get_h264_dblk_beta, .-get_h264_dblk_beta
	.align	1
	.global	set_h264_qp_init
	.syntax unified
	.thumb
	.thumb_func
	.fpu softvfp
	.type	set_h264_qp_init, %function
set_h264_qp_init:
	.fnstart
	@ args = 0, pretend = 0, frame = 8
	@ frame_needed = 0, uses_anonymous_args = 0
	ldr	r3, .L1324
	push	{r0, r1, r2, r4, r5, r6, r7, lr}
	.save {r4, r5, r6, r7, lr}
	.pad #12
	mov	r6, r0
	ldr	r3, [r3]
	mov	r7, r1
	str	r2, [sp, #4]
	lsls	r3, r3, #31
	bpl	.L1316
	movs	r2, #242
	ldr	r1, .L1324+4
	ldr	r0, .L1324+8
	bl	printk
.L1316:
	ldrh	r5, [r7, #4]
	add	r1, sp, #4
	ldrh	r4, [r7, #6]
	lsrs	r5, r5, #4
	add	r4, r4, r6
	mov	r2, r5
	mov	r0, r4
	bl	memcmp
	cbz	r0, .L1317
	mov	r2, r5
	add	r1, sp, #4
	mov	r0, r4
	bl	memcpy
	ldrh	r2, [r7, #10]
	ldr	r3, [r6, r2]
	orr	r3, r3, #65536
	str	r3, [r6, r2]
.L1317:
	movs	r0, #0
	add	sp, sp, #12
	@ sp needed
	pop	{r4, r5, r6, r7, pc}
.L1325:
	.align	2
.L1324:
	.word	.LANCHOR0
	.word	.LANCHOR1+2726
	.word	.LC0
	.fnend
	.size	set_h264_qp_init, .-set_h264_qp_init
	.align	1
	.global	get_h264_qp_init
	.syntax unified
	.thumb
	.thumb_func
	.fpu softvfp
	.type	get_h264_qp_init, %function
get_h264_qp_init:
	.fnstart
	@ args = 0, pretend = 0, frame = 0
	@ frame_needed = 0, uses_anonymous_args = 0
	ldr	r3, .L1331
	push	{r4, r5, r6, lr}
	.save {r4, r5, r6, lr}
	mov	r6, r0
	ldr	r3, [r3]
	mov	r4, r1
	mov	r5, r2
	lsls	r3, r3, #31
	bpl	.L1327
	movs	r2, #242
	ldr	r1, .L1331+4
	ldr	r0, .L1331+8
	bl	printk
.L1327:
	ldrh	r2, [r4, #4]
	mov	r0, r5
	ldrh	r1, [r4, #6]
	lsrs	r2, r2, #4
	add	r1, r1, r6
	bl	memcpy
	movs	r0, #0
	pop	{r4, r5, r6, pc}
.L1332:
	.align	2
.L1331:
	.word	.LANCHOR0
	.word	.LANCHOR1+2743
	.word	.LC0
	.fnend
	.size	get_h264_qp_init, .-get_h264_qp_init
	.align	1
	.global	set_h264_qp_min
	.syntax unified
	.thumb
	.thumb_func
	.fpu softvfp
	.type	set_h264_qp_min, %function
set_h264_qp_min:
	.fnstart
	@ args = 0, pretend = 0, frame = 8
	@ frame_needed = 0, uses_anonymous_args = 0
	ldr	r3, .L1342
	push	{r0, r1, r2, r4, r5, r6, r7, lr}
	.save {r4, r5, r6, r7, lr}
	.pad #12
	mov	r6, r0
	ldr	r3, [r3]
	mov	r7, r1
	str	r2, [sp, #4]
	lsls	r3, r3, #31
	bpl	.L1334
	movs	r2, #242
	ldr	r1, .L1342+4
	ldr	r0, .L1342+8
	bl	printk
.L1334:
	ldrh	r5, [r7, #4]
	add	r1, sp, #4
	ldrh	r4, [r7, #6]
	lsrs	r5, r5, #4
	add	r4, r4, r6
	mov	r2, r5
	mov	r0, r4
	bl	memcmp
	cbz	r0, .L1335
	mov	r2, r5
	add	r1, sp, #4
	mov	r0, r4
	bl	memcpy
	ldrh	r2, [r7, #10]
	ldr	r3, [r6, r2]
	orr	r3, r3, #131072
	str	r3, [r6, r2]
.L1335:
	movs	r0, #0
	add	sp, sp, #12
	@ sp needed
	pop	{r4, r5, r6, r7, pc}
.L1343:
	.align	2
.L1342:
	.word	.LANCHOR0
	.word	.LANCHOR1+2760
	.word	.LC0
	.fnend
	.size	set_h264_qp_min, .-set_h264_qp_min
	.align	1
	.global	get_h264_qp_min
	.syntax unified
	.thumb
	.thumb_func
	.fpu softvfp
	.type	get_h264_qp_min, %function
get_h264_qp_min:
	.fnstart
	@ args = 0, pretend = 0, frame = 0
	@ frame_needed = 0, uses_anonymous_args = 0
	ldr	r3, .L1349
	push	{r4, r5, r6, lr}
	.save {r4, r5, r6, lr}
	mov	r6, r0
	ldr	r3, [r3]
	mov	r4, r1
	mov	r5, r2
	lsls	r3, r3, #31
	bpl	.L1345
	movs	r2, #242
	ldr	r1, .L1349+4
	ldr	r0, .L1349+8
	bl	printk
.L1345:
	ldrh	r2, [r4, #4]
	mov	r0, r5
	ldrh	r1, [r4, #6]
	lsrs	r2, r2, #4
	add	r1, r1, r6
	bl	memcpy
	movs	r0, #0
	pop	{r4, r5, r6, pc}
.L1350:
	.align	2
.L1349:
	.word	.LANCHOR0
	.word	.LANCHOR1+2776
	.word	.LC0
	.fnend
	.size	get_h264_qp_min, .-get_h264_qp_min
	.align	1
	.global	set_h264_qp_max
	.syntax unified
	.thumb
	.thumb_func
	.fpu softvfp
	.type	set_h264_qp_max, %function
set_h264_qp_max:
	.fnstart
	@ args = 0, pretend = 0, frame = 8
	@ frame_needed = 0, uses_anonymous_args = 0
	ldr	r3, .L1360
	push	{r0, r1, r2, r4, r5, r6, r7, lr}
	.save {r4, r5, r6, r7, lr}
	.pad #12
	mov	r6, r0
	ldr	r3, [r3]
	mov	r7, r1
	str	r2, [sp, #4]
	lsls	r3, r3, #31
	bpl	.L1352
	movs	r2, #242
	ldr	r1, .L1360+4
	ldr	r0, .L1360+8
	bl	printk
.L1352:
	ldrh	r5, [r7, #4]
	add	r1, sp, #4
	ldrh	r4, [r7, #6]
	lsrs	r5, r5, #4
	add	r4, r4, r6
	mov	r2, r5
	mov	r0, r4
	bl	memcmp
	cbz	r0, .L1353
	mov	r2, r5
	add	r1, sp, #4
	mov	r0, r4
	bl	memcpy
	ldrh	r2, [r7, #10]
	ldr	r3, [r6, r2]
	orr	r3, r3, #131072
	str	r3, [r6, r2]
.L1353:
	movs	r0, #0
	add	sp, sp, #12
	@ sp needed
	pop	{r4, r5, r6, r7, pc}
.L1361:
	.align	2
.L1360:
	.word	.LANCHOR0
	.word	.LANCHOR1+2792
	.word	.LC0
	.fnend
	.size	set_h264_qp_max, .-set_h264_qp_max
	.align	1
	.global	get_h264_qp_max
	.syntax unified
	.thumb
	.thumb_func
	.fpu softvfp
	.type	get_h264_qp_max, %function
get_h264_qp_max:
	.fnstart
	@ args = 0, pretend = 0, frame = 0
	@ frame_needed = 0, uses_anonymous_args = 0
	ldr	r3, .L1367
	push	{r4, r5, r6, lr}
	.save {r4, r5, r6, lr}
	mov	r6, r0
	ldr	r3, [r3]
	mov	r4, r1
	mov	r5, r2
	lsls	r3, r3, #31
	bpl	.L1363
	movs	r2, #242
	ldr	r1, .L1367+4
	ldr	r0, .L1367+8
	bl	printk
.L1363:
	ldrh	r2, [r4, #4]
	mov	r0, r5
	ldrh	r1, [r4, #6]
	lsrs	r2, r2, #4
	add	r1, r1, r6
	bl	memcpy
	movs	r0, #0
	pop	{r4, r5, r6, pc}
.L1368:
	.align	2
.L1367:
	.word	.LANCHOR0
	.word	.LANCHOR1+2808
	.word	.LC0
	.fnend
	.size	get_h264_qp_max, .-get_h264_qp_max
	.align	1
	.global	set_h264_qp_min_i
	.syntax unified
	.thumb
	.thumb_func
	.fpu softvfp
	.type	set_h264_qp_min_i, %function
set_h264_qp_min_i:
	.fnstart
	@ args = 0, pretend = 0, frame = 8
	@ frame_needed = 0, uses_anonymous_args = 0
	ldr	r3, .L1378
	push	{r0, r1, r2, r4, r5, r6, r7, lr}
	.save {r4, r5, r6, r7, lr}
	.pad #12
	mov	r6, r0
	ldr	r3, [r3]
	mov	r7, r1
	str	r2, [sp, #4]
	lsls	r3, r3, #31
	bpl	.L1370
	movs	r2, #242
	ldr	r1, .L1378+4
	ldr	r0, .L1378+8
	bl	printk
.L1370:
	ldrh	r5, [r7, #4]
	add	r1, sp, #4
	ldrh	r4, [r7, #6]
	lsrs	r5, r5, #4
	add	r4, r4, r6
	mov	r2, r5
	mov	r0, r4
	bl	memcmp
	cbz	r0, .L1371
	mov	r2, r5
	add	r1, sp, #4
	mov	r0, r4
	bl	memcpy
	ldrh	r2, [r7, #10]
	ldr	r3, [r6, r2]
	orr	r3, r3, #262144
	str	r3, [r6, r2]
.L1371:
	movs	r0, #0
	add	sp, sp, #12
	@ sp needed
	pop	{r4, r5, r6, r7, pc}
.L1379:
	.align	2
.L1378:
	.word	.LANCHOR0
	.word	.LANCHOR1+2824
	.word	.LC0
	.fnend
	.size	set_h264_qp_min_i, .-set_h264_qp_min_i
	.align	1
	.global	get_h264_qp_min_i
	.syntax unified
	.thumb
	.thumb_func
	.fpu softvfp
	.type	get_h264_qp_min_i, %function
get_h264_qp_min_i:
	.fnstart
	@ args = 0, pretend = 0, frame = 0
	@ frame_needed = 0, uses_anonymous_args = 0
	ldr	r3, .L1385
	push	{r4, r5, r6, lr}
	.save {r4, r5, r6, lr}
	mov	r6, r0
	ldr	r3, [r3]
	mov	r4, r1
	mov	r5, r2
	lsls	r3, r3, #31
	bpl	.L1381
	movs	r2, #242
	ldr	r1, .L1385+4
	ldr	r0, .L1385+8
	bl	printk
.L1381:
	ldrh	r2, [r4, #4]
	mov	r0, r5
	ldrh	r1, [r4, #6]
	lsrs	r2, r2, #4
	add	r1, r1, r6
	bl	memcpy
	movs	r0, #0
	pop	{r4, r5, r6, pc}
.L1386:
	.align	2
.L1385:
	.word	.LANCHOR0
	.word	.LANCHOR1+2842
	.word	.LC0
	.fnend
	.size	get_h264_qp_min_i, .-get_h264_qp_min_i
	.align	1
	.global	set_h264_qp_max_i
	.syntax unified
	.thumb
	.thumb_func
	.fpu softvfp
	.type	set_h264_qp_max_i, %function
set_h264_qp_max_i:
	.fnstart
	@ args = 0, pretend = 0, frame = 8
	@ frame_needed = 0, uses_anonymous_args = 0
	ldr	r3, .L1396
	push	{r0, r1, r2, r4, r5, r6, r7, lr}
	.save {r4, r5, r6, r7, lr}
	.pad #12
	mov	r6, r0
	ldr	r3, [r3]
	mov	r7, r1
	str	r2, [sp, #4]
	lsls	r3, r3, #31
	bpl	.L1388
	movs	r2, #242
	ldr	r1, .L1396+4
	ldr	r0, .L1396+8
	bl	printk
.L1388:
	ldrh	r5, [r7, #4]
	add	r1, sp, #4
	ldrh	r4, [r7, #6]
	lsrs	r5, r5, #4
	add	r4, r4, r6
	mov	r2, r5
	mov	r0, r4
	bl	memcmp
	cbz	r0, .L1389
	mov	r2, r5
	add	r1, sp, #4
	mov	r0, r4
	bl	memcpy
	ldrh	r2, [r7, #10]
	ldr	r3, [r6, r2]
	orr	r3, r3, #262144
	str	r3, [r6, r2]
.L1389:
	movs	r0, #0
	add	sp, sp, #12
	@ sp needed
	pop	{r4, r5, r6, r7, pc}
.L1397:
	.align	2
.L1396:
	.word	.LANCHOR0
	.word	.LANCHOR1+2860
	.word	.LC0
	.fnend
	.size	set_h264_qp_max_i, .-set_h264_qp_max_i
	.align	1
	.global	get_h264_qp_max_i
	.syntax unified
	.thumb
	.thumb_func
	.fpu softvfp
	.type	get_h264_qp_max_i, %function
get_h264_qp_max_i:
	.fnstart
	@ args = 0, pretend = 0, frame = 0
	@ frame_needed = 0, uses_anonymous_args = 0
	ldr	r3, .L1403
	push	{r4, r5, r6, lr}
	.save {r4, r5, r6, lr}
	mov	r6, r0
	ldr	r3, [r3]
	mov	r4, r1
	mov	r5, r2
	lsls	r3, r3, #31
	bpl	.L1399
	movs	r2, #242
	ldr	r1, .L1403+4
	ldr	r0, .L1403+8
	bl	printk
.L1399:
	ldrh	r2, [r4, #4]
	mov	r0, r5
	ldrh	r1, [r4, #6]
	lsrs	r2, r2, #4
	add	r1, r1, r6
	bl	memcpy
	movs	r0, #0
	pop	{r4, r5, r6, pc}
.L1404:
	.align	2
.L1403:
	.word	.LANCHOR0
	.word	.LANCHOR1+2878
	.word	.LC0
	.fnend
	.size	get_h264_qp_max_i, .-get_h264_qp_max_i
	.align	1
	.global	set_h264_qp_step
	.syntax unified
	.thumb
	.thumb_func
	.fpu softvfp
	.type	set_h264_qp_step, %function
set_h264_qp_step:
	.fnstart
	@ args = 0, pretend = 0, frame = 8
	@ frame_needed = 0, uses_anonymous_args = 0
	ldr	r3, .L1414
	push	{r0, r1, r2, r4, r5, r6, r7, lr}
	.save {r4, r5, r6, r7, lr}
	.pad #12
	mov	r6, r0
	ldr	r3, [r3]
	mov	r7, r1
	str	r2, [sp, #4]
	lsls	r3, r3, #31
	bpl	.L1406
	movs	r2, #242
	ldr	r1, .L1414+4
	ldr	r0, .L1414+8
	bl	printk
.L1406:
	ldrh	r5, [r7, #4]
	add	r1, sp, #4
	ldrh	r4, [r7, #6]
	lsrs	r5, r5, #4
	add	r4, r4, r6
	mov	r2, r5
	mov	r0, r4
	bl	memcmp
	cbz	r0, .L1407
	mov	r2, r5
	add	r1, sp, #4
	mov	r0, r4
	bl	memcpy
	ldrh	r2, [r7, #10]
	ldr	r3, [r6, r2]
	orr	r3, r3, #524288
	str	r3, [r6, r2]
.L1407:
	movs	r0, #0
	add	sp, sp, #12
	@ sp needed
	pop	{r4, r5, r6, r7, pc}
.L1415:
	.align	2
.L1414:
	.word	.LANCHOR0
	.word	.LANCHOR1+2896
	.word	.LC0
	.fnend
	.size	set_h264_qp_step, .-set_h264_qp_step
	.align	1
	.global	get_h264_qp_step
	.syntax unified
	.thumb
	.thumb_func
	.fpu softvfp
	.type	get_h264_qp_step, %function
get_h264_qp_step:
	.fnstart
	@ args = 0, pretend = 0, frame = 0
	@ frame_needed = 0, uses_anonymous_args = 0
	ldr	r3, .L1421
	push	{r4, r5, r6, lr}
	.save {r4, r5, r6, lr}
	mov	r6, r0
	ldr	r3, [r3]
	mov	r4, r1
	mov	r5, r2
	lsls	r3, r3, #31
	bpl	.L1417
	movs	r2, #242
	ldr	r1, .L1421+4
	ldr	r0, .L1421+8
	bl	printk
.L1417:
	ldrh	r2, [r4, #4]
	mov	r0, r5
	ldrh	r1, [r4, #6]
	lsrs	r2, r2, #4
	add	r1, r1, r6
	bl	memcpy
	movs	r0, #0
	pop	{r4, r5, r6, pc}
.L1422:
	.align	2
.L1421:
	.word	.LANCHOR0
	.word	.LANCHOR1+2913
	.word	.LC0
	.fnend
	.size	get_h264_qp_step, .-get_h264_qp_step
	.align	1
	.global	set_h264_qp_delta_ip
	.syntax unified
	.thumb
	.thumb_func
	.fpu softvfp
	.type	set_h264_qp_delta_ip, %function
set_h264_qp_delta_ip:
	.fnstart
	@ args = 0, pretend = 0, frame = 8
	@ frame_needed = 0, uses_anonymous_args = 0
	ldr	r3, .L1432
	push	{r0, r1, r2, r4, r5, r6, r7, lr}
	.save {r4, r5, r6, r7, lr}
	.pad #12
	mov	r6, r0
	ldr	r3, [r3]
	mov	r7, r1
	str	r2, [sp, #4]
	lsls	r3, r3, #31
	bpl	.L1424
	movs	r2, #242
	ldr	r1, .L1432+4
	ldr	r0, .L1432+8
	bl	printk
.L1424:
	ldrh	r5, [r7, #4]
	add	r1, sp, #4
	ldrh	r4, [r7, #6]
	lsrs	r5, r5, #4
	add	r4, r4, r6
	mov	r2, r5
	mov	r0, r4
	bl	memcmp
	cbz	r0, .L1425
	mov	r2, r5
	add	r1, sp, #4
	mov	r0, r4
	bl	memcpy
	ldrh	r2, [r7, #10]
	ldr	r3, [r6, r2]
	orr	r3, r3, #1048576
	str	r3, [r6, r2]
.L1425:
	movs	r0, #0
	add	sp, sp, #12
	@ sp needed
	pop	{r4, r5, r6, r7, pc}
.L1433:
	.align	2
.L1432:
	.word	.LANCHOR0
	.word	.LANCHOR1+2930
	.word	.LC0
	.fnend
	.size	set_h264_qp_delta_ip, .-set_h264_qp_delta_ip
	.align	1
	.global	get_h264_qp_delta_ip
	.syntax unified
	.thumb
	.thumb_func
	.fpu softvfp
	.type	get_h264_qp_delta_ip, %function
get_h264_qp_delta_ip:
	.fnstart
	@ args = 0, pretend = 0, frame = 0
	@ frame_needed = 0, uses_anonymous_args = 0
	ldr	r3, .L1439
	push	{r4, r5, r6, lr}
	.save {r4, r5, r6, lr}
	mov	r6, r0
	ldr	r3, [r3]
	mov	r4, r1
	mov	r5, r2
	lsls	r3, r3, #31
	bpl	.L1435
	movs	r2, #242
	ldr	r1, .L1439+4
	ldr	r0, .L1439+8
	bl	printk
.L1435:
	ldrh	r2, [r4, #4]
	mov	r0, r5
	ldrh	r1, [r4, #6]
	lsrs	r2, r2, #4
	add	r1, r1, r6
	bl	memcpy
	movs	r0, #0
	pop	{r4, r5, r6, pc}
.L1440:
	.align	2
.L1439:
	.word	.LANCHOR0
	.word	.LANCHOR1+2951
	.word	.LC0
	.fnend
	.size	get_h264_qp_delta_ip, .-get_h264_qp_delta_ip
	.align	1
	.global	set_h264_max_tid
	.syntax unified
	.thumb
	.thumb_func
	.fpu softvfp
	.type	set_h264_max_tid, %function
set_h264_max_tid:
	.fnstart
	@ args = 0, pretend = 0, frame = 8
	@ frame_needed = 0, uses_anonymous_args = 0
	ldr	r3, .L1450
	push	{r0, r1, r2, r4, r5, r6, r7, lr}
	.save {r4, r5, r6, r7, lr}
	.pad #12
	mov	r6, r0
	ldr	r3, [r3]
	mov	r7, r1
	str	r2, [sp, #4]
	lsls	r3, r3, #31
	bpl	.L1442
	movs	r2, #242
	ldr	r1, .L1450+4
	ldr	r0, .L1450+8
	bl	printk
.L1442:
	ldrh	r5, [r7, #4]
	add	r1, sp, #4
	ldrh	r4, [r7, #6]
	lsrs	r5, r5, #4
	add	r4, r4, r6
	mov	r2, r5
	mov	r0, r4
	bl	memcmp
	cbz	r0, .L1443
	mov	r2, r5
	add	r1, sp, #4
	mov	r0, r4
	bl	memcpy
	ldrh	r2, [r7, #10]
	ldr	r3, [r6, r2]
	orr	r3, r3, #4194304
	str	r3, [r6, r2]
.L1443:
	movs	r0, #0
	add	sp, sp, #12
	@ sp needed
	pop	{r4, r5, r6, r7, pc}
.L1451:
	.align	2
.L1450:
	.word	.LANCHOR0
	.word	.LANCHOR1+2972
	.word	.LC0
	.fnend
	.size	set_h264_max_tid, .-set_h264_max_tid
	.align	1
	.global	get_h264_max_tid
	.syntax unified
	.thumb
	.thumb_func
	.fpu softvfp
	.type	get_h264_max_tid, %function
get_h264_max_tid:
	.fnstart
	@ args = 0, pretend = 0, frame = 0
	@ frame_needed = 0, uses_anonymous_args = 0
	ldr	r3, .L1457
	push	{r4, r5, r6, lr}
	.save {r4, r5, r6, lr}
	mov	r6, r0
	ldr	r3, [r3]
	mov	r4, r1
	mov	r5, r2
	lsls	r3, r3, #31
	bpl	.L1453
	movs	r2, #242
	ldr	r1, .L1457+4
	ldr	r0, .L1457+8
	bl	printk
.L1453:
	ldrh	r2, [r4, #4]
	mov	r0, r5
	ldrh	r1, [r4, #6]
	lsrs	r2, r2, #4
	add	r1, r1, r6
	bl	memcpy
	movs	r0, #0
	pop	{r4, r5, r6, pc}
.L1458:
	.align	2
.L1457:
	.word	.LANCHOR0
	.word	.LANCHOR1+2989
	.word	.LC0
	.fnend
	.size	get_h264_max_tid, .-get_h264_max_tid
	.align	1
	.global	set_h264_max_ltr
	.syntax unified
	.thumb
	.thumb_func
	.fpu softvfp
	.type	set_h264_max_ltr, %function
set_h264_max_ltr:
	.fnstart
	@ args = 0, pretend = 0, frame = 8
	@ frame_needed = 0, uses_anonymous_args = 0
	ldr	r3, .L1468
	push	{r0, r1, r2, r4, r5, r6, r7, lr}
	.save {r4, r5, r6, r7, lr}
	.pad #12
	mov	r6, r0
	ldr	r3, [r3]
	mov	r7, r1
	str	r2, [sp, #4]
	lsls	r3, r3, #31
	bpl	.L1460
	movs	r2, #242
	ldr	r1, .L1468+4
	ldr	r0, .L1468+8
	bl	printk
.L1460:
	ldrh	r5, [r7, #4]
	add	r1, sp, #4
	ldrh	r4, [r7, #6]
	lsrs	r5, r5, #4
	add	r4, r4, r6
	mov	r2, r5
	mov	r0, r4
	bl	memcmp
	cbz	r0, .L1461
	mov	r2, r5
	add	r1, sp, #4
	mov	r0, r4
	bl	memcpy
	ldrh	r2, [r7, #10]
	ldr	r3, [r6, r2]
	orr	r3, r3, #2097152
	str	r3, [r6, r2]
.L1461:
	movs	r0, #0
	add	sp, sp, #12
	@ sp needed
	pop	{r4, r5, r6, r7, pc}
.L1469:
	.align	2
.L1468:
	.word	.LANCHOR0
	.word	.LANCHOR1+3006
	.word	.LC0
	.fnend
	.size	set_h264_max_ltr, .-set_h264_max_ltr
	.align	1
	.global	get_h264_max_ltr
	.syntax unified
	.thumb
	.thumb_func
	.fpu softvfp
	.type	get_h264_max_ltr, %function
get_h264_max_ltr:
	.fnstart
	@ args = 0, pretend = 0, frame = 0
	@ frame_needed = 0, uses_anonymous_args = 0
	ldr	r3, .L1475
	push	{r4, r5, r6, lr}
	.save {r4, r5, r6, lr}
	mov	r6, r0
	ldr	r3, [r3]
	mov	r4, r1
	mov	r5, r2
	lsls	r3, r3, #31
	bpl	.L1471
	movs	r2, #242
	ldr	r1, .L1475+4
	ldr	r0, .L1475+8
	bl	printk
.L1471:
	ldrh	r2, [r4, #4]
	mov	r0, r5
	ldrh	r1, [r4, #6]
	lsrs	r2, r2, #4
	add	r1, r1, r6
	bl	memcpy
	movs	r0, #0
	pop	{r4, r5, r6, pc}
.L1476:
	.align	2
.L1475:
	.word	.LANCHOR0
	.word	.LANCHOR1+3023
	.word	.LC0
	.fnend
	.size	get_h264_max_ltr, .-get_h264_max_ltr
	.align	1
	.global	set_h264_prefix_mode
	.syntax unified
	.thumb
	.thumb_func
	.fpu softvfp
	.type	set_h264_prefix_mode, %function
set_h264_prefix_mode:
	.fnstart
	@ args = 0, pretend = 0, frame = 8
	@ frame_needed = 0, uses_anonymous_args = 0
	ldr	r3, .L1486
	push	{r0, r1, r2, r4, r5, r6, r7, lr}
	.save {r4, r5, r6, r7, lr}
	.pad #12
	mov	r6, r0
	ldr	r3, [r3]
	mov	r7, r1
	str	r2, [sp, #4]
	lsls	r3, r3, #31
	bpl	.L1478
	movs	r2, #242
	ldr	r1, .L1486+4
	ldr	r0, .L1486+8
	bl	printk
.L1478:
	ldrh	r5, [r7, #4]
	add	r1, sp, #4
	ldrh	r4, [r7, #6]
	lsrs	r5, r5, #4
	add	r4, r4, r6
	mov	r2, r5
	mov	r0, r4
	bl	memcmp
	cbz	r0, .L1479
	mov	r2, r5
	add	r1, sp, #4
	mov	r0, r4
	bl	memcpy
	ldrh	r2, [r7, #10]
	ldr	r3, [r6, r2]
	orr	r3, r3, #8388608
	str	r3, [r6, r2]
.L1479:
	movs	r0, #0
	add	sp, sp, #12
	@ sp needed
	pop	{r4, r5, r6, r7, pc}
.L1487:
	.align	2
.L1486:
	.word	.LANCHOR0
	.word	.LANCHOR1+3040
	.word	.LC0
	.fnend
	.size	set_h264_prefix_mode, .-set_h264_prefix_mode
	.align	1
	.global	get_h264_prefix_mode
	.syntax unified
	.thumb
	.thumb_func
	.fpu softvfp
	.type	get_h264_prefix_mode, %function
get_h264_prefix_mode:
	.fnstart
	@ args = 0, pretend = 0, frame = 0
	@ frame_needed = 0, uses_anonymous_args = 0
	ldr	r3, .L1493
	push	{r4, r5, r6, lr}
	.save {r4, r5, r6, lr}
	mov	r6, r0
	ldr	r3, [r3]
	mov	r4, r1
	mov	r5, r2
	lsls	r3, r3, #31
	bpl	.L1489
	movs	r2, #242
	ldr	r1, .L1493+4
	ldr	r0, .L1493+8
	bl	printk
.L1489:
	ldrh	r2, [r4, #4]
	mov	r0, r5
	ldrh	r1, [r4, #6]
	lsrs	r2, r2, #4
	add	r1, r1, r6
	bl	memcpy
	movs	r0, #0
	pop	{r4, r5, r6, pc}
.L1494:
	.align	2
.L1493:
	.word	.LANCHOR0
	.word	.LANCHOR1+3061
	.word	.LC0
	.fnend
	.size	get_h264_prefix_mode, .-get_h264_prefix_mode
	.align	1
	.global	set_h264_base_layer_pid
	.syntax unified
	.thumb
	.thumb_func
	.fpu softvfp
	.type	set_h264_base_layer_pid, %function
set_h264_base_layer_pid:
	.fnstart
	@ args = 0, pretend = 0, frame = 8
	@ frame_needed = 0, uses_anonymous_args = 0
	ldr	r3, .L1504
	push	{r0, r1, r2, r4, r5, r6, r7, lr}
	.save {r4, r5, r6, r7, lr}
	.pad #12
	mov	r6, r0
	ldr	r3, [r3]
	mov	r7, r1
	str	r2, [sp, #4]
	lsls	r3, r3, #31
	bpl	.L1496
	movs	r2, #242
	ldr	r1, .L1504+4
	ldr	r0, .L1504+8
	bl	printk
.L1496:
	ldrh	r5, [r7, #4]
	add	r1, sp, #4
	ldrh	r4, [r7, #6]
	lsrs	r5, r5, #4
	add	r4, r4, r6
	mov	r2, r5
	mov	r0, r4
	bl	memcmp
	cbz	r0, .L1497
	mov	r2, r5
	add	r1, sp, #4
	mov	r0, r4
	bl	memcpy
	ldrh	r2, [r7, #10]
	ldr	r3, [r6, r2]
	orr	r3, r3, #16777216
	str	r3, [r6, r2]
.L1497:
	movs	r0, #0
	add	sp, sp, #12
	@ sp needed
	pop	{r4, r5, r6, r7, pc}
.L1505:
	.align	2
.L1504:
	.word	.LANCHOR0
	.word	.LANCHOR1+3082
	.word	.LC0
	.fnend
	.size	set_h264_base_layer_pid, .-set_h264_base_layer_pid
	.align	1
	.global	get_h264_base_layer_pid
	.syntax unified
	.thumb
	.thumb_func
	.fpu softvfp
	.type	get_h264_base_layer_pid, %function
get_h264_base_layer_pid:
	.fnstart
	@ args = 0, pretend = 0, frame = 0
	@ frame_needed = 0, uses_anonymous_args = 0
	ldr	r3, .L1511
	push	{r4, r5, r6, lr}
	.save {r4, r5, r6, lr}
	mov	r6, r0
	ldr	r3, [r3]
	mov	r4, r1
	mov	r5, r2
	lsls	r3, r3, #31
	bpl	.L1507
	movs	r2, #242
	ldr	r1, .L1511+4
	ldr	r0, .L1511+8
	bl	printk
.L1507:
	ldrh	r2, [r4, #4]
	mov	r0, r5
	ldrh	r1, [r4, #6]
	lsrs	r2, r2, #4
	add	r1, r1, r6
	bl	memcpy
	movs	r0, #0
	pop	{r4, r5, r6, pc}
.L1512:
	.align	2
.L1511:
	.word	.LANCHOR0
	.word	.LANCHOR1+3106
	.word	.LC0
	.fnend
	.size	get_h264_base_layer_pid, .-get_h264_base_layer_pid
	.align	1
	.global	set_h265_profile
	.syntax unified
	.thumb
	.thumb_func
	.fpu softvfp
	.type	set_h265_profile, %function
set_h265_profile:
	.fnstart
	@ args = 0, pretend = 0, frame = 8
	@ frame_needed = 0, uses_anonymous_args = 0
	ldr	r3, .L1522
	push	{r0, r1, r2, r4, r5, r6, r7, lr}
	.save {r4, r5, r6, r7, lr}
	.pad #12
	mov	r6, r0
	ldr	r3, [r3]
	mov	r7, r1
	str	r2, [sp, #4]
	lsls	r3, r3, #31
	bpl	.L1514
	movs	r2, #242
	ldr	r1, .L1522+4
	ldr	r0, .L1522+8
	bl	printk
.L1514:
	ldrh	r5, [r7, #4]
	add	r1, sp, #4
	ldrh	r4, [r7, #6]
	lsrs	r5, r5, #4
	add	r4, r4, r6
	mov	r2, r5
	mov	r0, r4
	bl	memcmp
	cbz	r0, .L1515
	mov	r2, r5
	add	r1, sp, #4
	mov	r0, r4
	bl	memcpy
	ldrh	r2, [r7, #10]
	ldr	r3, [r6, r2]
	orr	r3, r3, #1
	str	r3, [r6, r2]
.L1515:
	movs	r0, #0
	add	sp, sp, #12
	@ sp needed
	pop	{r4, r5, r6, r7, pc}
.L1523:
	.align	2
.L1522:
	.word	.LANCHOR0
	.word	.LANCHOR1+3130
	.word	.LC0
	.fnend
	.size	set_h265_profile, .-set_h265_profile
	.align	1
	.global	get_h265_profile
	.syntax unified
	.thumb
	.thumb_func
	.fpu softvfp
	.type	get_h265_profile, %function
get_h265_profile:
	.fnstart
	@ args = 0, pretend = 0, frame = 0
	@ frame_needed = 0, uses_anonymous_args = 0
	ldr	r3, .L1529
	push	{r4, r5, r6, lr}
	.save {r4, r5, r6, lr}
	mov	r6, r0
	ldr	r3, [r3]
	mov	r4, r1
	mov	r5, r2
	lsls	r3, r3, #31
	bpl	.L1525
	movs	r2, #242
	ldr	r1, .L1529+4
	ldr	r0, .L1529+8
	bl	printk
.L1525:
	ldrh	r2, [r4, #4]
	mov	r0, r5
	ldrh	r1, [r4, #6]
	lsrs	r2, r2, #4
	add	r1, r1, r6
	bl	memcpy
	movs	r0, #0
	pop	{r4, r5, r6, pc}
.L1530:
	.align	2
.L1529:
	.word	.LANCHOR0
	.word	.LANCHOR1+3147
	.word	.LC0
	.fnend
	.size	get_h265_profile, .-get_h265_profile
	.align	1
	.global	set_h265_level
	.syntax unified
	.thumb
	.thumb_func
	.fpu softvfp
	.type	set_h265_level, %function
set_h265_level:
	.fnstart
	@ args = 0, pretend = 0, frame = 8
	@ frame_needed = 0, uses_anonymous_args = 0
	ldr	r3, .L1540
	push	{r0, r1, r2, r4, r5, r6, r7, lr}
	.save {r4, r5, r6, r7, lr}
	.pad #12
	mov	r6, r0
	ldr	r3, [r3]
	mov	r7, r1
	str	r2, [sp, #4]
	lsls	r3, r3, #31
	bpl	.L1532
	movs	r2, #242
	ldr	r1, .L1540+4
	ldr	r0, .L1540+8
	bl	printk
.L1532:
	ldrh	r5, [r7, #4]
	add	r1, sp, #4
	ldrh	r4, [r7, #6]
	lsrs	r5, r5, #4
	add	r4, r4, r6
	mov	r2, r5
	mov	r0, r4
	bl	memcmp
	cbz	r0, .L1533
	mov	r2, r5
	add	r1, sp, #4
	mov	r0, r4
	bl	memcpy
	ldrh	r2, [r7, #10]
	ldr	r3, [r6, r2]
	orr	r3, r3, #1
	str	r3, [r6, r2]
.L1533:
	movs	r0, #0
	add	sp, sp, #12
	@ sp needed
	pop	{r4, r5, r6, r7, pc}
.L1541:
	.align	2
.L1540:
	.word	.LANCHOR0
	.word	.LANCHOR1+3164
	.word	.LC0
	.fnend
	.size	set_h265_level, .-set_h265_level
	.align	1
	.global	get_h265_level
	.syntax unified
	.thumb
	.thumb_func
	.fpu softvfp
	.type	get_h265_level, %function
get_h265_level:
	.fnstart
	@ args = 0, pretend = 0, frame = 0
	@ frame_needed = 0, uses_anonymous_args = 0
	ldr	r3, .L1547
	push	{r4, r5, r6, lr}
	.save {r4, r5, r6, lr}
	mov	r6, r0
	ldr	r3, [r3]
	mov	r4, r1
	mov	r5, r2
	lsls	r3, r3, #31
	bpl	.L1543
	movs	r2, #242
	ldr	r1, .L1547+4
	ldr	r0, .L1547+8
	bl	printk
.L1543:
	ldrh	r2, [r4, #4]
	mov	r0, r5
	ldrh	r1, [r4, #6]
	lsrs	r2, r2, #4
	add	r1, r1, r6
	bl	memcpy
	movs	r0, #0
	pop	{r4, r5, r6, pc}
.L1548:
	.align	2
.L1547:
	.word	.LANCHOR0
	.word	.LANCHOR1+3179
	.word	.LC0
	.fnend
	.size	get_h265_level, .-get_h265_level
	.align	1
	.global	set_h265_scaling_list
	.syntax unified
	.thumb
	.thumb_func
	.fpu softvfp
	.type	set_h265_scaling_list, %function
set_h265_scaling_list:
	.fnstart
	@ args = 0, pretend = 0, frame = 8
	@ frame_needed = 0, uses_anonymous_args = 0
	ldr	r3, .L1558
	push	{r0, r1, r2, r4, r5, r6, r7, lr}
	.save {r4, r5, r6, r7, lr}
	.pad #12
	mov	r6, r0
	ldr	r3, [r3]
	mov	r7, r1
	str	r2, [sp, #4]
	lsls	r3, r3, #31
	bpl	.L1550
	movs	r2, #242
	ldr	r1, .L1558+4
	ldr	r0, .L1558+8
	bl	printk
.L1550:
	ldrh	r5, [r7, #4]
	add	r1, sp, #4
	ldrh	r4, [r7, #6]
	lsrs	r5, r5, #4
	add	r4, r4, r6
	mov	r2, r5
	mov	r0, r4
	bl	memcmp
	cbz	r0, .L1551
	mov	r2, r5
	add	r1, sp, #4
	mov	r0, r4
	bl	memcpy
	ldrh	r2, [r7, #10]
	ldr	r3, [r6, r2]
	orr	r3, r3, #16384
	str	r3, [r6, r2]
.L1551:
	movs	r0, #0
	add	sp, sp, #12
	@ sp needed
	pop	{r4, r5, r6, r7, pc}
.L1559:
	.align	2
.L1558:
	.word	.LANCHOR0
	.word	.LANCHOR1+3194
	.word	.LC0
	.fnend
	.size	set_h265_scaling_list, .-set_h265_scaling_list
	.align	1
	.global	get_h265_scaling_list
	.syntax unified
	.thumb
	.thumb_func
	.fpu softvfp
	.type	get_h265_scaling_list, %function
get_h265_scaling_list:
	.fnstart
	@ args = 0, pretend = 0, frame = 0
	@ frame_needed = 0, uses_anonymous_args = 0
	ldr	r3, .L1565
	push	{r4, r5, r6, lr}
	.save {r4, r5, r6, lr}
	mov	r6, r0
	ldr	r3, [r3]
	mov	r4, r1
	mov	r5, r2
	lsls	r3, r3, #31
	bpl	.L1561
	movs	r2, #242
	ldr	r1, .L1565+4
	ldr	r0, .L1565+8
	bl	printk
.L1561:
	ldrh	r2, [r4, #4]
	mov	r0, r5
	ldrh	r1, [r4, #6]
	lsrs	r2, r2, #4
	add	r1, r1, r6
	bl	memcpy
	movs	r0, #0
	pop	{r4, r5, r6, pc}
.L1566:
	.align	2
.L1565:
	.word	.LANCHOR0
	.word	.LANCHOR1+3216
	.word	.LC0
	.fnend
	.size	get_h265_scaling_list, .-get_h265_scaling_list
	.align	1
	.global	set_h265_cb_qp_offset
	.syntax unified
	.thumb
	.thumb_func
	.fpu softvfp
	.type	set_h265_cb_qp_offset, %function
set_h265_cb_qp_offset:
	.fnstart
	@ args = 0, pretend = 0, frame = 8
	@ frame_needed = 0, uses_anonymous_args = 0
	ldr	r3, .L1576
	push	{r0, r1, r2, r4, r5, r6, r7, lr}
	.save {r4, r5, r6, r7, lr}
	.pad #12
	mov	r6, r0
	ldr	r3, [r3]
	mov	r7, r1
	str	r2, [sp, #4]
	lsls	r3, r3, #31
	bpl	.L1568
	movs	r2, #242
	ldr	r1, .L1576+4
	ldr	r0, .L1576+8
	bl	printk
.L1568:
	ldrh	r5, [r7, #4]
	add	r1, sp, #4
	ldrh	r4, [r7, #6]
	lsrs	r5, r5, #4
	add	r4, r4, r6
	mov	r2, r5
	mov	r0, r4
	bl	memcmp
	cbz	r0, .L1569
	mov	r2, r5
	add	r1, sp, #4
	mov	r0, r4
	bl	memcpy
	ldrh	r2, [r7, #10]
	ldr	r3, [r6, r2]
	orr	r3, r3, #16384
	str	r3, [r6, r2]
.L1569:
	movs	r0, #0
	add	sp, sp, #12
	@ sp needed
	pop	{r4, r5, r6, r7, pc}
.L1577:
	.align	2
.L1576:
	.word	.LANCHOR0
	.word	.LANCHOR1+3238
	.word	.LC0
	.fnend
	.size	set_h265_cb_qp_offset, .-set_h265_cb_qp_offset
	.align	1
	.global	get_h265_cb_qp_offset
	.syntax unified
	.thumb
	.thumb_func
	.fpu softvfp
	.type	get_h265_cb_qp_offset, %function
get_h265_cb_qp_offset:
	.fnstart
	@ args = 0, pretend = 0, frame = 0
	@ frame_needed = 0, uses_anonymous_args = 0
	ldr	r3, .L1583
	push	{r4, r5, r6, lr}
	.save {r4, r5, r6, lr}
	mov	r6, r0
	ldr	r3, [r3]
	mov	r4, r1
	mov	r5, r2
	lsls	r3, r3, #31
	bpl	.L1579
	movs	r2, #242
	ldr	r1, .L1583+4
	ldr	r0, .L1583+8
	bl	printk
.L1579:
	ldrh	r2, [r4, #4]
	mov	r0, r5
	ldrh	r1, [r4, #6]
	lsrs	r2, r2, #4
	add	r1, r1, r6
	bl	memcpy
	movs	r0, #0
	pop	{r4, r5, r6, pc}
.L1584:
	.align	2
.L1583:
	.word	.LANCHOR0
	.word	.LANCHOR1+3260
	.word	.LC0
	.fnend
	.size	get_h265_cb_qp_offset, .-get_h265_cb_qp_offset
	.align	1
	.global	set_h265_cr_qp_offset
	.syntax unified
	.thumb
	.thumb_func
	.fpu softvfp
	.type	set_h265_cr_qp_offset, %function
set_h265_cr_qp_offset:
	.fnstart
	@ args = 0, pretend = 0, frame = 8
	@ frame_needed = 0, uses_anonymous_args = 0
	ldr	r3, .L1594
	push	{r0, r1, r2, r4, r5, r6, r7, lr}
	.save {r4, r5, r6, r7, lr}
	.pad #12
	mov	r6, r0
	ldr	r3, [r3]
	mov	r7, r1
	str	r2, [sp, #4]
	lsls	r3, r3, #31
	bpl	.L1586
	movs	r2, #242
	ldr	r1, .L1594+4
	ldr	r0, .L1594+8
	bl	printk
.L1586:
	ldrh	r5, [r7, #4]
	add	r1, sp, #4
	ldrh	r4, [r7, #6]
	lsrs	r5, r5, #4
	add	r4, r4, r6
	mov	r2, r5
	mov	r0, r4
	bl	memcmp
	cbz	r0, .L1587
	mov	r2, r5
	add	r1, sp, #4
	mov	r0, r4
	bl	memcpy
	ldrh	r2, [r7, #10]
	ldr	r3, [r6, r2]
	orr	r3, r3, #16384
	str	r3, [r6, r2]
.L1587:
	movs	r0, #0
	add	sp, sp, #12
	@ sp needed
	pop	{r4, r5, r6, r7, pc}
.L1595:
	.align	2
.L1594:
	.word	.LANCHOR0
	.word	.LANCHOR1+3282
	.word	.LC0
	.fnend
	.size	set_h265_cr_qp_offset, .-set_h265_cr_qp_offset
	.align	1
	.global	get_h265_cr_qp_offset
	.syntax unified
	.thumb
	.thumb_func
	.fpu softvfp
	.type	get_h265_cr_qp_offset, %function
get_h265_cr_qp_offset:
	.fnstart
	@ args = 0, pretend = 0, frame = 0
	@ frame_needed = 0, uses_anonymous_args = 0
	ldr	r3, .L1601
	push	{r4, r5, r6, lr}
	.save {r4, r5, r6, lr}
	mov	r6, r0
	ldr	r3, [r3]
	mov	r4, r1
	mov	r5, r2
	lsls	r3, r3, #31
	bpl	.L1597
	movs	r2, #242
	ldr	r1, .L1601+4
	ldr	r0, .L1601+8
	bl	printk
.L1597:
	ldrh	r2, [r4, #4]
	mov	r0, r5
	ldrh	r1, [r4, #6]
	lsrs	r2, r2, #4
	add	r1, r1, r6
	bl	memcpy
	movs	r0, #0
	pop	{r4, r5, r6, pc}
.L1602:
	.align	2
.L1601:
	.word	.LANCHOR0
	.word	.LANCHOR1+3304
	.word	.LC0
	.fnend
	.size	get_h265_cr_qp_offset, .-get_h265_cr_qp_offset
	.align	1
	.global	set_h265_dblk_disable
	.syntax unified
	.thumb
	.thumb_func
	.fpu softvfp
	.type	set_h265_dblk_disable, %function
set_h265_dblk_disable:
	.fnstart
	@ args = 0, pretend = 0, frame = 8
	@ frame_needed = 0, uses_anonymous_args = 0
	ldr	r3, .L1612
	push	{r0, r1, r2, r4, r5, r6, r7, lr}
	.save {r4, r5, r6, r7, lr}
	.pad #12
	mov	r6, r0
	ldr	r3, [r3]
	mov	r7, r1
	str	r2, [sp, #4]
	lsls	r3, r3, #31
	bpl	.L1604
	movs	r2, #242
	ldr	r1, .L1612+4
	ldr	r0, .L1612+8
	bl	printk
.L1604:
	ldrh	r5, [r7, #4]
	add	r1, sp, #4
	ldrh	r4, [r7, #6]
	lsrs	r5, r5, #4
	add	r4, r4, r6
	mov	r2, r5
	mov	r0, r4
	bl	memcmp
	cbz	r0, .L1605
	mov	r2, r5
	add	r1, sp, #4
	mov	r0, r4
	bl	memcpy
	ldrh	r2, [r7, #10]
	ldr	r3, [r6, r2]
	orr	r3, r3, #4096
	str	r3, [r6, r2]
.L1605:
	movs	r0, #0
	add	sp, sp, #12
	@ sp needed
	pop	{r4, r5, r6, r7, pc}
.L1613:
	.align	2
.L1612:
	.word	.LANCHOR0
	.word	.LANCHOR1+3326
	.word	.LC0
	.fnend
	.size	set_h265_dblk_disable, .-set_h265_dblk_disable
	.align	1
	.global	get_h265_dblk_disable
	.syntax unified
	.thumb
	.thumb_func
	.fpu softvfp
	.type	get_h265_dblk_disable, %function
get_h265_dblk_disable:
	.fnstart
	@ args = 0, pretend = 0, frame = 0
	@ frame_needed = 0, uses_anonymous_args = 0
	ldr	r3, .L1619
	push	{r4, r5, r6, lr}
	.save {r4, r5, r6, lr}
	mov	r6, r0
	ldr	r3, [r3]
	mov	r4, r1
	mov	r5, r2
	lsls	r3, r3, #31
	bpl	.L1615
	movs	r2, #242
	ldr	r1, .L1619+4
	ldr	r0, .L1619+8
	bl	printk
.L1615:
	ldrh	r2, [r4, #4]
	mov	r0, r5
	ldrh	r1, [r4, #6]
	lsrs	r2, r2, #4
	add	r1, r1, r6
	bl	memcpy
	movs	r0, #0
	pop	{r4, r5, r6, pc}
.L1620:
	.align	2
.L1619:
	.word	.LANCHOR0
	.word	.LANCHOR1+3348
	.word	.LC0
	.fnend
	.size	get_h265_dblk_disable, .-get_h265_dblk_disable
	.align	1
	.global	set_h265_dblk_alpha
	.syntax unified
	.thumb
	.thumb_func
	.fpu softvfp
	.type	set_h265_dblk_alpha, %function
set_h265_dblk_alpha:
	.fnstart
	@ args = 0, pretend = 0, frame = 8
	@ frame_needed = 0, uses_anonymous_args = 0
	ldr	r3, .L1630
	push	{r0, r1, r2, r4, r5, r6, r7, lr}
	.save {r4, r5, r6, r7, lr}
	.pad #12
	mov	r6, r0
	ldr	r3, [r3]
	mov	r7, r1
	str	r2, [sp, #4]
	lsls	r3, r3, #31
	bpl	.L1622
	movs	r2, #242
	ldr	r1, .L1630+4
	ldr	r0, .L1630+8
	bl	printk
.L1622:
	ldrh	r5, [r7, #4]
	add	r1, sp, #4
	ldrh	r4, [r7, #6]
	lsrs	r5, r5, #4
	add	r4, r4, r6
	mov	r2, r5
	mov	r0, r4
	bl	memcmp
	cbz	r0, .L1623
	mov	r2, r5
	add	r1, sp, #4
	mov	r0, r4
	bl	memcpy
	ldrh	r2, [r7, #10]
	ldr	r3, [r6, r2]
	orr	r3, r3, #4096
	str	r3, [r6, r2]
.L1623:
	movs	r0, #0
	add	sp, sp, #12
	@ sp needed
	pop	{r4, r5, r6, r7, pc}
.L1631:
	.align	2
.L1630:
	.word	.LANCHOR0
	.word	.LANCHOR1+3370
	.word	.LC0
	.fnend
	.size	set_h265_dblk_alpha, .-set_h265_dblk_alpha
	.align	1
	.global	get_h265_dblk_alpha
	.syntax unified
	.thumb
	.thumb_func
	.fpu softvfp
	.type	get_h265_dblk_alpha, %function
get_h265_dblk_alpha:
	.fnstart
	@ args = 0, pretend = 0, frame = 0
	@ frame_needed = 0, uses_anonymous_args = 0
	ldr	r3, .L1637
	push	{r4, r5, r6, lr}
	.save {r4, r5, r6, lr}
	mov	r6, r0
	ldr	r3, [r3]
	mov	r4, r1
	mov	r5, r2
	lsls	r3, r3, #31
	bpl	.L1633
	movs	r2, #242
	ldr	r1, .L1637+4
	ldr	r0, .L1637+8
	bl	printk
.L1633:
	ldrh	r2, [r4, #4]
	mov	r0, r5
	ldrh	r1, [r4, #6]
	lsrs	r2, r2, #4
	add	r1, r1, r6
	bl	memcpy
	movs	r0, #0
	pop	{r4, r5, r6, pc}
.L1638:
	.align	2
.L1637:
	.word	.LANCHOR0
	.word	.LANCHOR1+3390
	.word	.LC0
	.fnend
	.size	get_h265_dblk_alpha, .-get_h265_dblk_alpha
	.align	1
	.global	set_h265_dblk_beta
	.syntax unified
	.thumb
	.thumb_func
	.fpu softvfp
	.type	set_h265_dblk_beta, %function
set_h265_dblk_beta:
	.fnstart
	@ args = 0, pretend = 0, frame = 8
	@ frame_needed = 0, uses_anonymous_args = 0
	ldr	r3, .L1648
	push	{r0, r1, r2, r4, r5, r6, r7, lr}
	.save {r4, r5, r6, r7, lr}
	.pad #12
	mov	r6, r0
	ldr	r3, [r3]
	mov	r7, r1
	str	r2, [sp, #4]
	lsls	r3, r3, #31
	bpl	.L1640
	movs	r2, #242
	ldr	r1, .L1648+4
	ldr	r0, .L1648+8
	bl	printk
.L1640:
	ldrh	r5, [r7, #4]
	add	r1, sp, #4
	ldrh	r4, [r7, #6]
	lsrs	r5, r5, #4
	add	r4, r4, r6
	mov	r2, r5
	mov	r0, r4
	bl	memcmp
	cbz	r0, .L1641
	mov	r2, r5
	add	r1, sp, #4
	mov	r0, r4
	bl	memcpy
	ldrh	r2, [r7, #10]
	ldr	r3, [r6, r2]
	orr	r3, r3, #4096
	str	r3, [r6, r2]
.L1641:
	movs	r0, #0
	add	sp, sp, #12
	@ sp needed
	pop	{r4, r5, r6, r7, pc}
.L1649:
	.align	2
.L1648:
	.word	.LANCHOR0
	.word	.LANCHOR1+3410
	.word	.LC0
	.fnend
	.size	set_h265_dblk_beta, .-set_h265_dblk_beta
	.align	1
	.global	get_h265_dblk_beta
	.syntax unified
	.thumb
	.thumb_func
	.fpu softvfp
	.type	get_h265_dblk_beta, %function
get_h265_dblk_beta:
	.fnstart
	@ args = 0, pretend = 0, frame = 0
	@ frame_needed = 0, uses_anonymous_args = 0
	ldr	r3, .L1655
	push	{r4, r5, r6, lr}
	.save {r4, r5, r6, lr}
	mov	r6, r0
	ldr	r3, [r3]
	mov	r4, r1
	mov	r5, r2
	lsls	r3, r3, #31
	bpl	.L1651
	movs	r2, #242
	ldr	r1, .L1655+4
	ldr	r0, .L1655+8
	bl	printk
.L1651:
	ldrh	r2, [r4, #4]
	mov	r0, r5
	ldrh	r1, [r4, #6]
	lsrs	r2, r2, #4
	add	r1, r1, r6
	bl	memcpy
	movs	r0, #0
	pop	{r4, r5, r6, pc}
.L1656:
	.align	2
.L1655:
	.word	.LANCHOR0
	.word	.LANCHOR1+3429
	.word	.LC0
	.fnend
	.size	get_h265_dblk_beta, .-get_h265_dblk_beta
	.align	1
	.global	set_h265_qp_init
	.syntax unified
	.thumb
	.thumb_func
	.fpu softvfp
	.type	set_h265_qp_init, %function
set_h265_qp_init:
	.fnstart
	@ args = 0, pretend = 0, frame = 8
	@ frame_needed = 0, uses_anonymous_args = 0
	ldr	r3, .L1666
	push	{r0, r1, r2, r4, r5, r6, r7, lr}
	.save {r4, r5, r6, r7, lr}
	.pad #12
	mov	r6, r0
	ldr	r3, [r3]
	mov	r7, r1
	str	r2, [sp, #4]
	lsls	r3, r3, #31
	bpl	.L1658
	movs	r2, #242
	ldr	r1, .L1666+4
	ldr	r0, .L1666+8
	bl	printk
.L1658:
	ldrh	r5, [r7, #4]
	add	r1, sp, #4
	ldrh	r4, [r7, #6]
	lsrs	r5, r5, #4
	add	r4, r4, r6
	mov	r2, r5
	mov	r0, r4
	bl	memcmp
	cbz	r0, .L1659
	mov	r2, r5
	add	r1, sp, #4
	mov	r0, r4
	bl	memcpy
	ldrh	r2, [r7, #10]
	ldr	r3, [r6, r2]
	orr	r3, r3, #65536
	str	r3, [r6, r2]
.L1659:
	movs	r0, #0
	add	sp, sp, #12
	@ sp needed
	pop	{r4, r5, r6, r7, pc}
.L1667:
	.align	2
.L1666:
	.word	.LANCHOR0
	.word	.LANCHOR1+3448
	.word	.LC0
	.fnend
	.size	set_h265_qp_init, .-set_h265_qp_init
	.align	1
	.global	get_h265_qp_init
	.syntax unified
	.thumb
	.thumb_func
	.fpu softvfp
	.type	get_h265_qp_init, %function
get_h265_qp_init:
	.fnstart
	@ args = 0, pretend = 0, frame = 0
	@ frame_needed = 0, uses_anonymous_args = 0
	ldr	r3, .L1673
	push	{r4, r5, r6, lr}
	.save {r4, r5, r6, lr}
	mov	r6, r0
	ldr	r3, [r3]
	mov	r4, r1
	mov	r5, r2
	lsls	r3, r3, #31
	bpl	.L1669
	movs	r2, #242
	ldr	r1, .L1673+4
	ldr	r0, .L1673+8
	bl	printk
.L1669:
	ldrh	r2, [r4, #4]
	mov	r0, r5
	ldrh	r1, [r4, #6]
	lsrs	r2, r2, #4
	add	r1, r1, r6
	bl	memcpy
	movs	r0, #0
	pop	{r4, r5, r6, pc}
.L1674:
	.align	2
.L1673:
	.word	.LANCHOR0
	.word	.LANCHOR1+3465
	.word	.LC0
	.fnend
	.size	get_h265_qp_init, .-get_h265_qp_init
	.align	1
	.global	set_h265_qp_min
	.syntax unified
	.thumb
	.thumb_func
	.fpu softvfp
	.type	set_h265_qp_min, %function
set_h265_qp_min:
	.fnstart
	@ args = 0, pretend = 0, frame = 8
	@ frame_needed = 0, uses_anonymous_args = 0
	ldr	r3, .L1684
	push	{r0, r1, r2, r4, r5, r6, r7, lr}
	.save {r4, r5, r6, r7, lr}
	.pad #12
	mov	r6, r0
	ldr	r3, [r3]
	mov	r7, r1
	str	r2, [sp, #4]
	lsls	r3, r3, #31
	bpl	.L1676
	movs	r2, #242
	ldr	r1, .L1684+4
	ldr	r0, .L1684+8
	bl	printk
.L1676:
	ldrh	r5, [r7, #4]
	add	r1, sp, #4
	ldrh	r4, [r7, #6]
	lsrs	r5, r5, #4
	add	r4, r4, r6
	mov	r2, r5
	mov	r0, r4
	bl	memcmp
	cbz	r0, .L1677
	mov	r2, r5
	add	r1, sp, #4
	mov	r0, r4
	bl	memcpy
	ldrh	r2, [r7, #10]
	ldr	r3, [r6, r2]
	orr	r3, r3, #131072
	str	r3, [r6, r2]
.L1677:
	movs	r0, #0
	add	sp, sp, #12
	@ sp needed
	pop	{r4, r5, r6, r7, pc}
.L1685:
	.align	2
.L1684:
	.word	.LANCHOR0
	.word	.LANCHOR1+3482
	.word	.LC0
	.fnend
	.size	set_h265_qp_min, .-set_h265_qp_min
	.align	1
	.global	get_h265_qp_min
	.syntax unified
	.thumb
	.thumb_func
	.fpu softvfp
	.type	get_h265_qp_min, %function
get_h265_qp_min:
	.fnstart
	@ args = 0, pretend = 0, frame = 0
	@ frame_needed = 0, uses_anonymous_args = 0
	ldr	r3, .L1691
	push	{r4, r5, r6, lr}
	.save {r4, r5, r6, lr}
	mov	r6, r0
	ldr	r3, [r3]
	mov	r4, r1
	mov	r5, r2
	lsls	r3, r3, #31
	bpl	.L1687
	movs	r2, #242
	ldr	r1, .L1691+4
	ldr	r0, .L1691+8
	bl	printk
.L1687:
	ldrh	r2, [r4, #4]
	mov	r0, r5
	ldrh	r1, [r4, #6]
	lsrs	r2, r2, #4
	add	r1, r1, r6
	bl	memcpy
	movs	r0, #0
	pop	{r4, r5, r6, pc}
.L1692:
	.align	2
.L1691:
	.word	.LANCHOR0
	.word	.LANCHOR1+3498
	.word	.LC0
	.fnend
	.size	get_h265_qp_min, .-get_h265_qp_min
	.align	1
	.global	set_h265_qp_max
	.syntax unified
	.thumb
	.thumb_func
	.fpu softvfp
	.type	set_h265_qp_max, %function
set_h265_qp_max:
	.fnstart
	@ args = 0, pretend = 0, frame = 8
	@ frame_needed = 0, uses_anonymous_args = 0
	ldr	r3, .L1702
	push	{r0, r1, r2, r4, r5, r6, r7, lr}
	.save {r4, r5, r6, r7, lr}
	.pad #12
	mov	r6, r0
	ldr	r3, [r3]
	mov	r7, r1
	str	r2, [sp, #4]
	lsls	r3, r3, #31
	bpl	.L1694
	movs	r2, #242
	ldr	r1, .L1702+4
	ldr	r0, .L1702+8
	bl	printk
.L1694:
	ldrh	r5, [r7, #4]
	add	r1, sp, #4
	ldrh	r4, [r7, #6]
	lsrs	r5, r5, #4
	add	r4, r4, r6
	mov	r2, r5
	mov	r0, r4
	bl	memcmp
	cbz	r0, .L1695
	mov	r2, r5
	add	r1, sp, #4
	mov	r0, r4
	bl	memcpy
	ldrh	r2, [r7, #10]
	ldr	r3, [r6, r2]
	orr	r3, r3, #131072
	str	r3, [r6, r2]
.L1695:
	movs	r0, #0
	add	sp, sp, #12
	@ sp needed
	pop	{r4, r5, r6, r7, pc}
.L1703:
	.align	2
.L1702:
	.word	.LANCHOR0
	.word	.LANCHOR1+3514
	.word	.LC0
	.fnend
	.size	set_h265_qp_max, .-set_h265_qp_max
	.align	1
	.global	get_h265_qp_max
	.syntax unified
	.thumb
	.thumb_func
	.fpu softvfp
	.type	get_h265_qp_max, %function
get_h265_qp_max:
	.fnstart
	@ args = 0, pretend = 0, frame = 0
	@ frame_needed = 0, uses_anonymous_args = 0
	ldr	r3, .L1709
	push	{r4, r5, r6, lr}
	.save {r4, r5, r6, lr}
	mov	r6, r0
	ldr	r3, [r3]
	mov	r4, r1
	mov	r5, r2
	lsls	r3, r3, #31
	bpl	.L1705
	movs	r2, #242
	ldr	r1, .L1709+4
	ldr	r0, .L1709+8
	bl	printk
.L1705:
	ldrh	r2, [r4, #4]
	mov	r0, r5
	ldrh	r1, [r4, #6]
	lsrs	r2, r2, #4
	add	r1, r1, r6
	bl	memcpy
	movs	r0, #0
	pop	{r4, r5, r6, pc}
.L1710:
	.align	2
.L1709:
	.word	.LANCHOR0
	.word	.LANCHOR1+3530
	.word	.LC0
	.fnend
	.size	get_h265_qp_max, .-get_h265_qp_max
	.align	1
	.global	set_h265_qp_min_i
	.syntax unified
	.thumb
	.thumb_func
	.fpu softvfp
	.type	set_h265_qp_min_i, %function
set_h265_qp_min_i:
	.fnstart
	@ args = 0, pretend = 0, frame = 8
	@ frame_needed = 0, uses_anonymous_args = 0
	ldr	r3, .L1720
	push	{r0, r1, r2, r4, r5, r6, r7, lr}
	.save {r4, r5, r6, r7, lr}
	.pad #12
	mov	r6, r0
	ldr	r3, [r3]
	mov	r7, r1
	str	r2, [sp, #4]
	lsls	r3, r3, #31
	bpl	.L1712
	movs	r2, #242
	ldr	r1, .L1720+4
	ldr	r0, .L1720+8
	bl	printk
.L1712:
	ldrh	r5, [r7, #4]
	add	r1, sp, #4
	ldrh	r4, [r7, #6]
	lsrs	r5, r5, #4
	add	r4, r4, r6
	mov	r2, r5
	mov	r0, r4
	bl	memcmp
	cbz	r0, .L1713
	mov	r2, r5
	add	r1, sp, #4
	mov	r0, r4
	bl	memcpy
	ldrh	r2, [r7, #10]
	ldr	r3, [r6, r2]
	orr	r3, r3, #262144
	str	r3, [r6, r2]
.L1713:
	movs	r0, #0
	add	sp, sp, #12
	@ sp needed
	pop	{r4, r5, r6, r7, pc}
.L1721:
	.align	2
.L1720:
	.word	.LANCHOR0
	.word	.LANCHOR1+3546
	.word	.LC0
	.fnend
	.size	set_h265_qp_min_i, .-set_h265_qp_min_i
	.align	1
	.global	get_h265_qp_min_i
	.syntax unified
	.thumb
	.thumb_func
	.fpu softvfp
	.type	get_h265_qp_min_i, %function
get_h265_qp_min_i:
	.fnstart
	@ args = 0, pretend = 0, frame = 0
	@ frame_needed = 0, uses_anonymous_args = 0
	ldr	r3, .L1727
	push	{r4, r5, r6, lr}
	.save {r4, r5, r6, lr}
	mov	r6, r0
	ldr	r3, [r3]
	mov	r4, r1
	mov	r5, r2
	lsls	r3, r3, #31
	bpl	.L1723
	movs	r2, #242
	ldr	r1, .L1727+4
	ldr	r0, .L1727+8
	bl	printk
.L1723:
	ldrh	r2, [r4, #4]
	mov	r0, r5
	ldrh	r1, [r4, #6]
	lsrs	r2, r2, #4
	add	r1, r1, r6
	bl	memcpy
	movs	r0, #0
	pop	{r4, r5, r6, pc}
.L1728:
	.align	2
.L1727:
	.word	.LANCHOR0
	.word	.LANCHOR1+3564
	.word	.LC0
	.fnend
	.size	get_h265_qp_min_i, .-get_h265_qp_min_i
	.align	1
	.global	set_h265_qp_max_i
	.syntax unified
	.thumb
	.thumb_func
	.fpu softvfp
	.type	set_h265_qp_max_i, %function
set_h265_qp_max_i:
	.fnstart
	@ args = 0, pretend = 0, frame = 8
	@ frame_needed = 0, uses_anonymous_args = 0
	ldr	r3, .L1738
	push	{r0, r1, r2, r4, r5, r6, r7, lr}
	.save {r4, r5, r6, r7, lr}
	.pad #12
	mov	r6, r0
	ldr	r3, [r3]
	mov	r7, r1
	str	r2, [sp, #4]
	lsls	r3, r3, #31
	bpl	.L1730
	movs	r2, #242
	ldr	r1, .L1738+4
	ldr	r0, .L1738+8
	bl	printk
.L1730:
	ldrh	r5, [r7, #4]
	add	r1, sp, #4
	ldrh	r4, [r7, #6]
	lsrs	r5, r5, #4
	add	r4, r4, r6
	mov	r2, r5
	mov	r0, r4
	bl	memcmp
	cbz	r0, .L1731
	mov	r2, r5
	add	r1, sp, #4
	mov	r0, r4
	bl	memcpy
	ldrh	r2, [r7, #10]
	ldr	r3, [r6, r2]
	orr	r3, r3, #262144
	str	r3, [r6, r2]
.L1731:
	movs	r0, #0
	add	sp, sp, #12
	@ sp needed
	pop	{r4, r5, r6, r7, pc}
.L1739:
	.align	2
.L1738:
	.word	.LANCHOR0
	.word	.LANCHOR1+3582
	.word	.LC0
	.fnend
	.size	set_h265_qp_max_i, .-set_h265_qp_max_i
	.align	1
	.global	get_h265_qp_max_i
	.syntax unified
	.thumb
	.thumb_func
	.fpu softvfp
	.type	get_h265_qp_max_i, %function
get_h265_qp_max_i:
	.fnstart
	@ args = 0, pretend = 0, frame = 0
	@ frame_needed = 0, uses_anonymous_args = 0
	ldr	r3, .L1745
	push	{r4, r5, r6, lr}
	.save {r4, r5, r6, lr}
	mov	r6, r0
	ldr	r3, [r3]
	mov	r4, r1
	mov	r5, r2
	lsls	r3, r3, #31
	bpl	.L1741
	movs	r2, #242
	ldr	r1, .L1745+4
	ldr	r0, .L1745+8
	bl	printk
.L1741:
	ldrh	r2, [r4, #4]
	mov	r0, r5
	ldrh	r1, [r4, #6]
	lsrs	r2, r2, #4
	add	r1, r1, r6
	bl	memcpy
	movs	r0, #0
	pop	{r4, r5, r6, pc}
.L1746:
	.align	2
.L1745:
	.word	.LANCHOR0
	.word	.LANCHOR1+3600
	.word	.LC0
	.fnend
	.size	get_h265_qp_max_i, .-get_h265_qp_max_i
	.align	1
	.global	set_h265_qp_step
	.syntax unified
	.thumb
	.thumb_func
	.fpu softvfp
	.type	set_h265_qp_step, %function
set_h265_qp_step:
	.fnstart
	@ args = 0, pretend = 0, frame = 8
	@ frame_needed = 0, uses_anonymous_args = 0
	ldr	r3, .L1756
	push	{r0, r1, r2, r4, r5, r6, r7, lr}
	.save {r4, r5, r6, r7, lr}
	.pad #12
	mov	r6, r0
	ldr	r3, [r3]
	mov	r7, r1
	str	r2, [sp, #4]
	lsls	r3, r3, #31
	bpl	.L1748
	movs	r2, #242
	ldr	r1, .L1756+4
	ldr	r0, .L1756+8
	bl	printk
.L1748:
	ldrh	r5, [r7, #4]
	add	r1, sp, #4
	ldrh	r4, [r7, #6]
	lsrs	r5, r5, #4
	add	r4, r4, r6
	mov	r2, r5
	mov	r0, r4
	bl	memcmp
	cbz	r0, .L1749
	mov	r2, r5
	add	r1, sp, #4
	mov	r0, r4
	bl	memcpy
	ldrh	r2, [r7, #10]
	ldr	r3, [r6, r2]
	orr	r3, r3, #524288
	str	r3, [r6, r2]
.L1749:
	movs	r0, #0
	add	sp, sp, #12
	@ sp needed
	pop	{r4, r5, r6, r7, pc}
.L1757:
	.align	2
.L1756:
	.word	.LANCHOR0
	.word	.LANCHOR1+3618
	.word	.LC0
	.fnend
	.size	set_h265_qp_step, .-set_h265_qp_step
	.align	1
	.global	get_h265_qp_step
	.syntax unified
	.thumb
	.thumb_func
	.fpu softvfp
	.type	get_h265_qp_step, %function
get_h265_qp_step:
	.fnstart
	@ args = 0, pretend = 0, frame = 0
	@ frame_needed = 0, uses_anonymous_args = 0
	ldr	r3, .L1763
	push	{r4, r5, r6, lr}
	.save {r4, r5, r6, lr}
	mov	r6, r0
	ldr	r3, [r3]
	mov	r4, r1
	mov	r5, r2
	lsls	r3, r3, #31
	bpl	.L1759
	movs	r2, #242
	ldr	r1, .L1763+4
	ldr	r0, .L1763+8
	bl	printk
.L1759:
	ldrh	r2, [r4, #4]
	mov	r0, r5
	ldrh	r1, [r4, #6]
	lsrs	r2, r2, #4
	add	r1, r1, r6
	bl	memcpy
	movs	r0, #0
	pop	{r4, r5, r6, pc}
.L1764:
	.align	2
.L1763:
	.word	.LANCHOR0
	.word	.LANCHOR1+3635
	.word	.LC0
	.fnend
	.size	get_h265_qp_step, .-get_h265_qp_step
	.align	1
	.global	set_h265_qp_delta_ip
	.syntax unified
	.thumb
	.thumb_func
	.fpu softvfp
	.type	set_h265_qp_delta_ip, %function
set_h265_qp_delta_ip:
	.fnstart
	@ args = 0, pretend = 0, frame = 8
	@ frame_needed = 0, uses_anonymous_args = 0
	ldr	r3, .L1774
	push	{r0, r1, r2, r4, r5, r6, r7, lr}
	.save {r4, r5, r6, r7, lr}
	.pad #12
	mov	r6, r0
	ldr	r3, [r3]
	mov	r7, r1
	str	r2, [sp, #4]
	lsls	r3, r3, #31
	bpl	.L1766
	movs	r2, #242
	ldr	r1, .L1774+4
	ldr	r0, .L1774+8
	bl	printk
.L1766:
	ldrh	r5, [r7, #4]
	add	r1, sp, #4
	ldrh	r4, [r7, #6]
	lsrs	r5, r5, #4
	add	r4, r4, r6
	mov	r2, r5
	mov	r0, r4
	bl	memcmp
	cbz	r0, .L1767
	mov	r2, r5
	add	r1, sp, #4
	mov	r0, r4
	bl	memcpy
	ldrh	r2, [r7, #10]
	ldr	r3, [r6, r2]
	orr	r3, r3, #1048576
	str	r3, [r6, r2]
.L1767:
	movs	r0, #0
	add	sp, sp, #12
	@ sp needed
	pop	{r4, r5, r6, r7, pc}
.L1775:
	.align	2
.L1774:
	.word	.LANCHOR0
	.word	.LANCHOR1+3652
	.word	.LC0
	.fnend
	.size	set_h265_qp_delta_ip, .-set_h265_qp_delta_ip
	.align	1
	.global	get_h265_qp_delta_ip
	.syntax unified
	.thumb
	.thumb_func
	.fpu softvfp
	.type	get_h265_qp_delta_ip, %function
get_h265_qp_delta_ip:
	.fnstart
	@ args = 0, pretend = 0, frame = 0
	@ frame_needed = 0, uses_anonymous_args = 0
	ldr	r3, .L1781
	push	{r4, r5, r6, lr}
	.save {r4, r5, r6, lr}
	mov	r6, r0
	ldr	r3, [r3]
	mov	r4, r1
	mov	r5, r2
	lsls	r3, r3, #31
	bpl	.L1777
	movs	r2, #242
	ldr	r1, .L1781+4
	ldr	r0, .L1781+8
	bl	printk
.L1777:
	ldrh	r2, [r4, #4]
	mov	r0, r5
	ldrh	r1, [r4, #6]
	lsrs	r2, r2, #4
	add	r1, r1, r6
	bl	memcpy
	movs	r0, #0
	pop	{r4, r5, r6, pc}
.L1782:
	.align	2
.L1781:
	.word	.LANCHOR0
	.word	.LANCHOR1+3673
	.word	.LC0
	.fnend
	.size	get_h265_qp_delta_ip, .-get_h265_qp_delta_ip
	.align	1
	.global	set_h265_sao_luma_disable
	.syntax unified
	.thumb
	.thumb_func
	.fpu softvfp
	.type	set_h265_sao_luma_disable, %function
set_h265_sao_luma_disable:
	.fnstart
	@ args = 0, pretend = 0, frame = 8
	@ frame_needed = 0, uses_anonymous_args = 0
	ldr	r3, .L1792
	push	{r0, r1, r2, r4, r5, r6, r7, lr}
	.save {r4, r5, r6, r7, lr}
	.pad #12
	mov	r6, r0
	ldr	r3, [r3]
	mov	r7, r1
	str	r2, [sp, #4]
	lsls	r3, r3, #31
	bpl	.L1784
	movs	r2, #242
	ldr	r1, .L1792+4
	ldr	r0, .L1792+8
	bl	printk
.L1784:
	ldrh	r5, [r7, #4]
	add	r1, sp, #4
	ldrh	r4, [r7, #6]
	lsrs	r5, r5, #4
	add	r4, r4, r6
	mov	r2, r5
	mov	r0, r4
	bl	memcmp
	cbz	r0, .L1785
	mov	r2, r5
	add	r1, sp, #4
	mov	r0, r4
	bl	memcpy
	ldrh	r2, [r7, #10]
	ldr	r3, [r6, r2]
	orr	r3, r3, #8192
	str	r3, [r6, r2]
.L1785:
	movs	r0, #0
	add	sp, sp, #12
	@ sp needed
	pop	{r4, r5, r6, r7, pc}
.L1793:
	.align	2
.L1792:
	.word	.LANCHOR0
	.word	.LANCHOR1+3694
	.word	.LC0
	.fnend
	.size	set_h265_sao_luma_disable, .-set_h265_sao_luma_disable
	.align	1
	.global	get_h265_sao_luma_disable
	.syntax unified
	.thumb
	.thumb_func
	.fpu softvfp
	.type	get_h265_sao_luma_disable, %function
get_h265_sao_luma_disable:
	.fnstart
	@ args = 0, pretend = 0, frame = 0
	@ frame_needed = 0, uses_anonymous_args = 0
	ldr	r3, .L1799
	push	{r4, r5, r6, lr}
	.save {r4, r5, r6, lr}
	mov	r6, r0
	ldr	r3, [r3]
	mov	r4, r1
	mov	r5, r2
	lsls	r3, r3, #31
	bpl	.L1795
	movs	r2, #242
	ldr	r1, .L1799+4
	ldr	r0, .L1799+8
	bl	printk
.L1795:
	ldrh	r2, [r4, #4]
	mov	r0, r5
	ldrh	r1, [r4, #6]
	lsrs	r2, r2, #4
	add	r1, r1, r6
	bl	memcpy
	movs	r0, #0
	pop	{r4, r5, r6, pc}
.L1800:
	.align	2
.L1799:
	.word	.LANCHOR0
	.word	.LANCHOR1+3720
	.word	.LC0
	.fnend
	.size	get_h265_sao_luma_disable, .-get_h265_sao_luma_disable
	.align	1
	.global	set_h265_sao_chroma_disable
	.syntax unified
	.thumb
	.thumb_func
	.fpu softvfp
	.type	set_h265_sao_chroma_disable, %function
set_h265_sao_chroma_disable:
	.fnstart
	@ args = 0, pretend = 0, frame = 8
	@ frame_needed = 0, uses_anonymous_args = 0
	ldr	r3, .L1810
	push	{r0, r1, r2, r4, r5, r6, r7, lr}
	.save {r4, r5, r6, r7, lr}
	.pad #12
	mov	r6, r0
	ldr	r3, [r3]
	mov	r7, r1
	str	r2, [sp, #4]
	lsls	r3, r3, #31
	bpl	.L1802
	movs	r2, #242
	ldr	r1, .L1810+4
	ldr	r0, .L1810+8
	bl	printk
.L1802:
	ldrh	r5, [r7, #4]
	add	r1, sp, #4
	ldrh	r4, [r7, #6]
	lsrs	r5, r5, #4
	add	r4, r4, r6
	mov	r2, r5
	mov	r0, r4
	bl	memcmp
	cbz	r0, .L1803
	mov	r2, r5
	add	r1, sp, #4
	mov	r0, r4
	bl	memcpy
	ldrh	r2, [r7, #10]
	ldr	r3, [r6, r2]
	orr	r3, r3, #8192
	str	r3, [r6, r2]
.L1803:
	movs	r0, #0
	add	sp, sp, #12
	@ sp needed
	pop	{r4, r5, r6, r7, pc}
.L1811:
	.align	2
.L1810:
	.word	.LANCHOR0
	.word	.LANCHOR1+3746
	.word	.LC0
	.fnend
	.size	set_h265_sao_chroma_disable, .-set_h265_sao_chroma_disable
	.align	1
	.global	get_h265_sao_chroma_disable
	.syntax unified
	.thumb
	.thumb_func
	.fpu softvfp
	.type	get_h265_sao_chroma_disable, %function
get_h265_sao_chroma_disable:
	.fnstart
	@ args = 0, pretend = 0, frame = 0
	@ frame_needed = 0, uses_anonymous_args = 0
	ldr	r3, .L1817
	push	{r4, r5, r6, lr}
	.save {r4, r5, r6, lr}
	mov	r6, r0
	ldr	r3, [r3]
	mov	r4, r1
	mov	r5, r2
	lsls	r3, r3, #31
	bpl	.L1813
	movs	r2, #242
	ldr	r1, .L1817+4
	ldr	r0, .L1817+8
	bl	printk
.L1813:
	ldrh	r2, [r4, #4]
	mov	r0, r5
	ldrh	r1, [r4, #6]
	lsrs	r2, r2, #4
	add	r1, r1, r6
	bl	memcpy
	movs	r0, #0
	pop	{r4, r5, r6, pc}
.L1818:
	.align	2
.L1817:
	.word	.LANCHOR0
	.word	.LANCHOR1+3774
	.word	.LC0
	.fnend
	.size	get_h265_sao_chroma_disable, .-get_h265_sao_chroma_disable
	.align	1
	.global	set_h265_sao_bit_ratio
	.syntax unified
	.thumb
	.thumb_func
	.fpu softvfp
	.type	set_h265_sao_bit_ratio, %function
set_h265_sao_bit_ratio:
	.fnstart
	@ args = 0, pretend = 0, frame = 8
	@ frame_needed = 0, uses_anonymous_args = 0
	ldr	r3, .L1828
	push	{r0, r1, r2, r4, r5, r6, r7, lr}
	.save {r4, r5, r6, r7, lr}
	.pad #12
	mov	r6, r0
	ldr	r3, [r3]
	mov	r7, r1
	str	r2, [sp, #4]
	lsls	r3, r3, #31
	bpl	.L1820
	movs	r2, #242
	ldr	r1, .L1828+4
	ldr	r0, .L1828+8
	bl	printk
.L1820:
	ldrh	r5, [r7, #4]
	add	r1, sp, #4
	ldrh	r4, [r7, #6]
	lsrs	r5, r5, #4
	add	r4, r4, r6
	mov	r2, r5
	mov	r0, r4
	bl	memcmp
	cbz	r0, .L1821
	mov	r2, r5
	add	r1, sp, #4
	mov	r0, r4
	bl	memcpy
	ldrh	r2, [r7, #10]
	ldr	r3, [r6, r2]
	orr	r3, r3, #8192
	str	r3, [r6, r2]
.L1821:
	movs	r0, #0
	add	sp, sp, #12
	@ sp needed
	pop	{r4, r5, r6, r7, pc}
.L1829:
	.align	2
.L1828:
	.word	.LANCHOR0
	.word	.LANCHOR1+3802
	.word	.LC0
	.fnend
	.size	set_h265_sao_bit_ratio, .-set_h265_sao_bit_ratio
	.align	1
	.global	get_h265_sao_bit_ratio
	.syntax unified
	.thumb
	.thumb_func
	.fpu softvfp
	.type	get_h265_sao_bit_ratio, %function
get_h265_sao_bit_ratio:
	.fnstart
	@ args = 0, pretend = 0, frame = 0
	@ frame_needed = 0, uses_anonymous_args = 0
	ldr	r3, .L1835
	push	{r4, r5, r6, lr}
	.save {r4, r5, r6, lr}
	mov	r6, r0
	ldr	r3, [r3]
	mov	r4, r1
	mov	r5, r2
	lsls	r3, r3, #31
	bpl	.L1831
	movs	r2, #242
	ldr	r1, .L1835+4
	ldr	r0, .L1835+8
	bl	printk
.L1831:
	ldrh	r2, [r4, #4]
	mov	r0, r5
	ldrh	r1, [r4, #6]
	lsrs	r2, r2, #4
	add	r1, r1, r6
	bl	memcpy
	movs	r0, #0
	pop	{r4, r5, r6, pc}
.L1836:
	.align	2
.L1835:
	.word	.LANCHOR0
	.word	.LANCHOR1+3825
	.word	.LC0
	.fnend
	.size	get_h265_sao_bit_ratio, .-get_h265_sao_bit_ratio
	.align	1
	.global	set_vp8_qp_init
	.syntax unified
	.thumb
	.thumb_func
	.fpu softvfp
	.type	set_vp8_qp_init, %function
set_vp8_qp_init:
	.fnstart
	@ args = 0, pretend = 0, frame = 8
	@ frame_needed = 0, uses_anonymous_args = 0
	ldr	r3, .L1846
	push	{r0, r1, r2, r4, r5, r6, r7, lr}
	.save {r4, r5, r6, r7, lr}
	.pad #12
	mov	r6, r0
	ldr	r3, [r3]
	mov	r7, r1
	str	r2, [sp, #4]
	lsls	r3, r3, #31
	bpl	.L1838
	movs	r2, #242
	ldr	r1, .L1846+4
	ldr	r0, .L1846+8
	bl	printk
.L1838:
	ldrh	r5, [r7, #4]
	add	r1, sp, #4
	ldrh	r4, [r7, #6]
	lsrs	r5, r5, #4
	add	r4, r4, r6
	mov	r2, r5
	mov	r0, r4
	bl	memcmp
	cbz	r0, .L1839
	mov	r2, r5
	add	r1, sp, #4
	mov	r0, r4
	bl	memcpy
	ldrh	r2, [r7, #10]
	ldr	r3, [r6, r2]
	orr	r3, r3, #65536
	str	r3, [r6, r2]
.L1839:
	movs	r0, #0
	add	sp, sp, #12
	@ sp needed
	pop	{r4, r5, r6, r7, pc}
.L1847:
	.align	2
.L1846:
	.word	.LANCHOR0
	.word	.LANCHOR1+3848
	.word	.LC0
	.fnend
	.size	set_vp8_qp_init, .-set_vp8_qp_init
	.align	1
	.global	get_vp8_qp_init
	.syntax unified
	.thumb
	.thumb_func
	.fpu softvfp
	.type	get_vp8_qp_init, %function
get_vp8_qp_init:
	.fnstart
	@ args = 0, pretend = 0, frame = 0
	@ frame_needed = 0, uses_anonymous_args = 0
	ldr	r3, .L1853
	push	{r4, r5, r6, lr}
	.save {r4, r5, r6, lr}
	mov	r6, r0
	ldr	r3, [r3]
	mov	r4, r1
	mov	r5, r2
	lsls	r3, r3, #31
	bpl	.L1849
	movs	r2, #242
	ldr	r1, .L1853+4
	ldr	r0, .L1853+8
	bl	printk
.L1849:
	ldrh	r2, [r4, #4]
	mov	r0, r5
	ldrh	r1, [r4, #6]
	lsrs	r2, r2, #4
	add	r1, r1, r6
	bl	memcpy
	movs	r0, #0
	pop	{r4, r5, r6, pc}
.L1854:
	.align	2
.L1853:
	.word	.LANCHOR0
	.word	.LANCHOR1+3864
	.word	.LC0
	.fnend
	.size	get_vp8_qp_init, .-get_vp8_qp_init
	.align	1
	.global	set_vp8_qp_min
	.syntax unified
	.thumb
	.thumb_func
	.fpu softvfp
	.type	set_vp8_qp_min, %function
set_vp8_qp_min:
	.fnstart
	@ args = 0, pretend = 0, frame = 8
	@ frame_needed = 0, uses_anonymous_args = 0
	ldr	r3, .L1864
	push	{r0, r1, r2, r4, r5, r6, r7, lr}
	.save {r4, r5, r6, r7, lr}
	.pad #12
	mov	r6, r0
	ldr	r3, [r3]
	mov	r7, r1
	str	r2, [sp, #4]
	lsls	r3, r3, #31
	bpl	.L1856
	movs	r2, #242
	ldr	r1, .L1864+4
	ldr	r0, .L1864+8
	bl	printk
.L1856:
	ldrh	r5, [r7, #4]
	add	r1, sp, #4
	ldrh	r4, [r7, #6]
	lsrs	r5, r5, #4
	add	r4, r4, r6
	mov	r2, r5
	mov	r0, r4
	bl	memcmp
	cbz	r0, .L1857
	mov	r2, r5
	add	r1, sp, #4
	mov	r0, r4
	bl	memcpy
	ldrh	r2, [r7, #10]
	ldr	r3, [r6, r2]
	orr	r3, r3, #131072
	str	r3, [r6, r2]
.L1857:
	movs	r0, #0
	add	sp, sp, #12
	@ sp needed
	pop	{r4, r5, r6, r7, pc}
.L1865:
	.align	2
.L1864:
	.word	.LANCHOR0
	.word	.LANCHOR1+3880
	.word	.LC0
	.fnend
	.size	set_vp8_qp_min, .-set_vp8_qp_min
	.align	1
	.global	get_vp8_qp_min
	.syntax unified
	.thumb
	.thumb_func
	.fpu softvfp
	.type	get_vp8_qp_min, %function
get_vp8_qp_min:
	.fnstart
	@ args = 0, pretend = 0, frame = 0
	@ frame_needed = 0, uses_anonymous_args = 0
	ldr	r3, .L1871
	push	{r4, r5, r6, lr}
	.save {r4, r5, r6, lr}
	mov	r6, r0
	ldr	r3, [r3]
	mov	r4, r1
	mov	r5, r2
	lsls	r3, r3, #31
	bpl	.L1867
	movs	r2, #242
	ldr	r1, .L1871+4
	ldr	r0, .L1871+8
	bl	printk
.L1867:
	ldrh	r2, [r4, #4]
	mov	r0, r5
	ldrh	r1, [r4, #6]
	lsrs	r2, r2, #4
	add	r1, r1, r6
	bl	memcpy
	movs	r0, #0
	pop	{r4, r5, r6, pc}
.L1872:
	.align	2
.L1871:
	.word	.LANCHOR0
	.word	.LANCHOR1+3895
	.word	.LC0
	.fnend
	.size	get_vp8_qp_min, .-get_vp8_qp_min
	.align	1
	.global	set_vp8_qp_max
	.syntax unified
	.thumb
	.thumb_func
	.fpu softvfp
	.type	set_vp8_qp_max, %function
set_vp8_qp_max:
	.fnstart
	@ args = 0, pretend = 0, frame = 8
	@ frame_needed = 0, uses_anonymous_args = 0
	ldr	r3, .L1882
	push	{r0, r1, r2, r4, r5, r6, r7, lr}
	.save {r4, r5, r6, r7, lr}
	.pad #12
	mov	r6, r0
	ldr	r3, [r3]
	mov	r7, r1
	str	r2, [sp, #4]
	lsls	r3, r3, #31
	bpl	.L1874
	movs	r2, #242
	ldr	r1, .L1882+4
	ldr	r0, .L1882+8
	bl	printk
.L1874:
	ldrh	r5, [r7, #4]
	add	r1, sp, #4
	ldrh	r4, [r7, #6]
	lsrs	r5, r5, #4
	add	r4, r4, r6
	mov	r2, r5
	mov	r0, r4
	bl	memcmp
	cbz	r0, .L1875
	mov	r2, r5
	add	r1, sp, #4
	mov	r0, r4
	bl	memcpy
	ldrh	r2, [r7, #10]
	ldr	r3, [r6, r2]
	orr	r3, r3, #131072
	str	r3, [r6, r2]
.L1875:
	movs	r0, #0
	add	sp, sp, #12
	@ sp needed
	pop	{r4, r5, r6, r7, pc}
.L1883:
	.align	2
.L1882:
	.word	.LANCHOR0
	.word	.LANCHOR1+3910
	.word	.LC0
	.fnend
	.size	set_vp8_qp_max, .-set_vp8_qp_max
	.align	1
	.global	get_vp8_qp_max
	.syntax unified
	.thumb
	.thumb_func
	.fpu softvfp
	.type	get_vp8_qp_max, %function
get_vp8_qp_max:
	.fnstart
	@ args = 0, pretend = 0, frame = 0
	@ frame_needed = 0, uses_anonymous_args = 0
	ldr	r3, .L1889
	push	{r4, r5, r6, lr}
	.save {r4, r5, r6, lr}
	mov	r6, r0
	ldr	r3, [r3]
	mov	r4, r1
	mov	r5, r2
	lsls	r3, r3, #31
	bpl	.L1885
	movs	r2, #242
	ldr	r1, .L1889+4
	ldr	r0, .L1889+8
	bl	printk
.L1885:
	ldrh	r2, [r4, #4]
	mov	r0, r5
	ldrh	r1, [r4, #6]
	lsrs	r2, r2, #4
	add	r1, r1, r6
	bl	memcpy
	movs	r0, #0
	pop	{r4, r5, r6, pc}
.L1890:
	.align	2
.L1889:
	.word	.LANCHOR0
	.word	.LANCHOR1+3925
	.word	.LC0
	.fnend
	.size	get_vp8_qp_max, .-get_vp8_qp_max
	.align	1
	.global	set_vp8_qp_min_i
	.syntax unified
	.thumb
	.thumb_func
	.fpu softvfp
	.type	set_vp8_qp_min_i, %function
set_vp8_qp_min_i:
	.fnstart
	@ args = 0, pretend = 0, frame = 8
	@ frame_needed = 0, uses_anonymous_args = 0
	ldr	r3, .L1900
	push	{r0, r1, r2, r4, r5, r6, r7, lr}
	.save {r4, r5, r6, r7, lr}
	.pad #12
	mov	r6, r0
	ldr	r3, [r3]
	mov	r7, r1
	str	r2, [sp, #4]
	lsls	r3, r3, #31
	bpl	.L1892
	movs	r2, #242
	ldr	r1, .L1900+4
	ldr	r0, .L1900+8
	bl	printk
.L1892:
	ldrh	r5, [r7, #4]
	add	r1, sp, #4
	ldrh	r4, [r7, #6]
	lsrs	r5, r5, #4
	add	r4, r4, r6
	mov	r2, r5
	mov	r0, r4
	bl	memcmp
	cbz	r0, .L1893
	mov	r2, r5
	add	r1, sp, #4
	mov	r0, r4
	bl	memcpy
	ldrh	r2, [r7, #10]
	ldr	r3, [r6, r2]
	orr	r3, r3, #262144
	str	r3, [r6, r2]
.L1893:
	movs	r0, #0
	add	sp, sp, #12
	@ sp needed
	pop	{r4, r5, r6, r7, pc}
.L1901:
	.align	2
.L1900:
	.word	.LANCHOR0
	.word	.LANCHOR1+3940
	.word	.LC0
	.fnend
	.size	set_vp8_qp_min_i, .-set_vp8_qp_min_i
	.align	1
	.global	get_vp8_qp_min_i
	.syntax unified
	.thumb
	.thumb_func
	.fpu softvfp
	.type	get_vp8_qp_min_i, %function
get_vp8_qp_min_i:
	.fnstart
	@ args = 0, pretend = 0, frame = 0
	@ frame_needed = 0, uses_anonymous_args = 0
	ldr	r3, .L1907
	push	{r4, r5, r6, lr}
	.save {r4, r5, r6, lr}
	mov	r6, r0
	ldr	r3, [r3]
	mov	r4, r1
	mov	r5, r2
	lsls	r3, r3, #31
	bpl	.L1903
	movs	r2, #242
	ldr	r1, .L1907+4
	ldr	r0, .L1907+8
	bl	printk
.L1903:
	ldrh	r2, [r4, #4]
	mov	r0, r5
	ldrh	r1, [r4, #6]
	lsrs	r2, r2, #4
	add	r1, r1, r6
	bl	memcpy
	movs	r0, #0
	pop	{r4, r5, r6, pc}
.L1908:
	.align	2
.L1907:
	.word	.LANCHOR0
	.word	.LANCHOR1+3957
	.word	.LC0
	.fnend
	.size	get_vp8_qp_min_i, .-get_vp8_qp_min_i
	.align	1
	.global	set_vp8_qp_max_i
	.syntax unified
	.thumb
	.thumb_func
	.fpu softvfp
	.type	set_vp8_qp_max_i, %function
set_vp8_qp_max_i:
	.fnstart
	@ args = 0, pretend = 0, frame = 8
	@ frame_needed = 0, uses_anonymous_args = 0
	ldr	r3, .L1918
	push	{r0, r1, r2, r4, r5, r6, r7, lr}
	.save {r4, r5, r6, r7, lr}
	.pad #12
	mov	r6, r0
	ldr	r3, [r3]
	mov	r7, r1
	str	r2, [sp, #4]
	lsls	r3, r3, #31
	bpl	.L1910
	movs	r2, #242
	ldr	r1, .L1918+4
	ldr	r0, .L1918+8
	bl	printk
.L1910:
	ldrh	r5, [r7, #4]
	add	r1, sp, #4
	ldrh	r4, [r7, #6]
	lsrs	r5, r5, #4
	add	r4, r4, r6
	mov	r2, r5
	mov	r0, r4
	bl	memcmp
	cbz	r0, .L1911
	mov	r2, r5
	add	r1, sp, #4
	mov	r0, r4
	bl	memcpy
	ldrh	r2, [r7, #10]
	ldr	r3, [r6, r2]
	orr	r3, r3, #262144
	str	r3, [r6, r2]
.L1911:
	movs	r0, #0
	add	sp, sp, #12
	@ sp needed
	pop	{r4, r5, r6, r7, pc}
.L1919:
	.align	2
.L1918:
	.word	.LANCHOR0
	.word	.LANCHOR1+3974
	.word	.LC0
	.fnend
	.size	set_vp8_qp_max_i, .-set_vp8_qp_max_i
	.align	1
	.global	get_vp8_qp_max_i
	.syntax unified
	.thumb
	.thumb_func
	.fpu softvfp
	.type	get_vp8_qp_max_i, %function
get_vp8_qp_max_i:
	.fnstart
	@ args = 0, pretend = 0, frame = 0
	@ frame_needed = 0, uses_anonymous_args = 0
	ldr	r3, .L1925
	push	{r4, r5, r6, lr}
	.save {r4, r5, r6, lr}
	mov	r6, r0
	ldr	r3, [r3]
	mov	r4, r1
	mov	r5, r2
	lsls	r3, r3, #31
	bpl	.L1921
	movs	r2, #242
	ldr	r1, .L1925+4
	ldr	r0, .L1925+8
	bl	printk
.L1921:
	ldrh	r2, [r4, #4]
	mov	r0, r5
	ldrh	r1, [r4, #6]
	lsrs	r2, r2, #4
	add	r1, r1, r6
	bl	memcpy
	movs	r0, #0
	pop	{r4, r5, r6, pc}
.L1926:
	.align	2
.L1925:
	.word	.LANCHOR0
	.word	.LANCHOR1+3991
	.word	.LC0
	.fnend
	.size	get_vp8_qp_max_i, .-get_vp8_qp_max_i
	.align	1
	.global	set_vp8_qp_step
	.syntax unified
	.thumb
	.thumb_func
	.fpu softvfp
	.type	set_vp8_qp_step, %function
set_vp8_qp_step:
	.fnstart
	@ args = 0, pretend = 0, frame = 8
	@ frame_needed = 0, uses_anonymous_args = 0
	ldr	r3, .L1936
	push	{r0, r1, r2, r4, r5, r6, r7, lr}
	.save {r4, r5, r6, r7, lr}
	.pad #12
	mov	r6, r0
	ldr	r3, [r3]
	mov	r7, r1
	str	r2, [sp, #4]
	lsls	r3, r3, #31
	bpl	.L1928
	movs	r2, #242
	ldr	r1, .L1936+4
	ldr	r0, .L1936+8
	bl	printk
.L1928:
	ldrh	r5, [r7, #4]
	add	r1, sp, #4
	ldrh	r4, [r7, #6]
	lsrs	r5, r5, #4
	add	r4, r4, r6
	mov	r2, r5
	mov	r0, r4
	bl	memcmp
	cbz	r0, .L1929
	mov	r2, r5
	add	r1, sp, #4
	mov	r0, r4
	bl	memcpy
	ldrh	r2, [r7, #10]
	ldr	r3, [r6, r2]
	orr	r3, r3, #524288
	str	r3, [r6, r2]
.L1929:
	movs	r0, #0
	add	sp, sp, #12
	@ sp needed
	pop	{r4, r5, r6, r7, pc}
.L1937:
	.align	2
.L1936:
	.word	.LANCHOR0
	.word	.LANCHOR1+4008
	.word	.LC0
	.fnend
	.size	set_vp8_qp_step, .-set_vp8_qp_step
	.align	1
	.global	get_vp8_qp_step
	.syntax unified
	.thumb
	.thumb_func
	.fpu softvfp
	.type	get_vp8_qp_step, %function
get_vp8_qp_step:
	.fnstart
	@ args = 0, pretend = 0, frame = 0
	@ frame_needed = 0, uses_anonymous_args = 0
	ldr	r3, .L1943
	push	{r4, r5, r6, lr}
	.save {r4, r5, r6, lr}
	mov	r6, r0
	ldr	r3, [r3]
	mov	r4, r1
	mov	r5, r2
	lsls	r3, r3, #31
	bpl	.L1939
	movs	r2, #242
	ldr	r1, .L1943+4
	ldr	r0, .L1943+8
	bl	printk
.L1939:
	ldrh	r2, [r4, #4]
	mov	r0, r5
	ldrh	r1, [r4, #6]
	lsrs	r2, r2, #4
	add	r1, r1, r6
	bl	memcpy
	movs	r0, #0
	pop	{r4, r5, r6, pc}
.L1944:
	.align	2
.L1943:
	.word	.LANCHOR0
	.word	.LANCHOR1+4024
	.word	.LC0
	.fnend
	.size	get_vp8_qp_step, .-get_vp8_qp_step
	.align	1
	.global	set_vp8_qp_delta_ip
	.syntax unified
	.thumb
	.thumb_func
	.fpu softvfp
	.type	set_vp8_qp_delta_ip, %function
set_vp8_qp_delta_ip:
	.fnstart
	@ args = 0, pretend = 0, frame = 8
	@ frame_needed = 0, uses_anonymous_args = 0
	ldr	r3, .L1954
	push	{r0, r1, r2, r4, r5, r6, r7, lr}
	.save {r4, r5, r6, r7, lr}
	.pad #12
	mov	r6, r0
	ldr	r3, [r3]
	mov	r7, r1
	str	r2, [sp, #4]
	lsls	r3, r3, #31
	bpl	.L1946
	movs	r2, #242
	ldr	r1, .L1954+4
	ldr	r0, .L1954+8
	bl	printk
.L1946:
	ldrh	r5, [r7, #4]
	add	r1, sp, #4
	ldrh	r4, [r7, #6]
	lsrs	r5, r5, #4
	add	r4, r4, r6
	mov	r2, r5
	mov	r0, r4
	bl	memcmp
	cbz	r0, .L1947
	mov	r2, r5
	add	r1, sp, #4
	mov	r0, r4
	bl	memcpy
	ldrh	r2, [r7, #10]
	ldr	r3, [r6, r2]
	orr	r3, r3, #1048576
	str	r3, [r6, r2]
.L1947:
	movs	r0, #0
	add	sp, sp, #12
	@ sp needed
	pop	{r4, r5, r6, r7, pc}
.L1955:
	.align	2
.L1954:
	.word	.LANCHOR0
	.word	.LANCHOR1+4040
	.word	.LC0
	.fnend
	.size	set_vp8_qp_delta_ip, .-set_vp8_qp_delta_ip
	.align	1
	.global	get_vp8_qp_delta_ip
	.syntax unified
	.thumb
	.thumb_func
	.fpu softvfp
	.type	get_vp8_qp_delta_ip, %function
get_vp8_qp_delta_ip:
	.fnstart
	@ args = 0, pretend = 0, frame = 0
	@ frame_needed = 0, uses_anonymous_args = 0
	ldr	r3, .L1961
	push	{r4, r5, r6, lr}
	.save {r4, r5, r6, lr}
	mov	r6, r0
	ldr	r3, [r3]
	mov	r4, r1
	mov	r5, r2
	lsls	r3, r3, #31
	bpl	.L1957
	movs	r2, #242
	ldr	r1, .L1961+4
	ldr	r0, .L1961+8
	bl	printk
.L1957:
	ldrh	r2, [r4, #4]
	mov	r0, r5
	ldrh	r1, [r4, #6]
	lsrs	r2, r2, #4
	add	r1, r1, r6
	bl	memcpy
	movs	r0, #0
	pop	{r4, r5, r6, pc}
.L1962:
	.align	2
.L1961:
	.word	.LANCHOR0
	.word	.LANCHOR1+4060
	.word	.LC0
	.fnend
	.size	get_vp8_qp_delta_ip, .-get_vp8_qp_delta_ip
	.align	1
	.global	set_vp8_disable_ivf
	.syntax unified
	.thumb
	.thumb_func
	.fpu softvfp
	.type	set_vp8_disable_ivf, %function
set_vp8_disable_ivf:
	.fnstart
	@ args = 0, pretend = 0, frame = 8
	@ frame_needed = 0, uses_anonymous_args = 0
	ldr	r3, .L1972
	push	{r0, r1, r2, r4, r5, r6, r7, lr}
	.save {r4, r5, r6, r7, lr}
	.pad #12
	mov	r6, r0
	ldr	r3, [r3]
	mov	r7, r1
	str	r2, [sp, #4]
	lsls	r3, r3, #31
	bpl	.L1964
	movs	r2, #242
	ldr	r1, .L1972+4
	ldr	r0, .L1972+8
	bl	printk
.L1964:
	ldrh	r5, [r7, #4]
	add	r1, sp, #4
	ldrh	r4, [r7, #6]
	lsrs	r5, r5, #4
	add	r4, r4, r6
	mov	r2, r5
	mov	r0, r4
	bl	memcmp
	cbz	r0, .L1965
	mov	r2, r5
	add	r1, sp, #4
	mov	r0, r4
	bl	memcpy
	ldrh	r2, [r7, #10]
	ldr	r3, [r6, r2]
	orr	r3, r3, #2
	str	r3, [r6, r2]
.L1965:
	movs	r0, #0
	add	sp, sp, #12
	@ sp needed
	pop	{r4, r5, r6, r7, pc}
.L1973:
	.align	2
.L1972:
	.word	.LANCHOR0
	.word	.LANCHOR1+4080
	.word	.LC0
	.fnend
	.size	set_vp8_disable_ivf, .-set_vp8_disable_ivf
	.align	1
	.global	get_vp8_disable_ivf
	.syntax unified
	.thumb
	.thumb_func
	.fpu softvfp
	.type	get_vp8_disable_ivf, %function
get_vp8_disable_ivf:
	.fnstart
	@ args = 0, pretend = 0, frame = 0
	@ frame_needed = 0, uses_anonymous_args = 0
	ldr	r3, .L1979
	push	{r4, r5, r6, lr}
	.save {r4, r5, r6, lr}
	mov	r6, r0
	ldr	r3, [r3]
	mov	r4, r1
	mov	r5, r2
	lsls	r3, r3, #31
	bpl	.L1975
	movs	r2, #242
	ldr	r1, .L1979+4
	ldr	r0, .L1979+8
	bl	printk
.L1975:
	ldrh	r2, [r4, #4]
	mov	r0, r5
	ldrh	r1, [r4, #6]
	lsrs	r2, r2, #4
	add	r1, r1, r6
	bl	memcpy
	movs	r0, #0
	pop	{r4, r5, r6, pc}
.L1980:
	.align	2
.L1979:
	.word	.LANCHOR0
	.word	.LANCHOR2-244
	.word	.LC0
	.fnend
	.size	get_vp8_disable_ivf, .-get_vp8_disable_ivf
	.align	1
	.global	set_jpeg_quant
	.syntax unified
	.thumb
	.thumb_func
	.fpu softvfp
	.type	set_jpeg_quant, %function
set_jpeg_quant:
	.fnstart
	@ args = 0, pretend = 0, frame = 8
	@ frame_needed = 0, uses_anonymous_args = 0
	ldr	r3, .L1990
	push	{r0, r1, r2, r4, r5, r6, r7, lr}
	.save {r4, r5, r6, r7, lr}
	.pad #12
	mov	r6, r0
	ldr	r3, [r3]
	mov	r7, r1
	str	r2, [sp, #4]
	lsls	r3, r3, #31
	bpl	.L1982
	movs	r2, #242
	ldr	r1, .L1990+4
	ldr	r0, .L1990+8
	bl	printk
.L1982:
	ldrh	r5, [r7, #4]
	add	r1, sp, #4
	ldrh	r4, [r7, #6]
	lsrs	r5, r5, #4
	add	r4, r4, r6
	mov	r2, r5
	mov	r0, r4
	bl	memcmp
	cbz	r0, .L1983
	mov	r2, r5
	add	r1, sp, #4
	mov	r0, r4
	bl	memcpy
	ldrh	r2, [r7, #10]
	ldr	r3, [r6, r2]
	orr	r3, r3, #1
	str	r3, [r6, r2]
.L1983:
	movs	r0, #0
	add	sp, sp, #12
	@ sp needed
	pop	{r4, r5, r6, r7, pc}
.L1991:
	.align	2
.L1990:
	.word	.LANCHOR0
	.word	.LANCHOR2-224
	.word	.LC0
	.fnend
	.size	set_jpeg_quant, .-set_jpeg_quant
	.align	1
	.global	get_jpeg_quant
	.syntax unified
	.thumb
	.thumb_func
	.fpu softvfp
	.type	get_jpeg_quant, %function
get_jpeg_quant:
	.fnstart
	@ args = 0, pretend = 0, frame = 0
	@ frame_needed = 0, uses_anonymous_args = 0
	ldr	r3, .L1997
	push	{r4, r5, r6, lr}
	.save {r4, r5, r6, lr}
	mov	r6, r0
	ldr	r3, [r3]
	mov	r4, r1
	mov	r5, r2
	lsls	r3, r3, #31
	bpl	.L1993
	movs	r2, #242
	ldr	r1, .L1997+4
	ldr	r0, .L1997+8
	bl	printk
.L1993:
	ldrh	r2, [r4, #4]
	mov	r0, r5
	ldrh	r1, [r4, #6]
	lsrs	r2, r2, #4
	add	r1, r1, r6
	bl	memcpy
	movs	r0, #0
	pop	{r4, r5, r6, pc}
.L1998:
	.align	2
.L1997:
	.word	.LANCHOR0
	.word	.LANCHOR2-209
	.word	.LC0
	.fnend
	.size	get_jpeg_quant, .-get_jpeg_quant
	.align	1
	.global	set_jpeg_qtable_y
	.syntax unified
	.thumb
	.thumb_func
	.fpu softvfp
	.type	set_jpeg_qtable_y, %function
set_jpeg_qtable_y:
	.fnstart
	@ args = 0, pretend = 0, frame = 8
	@ frame_needed = 0, uses_anonymous_args = 0
	ldr	r3, .L2004
	push	{r0, r1, r2, r4, r5, lr}
	.save {r4, r5, lr}
	.pad #12
	mov	r4, r0
	ldr	r3, [r3]
	mov	r5, r1
	str	r2, [sp, #4]
	lsls	r3, r3, #31
	bpl	.L2000
	movs	r2, #242
	ldr	r1, .L2004+4
	ldr	r0, .L2004+8
	bl	printk
.L2000:
	ldrh	r2, [r5, #4]
	add	r1, sp, #4
	ldrh	r0, [r5, #6]
	lsrs	r2, r2, #4
	add	r0, r0, r4
	bl	memcpy
	ldrh	r2, [r5, #10]
	movs	r0, #0
	ldr	r3, [r4, r2]
	orr	r3, r3, #2
	str	r3, [r4, r2]
	add	sp, sp, #12
	@ sp needed
	pop	{r4, r5, pc}
.L2005:
	.align	2
.L2004:
	.word	.LANCHOR0
	.word	.LANCHOR2-194
	.word	.LC0
	.fnend
	.size	set_jpeg_qtable_y, .-set_jpeg_qtable_y
	.align	1
	.global	get_jpeg_qtable_y
	.syntax unified
	.thumb
	.thumb_func
	.fpu softvfp
	.type	get_jpeg_qtable_y, %function
get_jpeg_qtable_y:
	.fnstart
	@ args = 0, pretend = 0, frame = 0
	@ frame_needed = 0, uses_anonymous_args = 0
	ldr	r3, .L2011
	push	{r4, r5, r6, lr}
	.save {r4, r5, r6, lr}
	mov	r6, r0
	ldr	r3, [r3]
	mov	r4, r1
	mov	r5, r2
	lsls	r3, r3, #31
	bpl	.L2007
	movs	r2, #242
	ldr	r1, .L2011+4
	ldr	r0, .L2011+8
	bl	printk
.L2007:
	ldrh	r2, [r4, #4]
	mov	r0, r5
	ldrh	r1, [r4, #6]
	lsrs	r2, r2, #4
	add	r1, r1, r6
	bl	memcpy
	movs	r0, #0
	pop	{r4, r5, r6, pc}
.L2012:
	.align	2
.L2011:
	.word	.LANCHOR0
	.word	.LANCHOR2-176
	.word	.LC0
	.fnend
	.size	get_jpeg_qtable_y, .-get_jpeg_qtable_y
	.align	1
	.global	set_jpeg_qtable_u
	.syntax unified
	.thumb
	.thumb_func
	.fpu softvfp
	.type	set_jpeg_qtable_u, %function
set_jpeg_qtable_u:
	.fnstart
	@ args = 0, pretend = 0, frame = 8
	@ frame_needed = 0, uses_anonymous_args = 0
	ldr	r3, .L2018
	push	{r0, r1, r2, r4, r5, lr}
	.save {r4, r5, lr}
	.pad #12
	mov	r4, r0
	ldr	r3, [r3]
	mov	r5, r1
	str	r2, [sp, #4]
	lsls	r3, r3, #31
	bpl	.L2014
	movs	r2, #242
	ldr	r1, .L2018+4
	ldr	r0, .L2018+8
	bl	printk
.L2014:
	ldrh	r2, [r5, #4]
	add	r1, sp, #4
	ldrh	r0, [r5, #6]
	lsrs	r2, r2, #4
	add	r0, r0, r4
	bl	memcpy
	ldrh	r2, [r5, #10]
	movs	r0, #0
	ldr	r3, [r4, r2]
	orr	r3, r3, #2
	str	r3, [r4, r2]
	add	sp, sp, #12
	@ sp needed
	pop	{r4, r5, pc}
.L2019:
	.align	2
.L2018:
	.word	.LANCHOR0
	.word	.LANCHOR2-158
	.word	.LC0
	.fnend
	.size	set_jpeg_qtable_u, .-set_jpeg_qtable_u
	.align	1
	.global	get_jpeg_qtable_u
	.syntax unified
	.thumb
	.thumb_func
	.fpu softvfp
	.type	get_jpeg_qtable_u, %function
get_jpeg_qtable_u:
	.fnstart
	@ args = 0, pretend = 0, frame = 0
	@ frame_needed = 0, uses_anonymous_args = 0
	ldr	r3, .L2025
	push	{r4, r5, r6, lr}
	.save {r4, r5, r6, lr}
	mov	r6, r0
	ldr	r3, [r3]
	mov	r4, r1
	mov	r5, r2
	lsls	r3, r3, #31
	bpl	.L2021
	movs	r2, #242
	ldr	r1, .L2025+4
	ldr	r0, .L2025+8
	bl	printk
.L2021:
	ldrh	r2, [r4, #4]
	mov	r0, r5
	ldrh	r1, [r4, #6]
	lsrs	r2, r2, #4
	add	r1, r1, r6
	bl	memcpy
	movs	r0, #0
	pop	{r4, r5, r6, pc}
.L2026:
	.align	2
.L2025:
	.word	.LANCHOR0
	.word	.LANCHOR2-140
	.word	.LC0
	.fnend
	.size	get_jpeg_qtable_u, .-get_jpeg_qtable_u
	.align	1
	.global	set_jpeg_qtable_v
	.syntax unified
	.thumb
	.thumb_func
	.fpu softvfp
	.type	set_jpeg_qtable_v, %function
set_jpeg_qtable_v:
	.fnstart
	@ args = 0, pretend = 0, frame = 8
	@ frame_needed = 0, uses_anonymous_args = 0
	ldr	r3, .L2032
	push	{r0, r1, r2, r4, r5, lr}
	.save {r4, r5, lr}
	.pad #12
	mov	r4, r0
	ldr	r3, [r3]
	mov	r5, r1
	str	r2, [sp, #4]
	lsls	r3, r3, #31
	bpl	.L2028
	movs	r2, #242
	ldr	r1, .L2032+4
	ldr	r0, .L2032+8
	bl	printk
.L2028:
	ldrh	r2, [r5, #4]
	add	r1, sp, #4
	ldrh	r0, [r5, #6]
	lsrs	r2, r2, #4
	add	r0, r0, r4
	bl	memcpy
	ldrh	r2, [r5, #10]
	movs	r0, #0
	ldr	r3, [r4, r2]
	orr	r3, r3, #2
	str	r3, [r4, r2]
	add	sp, sp, #12
	@ sp needed
	pop	{r4, r5, pc}
.L2033:
	.align	2
.L2032:
	.word	.LANCHOR0
	.word	.LANCHOR2-122
	.word	.LC0
	.fnend
	.size	set_jpeg_qtable_v, .-set_jpeg_qtable_v
	.align	1
	.global	get_jpeg_qtable_v
	.syntax unified
	.thumb
	.thumb_func
	.fpu softvfp
	.type	get_jpeg_qtable_v, %function
get_jpeg_qtable_v:
	.fnstart
	@ args = 0, pretend = 0, frame = 0
	@ frame_needed = 0, uses_anonymous_args = 0
	ldr	r3, .L2039
	push	{r4, r5, r6, lr}
	.save {r4, r5, r6, lr}
	mov	r6, r0
	ldr	r3, [r3]
	mov	r4, r1
	mov	r5, r2
	lsls	r3, r3, #31
	bpl	.L2035
	movs	r2, #242
	ldr	r1, .L2039+4
	ldr	r0, .L2039+8
	bl	printk
.L2035:
	ldrh	r2, [r4, #4]
	mov	r0, r5
	ldrh	r1, [r4, #6]
	lsrs	r2, r2, #4
	add	r1, r1, r6
	bl	memcpy
	movs	r0, #0
	pop	{r4, r5, r6, pc}
.L2040:
	.align	2
.L2039:
	.word	.LANCHOR0
	.word	.LANCHOR2-104
	.word	.LC0
	.fnend
	.size	get_jpeg_qtable_v, .-get_jpeg_qtable_v
	.align	1
	.global	set_jpeg_q_factor
	.syntax unified
	.thumb
	.thumb_func
	.fpu softvfp
	.type	set_jpeg_q_factor, %function
set_jpeg_q_factor:
	.fnstart
	@ args = 0, pretend = 0, frame = 8
	@ frame_needed = 0, uses_anonymous_args = 0
	ldr	r3, .L2050
	push	{r0, r1, r2, r4, r5, r6, r7, lr}
	.save {r4, r5, r6, r7, lr}
	.pad #12
	mov	r6, r0
	ldr	r3, [r3]
	mov	r7, r1
	str	r2, [sp, #4]
	lsls	r3, r3, #31
	bpl	.L2042
	movs	r2, #242
	ldr	r1, .L2050+4
	ldr	r0, .L2050+8
	bl	printk
.L2042:
	ldrh	r5, [r7, #4]
	add	r1, sp, #4
	ldrh	r4, [r7, #6]
	lsrs	r5, r5, #4
	add	r4, r4, r6
	mov	r2, r5
	mov	r0, r4
	bl	memcmp
	cbz	r0, .L2043
	mov	r2, r5
	add	r1, sp, #4
	mov	r0, r4
	bl	memcpy
	ldrh	r2, [r7, #10]
	ldr	r3, [r6, r2]
	orr	r3, r3, #4
	str	r3, [r6, r2]
.L2043:
	movs	r0, #0
	add	sp, sp, #12
	@ sp needed
	pop	{r4, r5, r6, r7, pc}
.L2051:
	.align	2
.L2050:
	.word	.LANCHOR0
	.word	.LANCHOR2-86
	.word	.LC0
	.fnend
	.size	set_jpeg_q_factor, .-set_jpeg_q_factor
	.align	1
	.global	get_jpeg_q_factor
	.syntax unified
	.thumb
	.thumb_func
	.fpu softvfp
	.type	get_jpeg_q_factor, %function
get_jpeg_q_factor:
	.fnstart
	@ args = 0, pretend = 0, frame = 0
	@ frame_needed = 0, uses_anonymous_args = 0
	ldr	r3, .L2057
	push	{r4, r5, r6, lr}
	.save {r4, r5, r6, lr}
	mov	r6, r0
	ldr	r3, [r3]
	mov	r4, r1
	mov	r5, r2
	lsls	r3, r3, #31
	bpl	.L2053
	movs	r2, #242
	ldr	r1, .L2057+4
	ldr	r0, .L2057+8
	bl	printk
.L2053:
	ldrh	r2, [r4, #4]
	mov	r0, r5
	ldrh	r1, [r4, #6]
	lsrs	r2, r2, #4
	add	r1, r1, r6
	bl	memcpy
	movs	r0, #0
	pop	{r4, r5, r6, pc}
.L2058:
	.align	2
.L2057:
	.word	.LANCHOR0
	.word	.LANCHOR2-68
	.word	.LC0
	.fnend
	.size	get_jpeg_q_factor, .-get_jpeg_q_factor
	.align	1
	.global	set_jpeg_qf_max
	.syntax unified
	.thumb
	.thumb_func
	.fpu softvfp
	.type	set_jpeg_qf_max, %function
set_jpeg_qf_max:
	.fnstart
	@ args = 0, pretend = 0, frame = 8
	@ frame_needed = 0, uses_anonymous_args = 0
	ldr	r3, .L2068
	push	{r0, r1, r2, r4, r5, r6, r7, lr}
	.save {r4, r5, r6, r7, lr}
	.pad #12
	mov	r6, r0
	ldr	r3, [r3]
	mov	r7, r1
	str	r2, [sp, #4]
	lsls	r3, r3, #31
	bpl	.L2060
	movs	r2, #242
	ldr	r1, .L2068+4
	ldr	r0, .L2068+8
	bl	printk
.L2060:
	ldrh	r5, [r7, #4]
	add	r1, sp, #4
	ldrh	r4, [r7, #6]
	lsrs	r5, r5, #4
	add	r4, r4, r6
	mov	r2, r5
	mov	r0, r4
	bl	memcmp
	cbz	r0, .L2061
	mov	r2, r5
	add	r1, sp, #4
	mov	r0, r4
	bl	memcpy
	ldrh	r2, [r7, #10]
	ldr	r3, [r6, r2]
	orr	r3, r3, #4
	str	r3, [r6, r2]
.L2061:
	movs	r0, #0
	add	sp, sp, #12
	@ sp needed
	pop	{r4, r5, r6, r7, pc}
.L2069:
	.align	2
.L2068:
	.word	.LANCHOR0
	.word	.LANCHOR2-50
	.word	.LC0
	.fnend
	.size	set_jpeg_qf_max, .-set_jpeg_qf_max
	.align	1
	.global	get_jpeg_qf_max
	.syntax unified
	.thumb
	.thumb_func
	.fpu softvfp
	.type	get_jpeg_qf_max, %function
get_jpeg_qf_max:
	.fnstart
	@ args = 0, pretend = 0, frame = 0
	@ frame_needed = 0, uses_anonymous_args = 0
	ldr	r3, .L2075
	push	{r4, r5, r6, lr}
	.save {r4, r5, r6, lr}
	mov	r6, r0
	ldr	r3, [r3]
	mov	r4, r1
	mov	r5, r2
	lsls	r3, r3, #31
	bpl	.L2071
	movs	r2, #242
	ldr	r1, .L2075+4
	ldr	r0, .L2075+8
	bl	printk
.L2071:
	ldrh	r2, [r4, #4]
	mov	r0, r5
	ldrh	r1, [r4, #6]
	lsrs	r2, r2, #4
	add	r1, r1, r6
	bl	memcpy
	movs	r0, #0
	pop	{r4, r5, r6, pc}
.L2076:
	.align	2
.L2075:
	.word	.LANCHOR0
	.word	.LANCHOR2-34
	.word	.LC0
	.fnend
	.size	get_jpeg_qf_max, .-get_jpeg_qf_max
	.align	1
	.global	set_jpeg_qf_min
	.syntax unified
	.thumb
	.thumb_func
	.fpu softvfp
	.type	set_jpeg_qf_min, %function
set_jpeg_qf_min:
	.fnstart
	@ args = 0, pretend = 0, frame = 8
	@ frame_needed = 0, uses_anonymous_args = 0
	ldr	r3, .L2086
	push	{r0, r1, r2, r4, r5, r6, r7, lr}
	.save {r4, r5, r6, r7, lr}
	.pad #12
	mov	r6, r0
	ldr	r3, [r3]
	mov	r7, r1
	str	r2, [sp, #4]
	lsls	r3, r3, #31
	bpl	.L2078
	movs	r2, #242
	ldr	r1, .L2086+4
	ldr	r0, .L2086+8
	bl	printk
.L2078:
	ldrh	r5, [r7, #4]
	add	r1, sp, #4
	ldrh	r4, [r7, #6]
	lsrs	r5, r5, #4
	add	r4, r4, r6
	mov	r2, r5
	mov	r0, r4
	bl	memcmp
	cbz	r0, .L2079
	mov	r2, r5
	add	r1, sp, #4
	mov	r0, r4
	bl	memcpy
	ldrh	r2, [r7, #10]
	ldr	r3, [r6, r2]
	orr	r3, r3, #4
	str	r3, [r6, r2]
.L2079:
	movs	r0, #0
	add	sp, sp, #12
	@ sp needed
	pop	{r4, r5, r6, r7, pc}
.L2087:
	.align	2
.L2086:
	.word	.LANCHOR0
	.word	.LANCHOR2-18
	.word	.LC0
	.fnend
	.size	set_jpeg_qf_min, .-set_jpeg_qf_min
	.align	1
	.global	get_jpeg_qf_min
	.syntax unified
	.thumb
	.thumb_func
	.fpu softvfp
	.type	get_jpeg_qf_min, %function
get_jpeg_qf_min:
	.fnstart
	@ args = 0, pretend = 0, frame = 0
	@ frame_needed = 0, uses_anonymous_args = 0
	ldr	r3, .L2093
	push	{r4, r5, r6, lr}
	.save {r4, r5, r6, lr}
	mov	r6, r0
	ldr	r3, [r3]
	mov	r4, r1
	mov	r5, r2
	lsls	r3, r3, #31
	bpl	.L2089
	movs	r2, #242
	ldr	r1, .L2093+4
	ldr	r0, .L2093+8
	bl	printk
.L2089:
	ldrh	r2, [r4, #4]
	mov	r0, r5
	ldrh	r1, [r4, #6]
	lsrs	r2, r2, #4
	add	r1, r1, r6
	bl	memcpy
	movs	r0, #0
	pop	{r4, r5, r6, pc}
.L2094:
	.align	2
.L2093:
	.word	.LANCHOR0
	.word	.LANCHOR2-2
	.word	.LC0
	.fnend
	.size	get_jpeg_qf_min, .-get_jpeg_qf_min
	.align	1
	.global	set_split_mode
	.syntax unified
	.thumb
	.thumb_func
	.fpu softvfp
	.type	set_split_mode, %function
set_split_mode:
	.fnstart
	@ args = 0, pretend = 0, frame = 8
	@ frame_needed = 0, uses_anonymous_args = 0
	ldr	r3, .L2104
	push	{r0, r1, r2, r4, r5, r6, r7, lr}
	.save {r4, r5, r6, r7, lr}
	.pad #12
	mov	r6, r0
	ldr	r3, [r3]
	mov	r7, r1
	str	r2, [sp, #4]
	lsls	r3, r3, #31
	bpl	.L2096
	movs	r2, #242
	ldr	r1, .L2104+4
	ldr	r0, .L2104+8
	bl	printk
.L2096:
	ldrh	r5, [r7, #4]
	add	r1, sp, #4
	ldrh	r4, [r7, #6]
	lsrs	r5, r5, #4
	add	r4, r4, r6
	mov	r2, r5
	mov	r0, r4
	bl	memcmp
	cbz	r0, .L2097
	mov	r2, r5
	add	r1, sp, #4
	mov	r0, r4
	bl	memcpy
	ldrh	r2, [r7, #10]
	ldr	r3, [r6, r2]
	orr	r3, r3, #1
	str	r3, [r6, r2]
.L2097:
	movs	r0, #0
	add	sp, sp, #12
	@ sp needed
	pop	{r4, r5, r6, r7, pc}
.L2105:
	.align	2
.L2104:
	.word	.LANCHOR0
	.word	.LANCHOR2+14
	.word	.LC0
	.fnend
	.size	set_split_mode, .-set_split_mode
	.align	1
	.global	get_split_mode
	.syntax unified
	.thumb
	.thumb_func
	.fpu softvfp
	.type	get_split_mode, %function
get_split_mode:
	.fnstart
	@ args = 0, pretend = 0, frame = 0
	@ frame_needed = 0, uses_anonymous_args = 0
	ldr	r3, .L2111
	push	{r4, r5, r6, lr}
	.save {r4, r5, r6, lr}
	mov	r6, r0
	ldr	r3, [r3]
	mov	r4, r1
	mov	r5, r2
	lsls	r3, r3, #31
	bpl	.L2107
	movs	r2, #242
	ldr	r1, .L2111+4
	ldr	r0, .L2111+8
	bl	printk
.L2107:
	ldrh	r2, [r4, #4]
	mov	r0, r5
	ldrh	r1, [r4, #6]
	lsrs	r2, r2, #4
	add	r1, r1, r6
	bl	memcpy
	movs	r0, #0
	pop	{r4, r5, r6, pc}
.L2112:
	.align	2
.L2111:
	.word	.LANCHOR0
	.word	.LANCHOR2+29
	.word	.LC0
	.fnend
	.size	get_split_mode, .-get_split_mode
	.align	1
	.global	set_split_arg
	.syntax unified
	.thumb
	.thumb_func
	.fpu softvfp
	.type	set_split_arg, %function
set_split_arg:
	.fnstart
	@ args = 0, pretend = 0, frame = 8
	@ frame_needed = 0, uses_anonymous_args = 0
	ldr	r3, .L2122
	push	{r0, r1, r2, r4, r5, r6, r7, lr}
	.save {r4, r5, r6, r7, lr}
	.pad #12
	mov	r6, r0
	ldr	r3, [r3]
	mov	r7, r1
	str	r2, [sp, #4]
	lsls	r3, r3, #31
	bpl	.L2114
	movs	r2, #242
	ldr	r1, .L2122+4
	ldr	r0, .L2122+8
	bl	printk
.L2114:
	ldrh	r5, [r7, #4]
	add	r1, sp, #4
	ldrh	r4, [r7, #6]
	lsrs	r5, r5, #4
	add	r4, r4, r6
	mov	r2, r5
	mov	r0, r4
	bl	memcmp
	cbz	r0, .L2115
	mov	r2, r5
	add	r1, sp, #4
	mov	r0, r4
	bl	memcpy
	ldrh	r2, [r7, #10]
	ldr	r3, [r6, r2]
	orr	r3, r3, #2
	str	r3, [r6, r2]
.L2115:
	movs	r0, #0
	add	sp, sp, #12
	@ sp needed
	pop	{r4, r5, r6, r7, pc}
.L2123:
	.align	2
.L2122:
	.word	.LANCHOR0
	.word	.LANCHOR2+44
	.word	.LC0
	.fnend
	.size	set_split_arg, .-set_split_arg
	.align	1
	.global	get_split_arg
	.syntax unified
	.thumb
	.thumb_func
	.fpu softvfp
	.type	get_split_arg, %function
get_split_arg:
	.fnstart
	@ args = 0, pretend = 0, frame = 0
	@ frame_needed = 0, uses_anonymous_args = 0
	ldr	r3, .L2129
	push	{r4, r5, r6, lr}
	.save {r4, r5, r6, lr}
	mov	r6, r0
	ldr	r3, [r3]
	mov	r4, r1
	mov	r5, r2
	lsls	r3, r3, #31
	bpl	.L2125
	movs	r2, #242
	ldr	r1, .L2129+4
	ldr	r0, .L2129+8
	bl	printk
.L2125:
	ldrh	r2, [r4, #4]
	mov	r0, r5
	ldrh	r1, [r4, #6]
	lsrs	r2, r2, #4
	add	r1, r1, r6
	bl	memcpy
	movs	r0, #0
	pop	{r4, r5, r6, pc}
.L2130:
	.align	2
.L2129:
	.word	.LANCHOR0
	.word	.LANCHOR2+58
	.word	.LC0
	.fnend
	.size	get_split_arg, .-get_split_arg
	.align	1
	.global	set_hw_qp_row
	.syntax unified
	.thumb
	.thumb_func
	.fpu softvfp
	.type	set_hw_qp_row, %function
set_hw_qp_row:
	.fnstart
	@ args = 0, pretend = 0, frame = 8
	@ frame_needed = 0, uses_anonymous_args = 0
	ldr	r3, .L2140
	push	{r0, r1, r2, r4, r5, r6, r7, lr}
	.save {r4, r5, r6, r7, lr}
	.pad #12
	mov	r6, r0
	ldr	r3, [r3]
	mov	r7, r1
	str	r2, [sp, #4]
	lsls	r3, r3, #31
	bpl	.L2132
	movs	r2, #242
	ldr	r1, .L2140+4
	ldr	r0, .L2140+8
	bl	printk
.L2132:
	ldrh	r5, [r7, #4]
	add	r1, sp, #4
	ldrh	r4, [r7, #6]
	lsrs	r5, r5, #4
	add	r4, r4, r6
	mov	r2, r5
	mov	r0, r4
	bl	memcmp
	cbz	r0, .L2133
	mov	r2, r5
	add	r1, sp, #4
	mov	r0, r4
	bl	memcpy
	ldrh	r2, [r7, #10]
	ldr	r3, [r6, r2]
	orr	r3, r3, #1
	str	r3, [r6, r2]
.L2133:
	movs	r0, #0
	add	sp, sp, #12
	@ sp needed
	pop	{r4, r5, r6, r7, pc}
.L2141:
	.align	2
.L2140:
	.word	.LANCHOR0
	.word	.LANCHOR2+72
	.word	.LC0
	.fnend
	.size	set_hw_qp_row, .-set_hw_qp_row
	.align	1
	.global	get_hw_qp_row
	.syntax unified
	.thumb
	.thumb_func
	.fpu softvfp
	.type	get_hw_qp_row, %function
get_hw_qp_row:
	.fnstart
	@ args = 0, pretend = 0, frame = 0
	@ frame_needed = 0, uses_anonymous_args = 0
	ldr	r3, .L2147
	push	{r4, r5, r6, lr}
	.save {r4, r5, r6, lr}
	mov	r6, r0
	ldr	r3, [r3]
	mov	r4, r1
	mov	r5, r2
	lsls	r3, r3, #31
	bpl	.L2143
	movs	r2, #242
	ldr	r1, .L2147+4
	ldr	r0, .L2147+8
	bl	printk
.L2143:
	ldrh	r2, [r4, #4]
	mov	r0, r5
	ldrh	r1, [r4, #6]
	lsrs	r2, r2, #4
	add	r1, r1, r6
	bl	memcpy
	movs	r0, #0
	pop	{r4, r5, r6, pc}
.L2148:
	.align	2
.L2147:
	.word	.LANCHOR0
	.word	.LANCHOR2+86
	.word	.LC0
	.fnend
	.size	get_hw_qp_row, .-get_hw_qp_row
	.align	1
	.global	set_hw_qp_row_i
	.syntax unified
	.thumb
	.thumb_func
	.fpu softvfp
	.type	set_hw_qp_row_i, %function
set_hw_qp_row_i:
	.fnstart
	@ args = 0, pretend = 0, frame = 8
	@ frame_needed = 0, uses_anonymous_args = 0
	ldr	r3, .L2158
	push	{r0, r1, r2, r4, r5, r6, r7, lr}
	.save {r4, r5, r6, r7, lr}
	.pad #12
	mov	r6, r0
	ldr	r3, [r3]
	mov	r7, r1
	str	r2, [sp, #4]
	lsls	r3, r3, #31
	bpl	.L2150
	movs	r2, #242
	ldr	r1, .L2158+4
	ldr	r0, .L2158+8
	bl	printk
.L2150:
	ldrh	r5, [r7, #4]
	add	r1, sp, #4
	ldrh	r4, [r7, #6]
	lsrs	r5, r5, #4
	add	r4, r4, r6
	mov	r2, r5
	mov	r0, r4
	bl	memcmp
	cbz	r0, .L2151
	mov	r2, r5
	add	r1, sp, #4
	mov	r0, r4
	bl	memcpy
	ldrh	r2, [r7, #10]
	ldr	r3, [r6, r2]
	orr	r3, r3, #2
	str	r3, [r6, r2]
.L2151:
	movs	r0, #0
	add	sp, sp, #12
	@ sp needed
	pop	{r4, r5, r6, r7, pc}
.L2159:
	.align	2
.L2158:
	.word	.LANCHOR0
	.word	.LANCHOR2+100
	.word	.LC0
	.fnend
	.size	set_hw_qp_row_i, .-set_hw_qp_row_i
	.align	1
	.global	get_hw_qp_row_i
	.syntax unified
	.thumb
	.thumb_func
	.fpu softvfp
	.type	get_hw_qp_row_i, %function
get_hw_qp_row_i:
	.fnstart
	@ args = 0, pretend = 0, frame = 0
	@ frame_needed = 0, uses_anonymous_args = 0
	ldr	r3, .L2165
	push	{r4, r5, r6, lr}
	.save {r4, r5, r6, lr}
	mov	r6, r0
	ldr	r3, [r3]
	mov	r4, r1
	mov	r5, r2
	lsls	r3, r3, #31
	bpl	.L2161
	movs	r2, #242
	ldr	r1, .L2165+4
	ldr	r0, .L2165+8
	bl	printk
.L2161:
	ldrh	r2, [r4, #4]
	mov	r0, r5
	ldrh	r1, [r4, #6]
	lsrs	r2, r2, #4
	add	r1, r1, r6
	bl	memcpy
	movs	r0, #0
	pop	{r4, r5, r6, pc}
.L2166:
	.align	2
.L2165:
	.word	.LANCHOR0
	.word	.LANCHOR2+116
	.word	.LC0
	.fnend
	.size	get_hw_qp_row_i, .-get_hw_qp_row_i
	.align	1
	.global	set_hw_aq_thrd_i
	.syntax unified
	.thumb
	.thumb_func
	.fpu softvfp
	.type	set_hw_aq_thrd_i, %function
set_hw_aq_thrd_i:
	.fnstart
	@ args = 0, pretend = 0, frame = 0
	@ frame_needed = 0, uses_anonymous_args = 0
	ldr	r3, .L2176
	push	{r4, r5, r6, r7, r8, lr}
	.save {r4, r5, r6, r7, r8, lr}
	mov	r6, r0
	ldr	r3, [r3]
	mov	r7, r1
	mov	r8, r2
	lsls	r3, r3, #31
	bpl	.L2168
	movs	r2, #242
	ldr	r1, .L2176+4
	ldr	r0, .L2176+8
	bl	printk
.L2168:
	ldrh	r5, [r7, #4]
	mov	r1, r8
	ldrh	r4, [r7, #6]
	lsrs	r5, r5, #4
	add	r4, r4, r6
	mov	r2, r5
	mov	r0, r4
	bl	memcmp
	cbz	r0, .L2169
	mov	r2, r5
	mov	r1, r8
	mov	r0, r4
	bl	memcpy
	ldrh	r2, [r7, #10]
	ldr	r3, [r6, r2]
	orr	r3, r3, #4
	str	r3, [r6, r2]
.L2169:
	movs	r0, #0
	pop	{r4, r5, r6, r7, r8, pc}
.L2177:
	.align	2
.L2176:
	.word	.LANCHOR0
	.word	.LANCHOR2+132
	.word	.LC0
	.fnend
	.size	set_hw_aq_thrd_i, .-set_hw_aq_thrd_i
	.align	1
	.global	get_hw_aq_thrd_i
	.syntax unified
	.thumb
	.thumb_func
	.fpu softvfp
	.type	get_hw_aq_thrd_i, %function
get_hw_aq_thrd_i:
	.fnstart
	@ args = 0, pretend = 0, frame = 0
	@ frame_needed = 0, uses_anonymous_args = 0
	ldr	r3, .L2183
	push	{r4, r5, r6, lr}
	.save {r4, r5, r6, lr}
	mov	r6, r0
	ldr	r3, [r3]
	mov	r4, r1
	mov	r5, r2
	lsls	r3, r3, #31
	bpl	.L2179
	movs	r2, #242
	ldr	r1, .L2183+4
	ldr	r0, .L2183+8
	bl	printk
.L2179:
	ldrh	r2, [r4, #4]
	mov	r0, r5
	ldrh	r1, [r4, #6]
	lsrs	r2, r2, #4
	add	r1, r1, r6
	bl	memcpy
	movs	r0, #0
	pop	{r4, r5, r6, pc}
.L2184:
	.align	2
.L2183:
	.word	.LANCHOR0
	.word	.LANCHOR2+149
	.word	.LC0
	.fnend
	.size	get_hw_aq_thrd_i, .-get_hw_aq_thrd_i
	.align	1
	.global	set_hw_aq_thrd_p
	.syntax unified
	.thumb
	.thumb_func
	.fpu softvfp
	.type	set_hw_aq_thrd_p, %function
set_hw_aq_thrd_p:
	.fnstart
	@ args = 0, pretend = 0, frame = 0
	@ frame_needed = 0, uses_anonymous_args = 0
	ldr	r3, .L2194
	push	{r4, r5, r6, r7, r8, lr}
	.save {r4, r5, r6, r7, r8, lr}
	mov	r6, r0
	ldr	r3, [r3]
	mov	r7, r1
	mov	r8, r2
	lsls	r3, r3, #31
	bpl	.L2186
	movs	r2, #242
	ldr	r1, .L2194+4
	ldr	r0, .L2194+8
	bl	printk
.L2186:
	ldrh	r5, [r7, #4]
	mov	r1, r8
	ldrh	r4, [r7, #6]
	lsrs	r5, r5, #4
	add	r4, r4, r6
	mov	r2, r5
	mov	r0, r4
	bl	memcmp
	cbz	r0, .L2187
	mov	r2, r5
	mov	r1, r8
	mov	r0, r4
	bl	memcpy
	ldrh	r2, [r7, #10]
	ldr	r3, [r6, r2]
	orr	r3, r3, #8
	str	r3, [r6, r2]
.L2187:
	movs	r0, #0
	pop	{r4, r5, r6, r7, r8, pc}
.L2195:
	.align	2
.L2194:
	.word	.LANCHOR0
	.word	.LANCHOR2+166
	.word	.LC0
	.fnend
	.size	set_hw_aq_thrd_p, .-set_hw_aq_thrd_p
	.align	1
	.global	get_hw_aq_thrd_p
	.syntax unified
	.thumb
	.thumb_func
	.fpu softvfp
	.type	get_hw_aq_thrd_p, %function
get_hw_aq_thrd_p:
	.fnstart
	@ args = 0, pretend = 0, frame = 0
	@ frame_needed = 0, uses_anonymous_args = 0
	ldr	r3, .L2201
	push	{r4, r5, r6, lr}
	.save {r4, r5, r6, lr}
	mov	r6, r0
	ldr	r3, [r3]
	mov	r4, r1
	mov	r5, r2
	lsls	r3, r3, #31
	bpl	.L2197
	movs	r2, #242
	ldr	r1, .L2201+4
	ldr	r0, .L2201+8
	bl	printk
.L2197:
	ldrh	r2, [r4, #4]
	mov	r0, r5
	ldrh	r1, [r4, #6]
	lsrs	r2, r2, #4
	add	r1, r1, r6
	bl	memcpy
	movs	r0, #0
	pop	{r4, r5, r6, pc}
.L2202:
	.align	2
.L2201:
	.word	.LANCHOR0
	.word	.LANCHOR2+183
	.word	.LC0
	.fnend
	.size	get_hw_aq_thrd_p, .-get_hw_aq_thrd_p
	.align	1
	.global	set_hw_aq_step_i
	.syntax unified
	.thumb
	.thumb_func
	.fpu softvfp
	.type	set_hw_aq_step_i, %function
set_hw_aq_step_i:
	.fnstart
	@ args = 0, pretend = 0, frame = 0
	@ frame_needed = 0, uses_anonymous_args = 0
	ldr	r3, .L2212
	push	{r4, r5, r6, r7, r8, lr}
	.save {r4, r5, r6, r7, r8, lr}
	mov	r6, r0
	ldr	r3, [r3]
	mov	r7, r1
	mov	r8, r2
	lsls	r3, r3, #31
	bpl	.L2204
	movs	r2, #242
	ldr	r1, .L2212+4
	ldr	r0, .L2212+8
	bl	printk
.L2204:
	ldrh	r5, [r7, #4]
	mov	r1, r8
	ldrh	r4, [r7, #6]
	lsrs	r5, r5, #4
	add	r4, r4, r6
	mov	r2, r5
	mov	r0, r4
	bl	memcmp
	cbz	r0, .L2205
	mov	r2, r5
	mov	r1, r8
	mov	r0, r4
	bl	memcpy
	ldrh	r2, [r7, #10]
	ldr	r3, [r6, r2]
	orr	r3, r3, #16
	str	r3, [r6, r2]
.L2205:
	movs	r0, #0
	pop	{r4, r5, r6, r7, r8, pc}
.L2213:
	.align	2
.L2212:
	.word	.LANCHOR0
	.word	.LANCHOR2+200
	.word	.LC0
	.fnend
	.size	set_hw_aq_step_i, .-set_hw_aq_step_i
	.align	1
	.global	get_hw_aq_step_i
	.syntax unified
	.thumb
	.thumb_func
	.fpu softvfp
	.type	get_hw_aq_step_i, %function
get_hw_aq_step_i:
	.fnstart
	@ args = 0, pretend = 0, frame = 0
	@ frame_needed = 0, uses_anonymous_args = 0
	ldr	r3, .L2219
	push	{r4, r5, r6, lr}
	.save {r4, r5, r6, lr}
	mov	r6, r0
	ldr	r3, [r3]
	mov	r4, r1
	mov	r5, r2
	lsls	r3, r3, #31
	bpl	.L2215
	movs	r2, #242
	ldr	r1, .L2219+4
	ldr	r0, .L2219+8
	bl	printk
.L2215:
	ldrh	r2, [r4, #4]
	mov	r0, r5
	ldrh	r1, [r4, #6]
	lsrs	r2, r2, #4
	add	r1, r1, r6
	bl	memcpy
	movs	r0, #0
	pop	{r4, r5, r6, pc}
.L2220:
	.align	2
.L2219:
	.word	.LANCHOR0
	.word	.LANCHOR2+217
	.word	.LC0
	.fnend
	.size	get_hw_aq_step_i, .-get_hw_aq_step_i
	.align	1
	.global	set_hw_aq_step_p
	.syntax unified
	.thumb
	.thumb_func
	.fpu softvfp
	.type	set_hw_aq_step_p, %function
set_hw_aq_step_p:
	.fnstart
	@ args = 0, pretend = 0, frame = 0
	@ frame_needed = 0, uses_anonymous_args = 0
	ldr	r3, .L2230
	push	{r4, r5, r6, r7, r8, lr}
	.save {r4, r5, r6, r7, r8, lr}
	mov	r6, r0
	ldr	r3, [r3]
	mov	r7, r1
	mov	r8, r2
	lsls	r3, r3, #31
	bpl	.L2222
	movs	r2, #242
	ldr	r1, .L2230+4
	ldr	r0, .L2230+8
	bl	printk
.L2222:
	ldrh	r5, [r7, #4]
	mov	r1, r8
	ldrh	r4, [r7, #6]
	lsrs	r5, r5, #4
	add	r4, r4, r6
	mov	r2, r5
	mov	r0, r4
	bl	memcmp
	cbz	r0, .L2223
	mov	r2, r5
	mov	r1, r8
	mov	r0, r4
	bl	memcpy
	ldrh	r2, [r7, #10]
	ldr	r3, [r6, r2]
	orr	r3, r3, #32
	str	r3, [r6, r2]
.L2223:
	movs	r0, #0
	pop	{r4, r5, r6, r7, r8, pc}
.L2231:
	.align	2
.L2230:
	.word	.LANCHOR0
	.word	.LANCHOR2+234
	.word	.LC0
	.fnend
	.size	set_hw_aq_step_p, .-set_hw_aq_step_p
	.align	1
	.global	get_hw_aq_step_p
	.syntax unified
	.thumb
	.thumb_func
	.fpu softvfp
	.type	get_hw_aq_step_p, %function
get_hw_aq_step_p:
	.fnstart
	@ args = 0, pretend = 0, frame = 0
	@ frame_needed = 0, uses_anonymous_args = 0
	ldr	r3, .L2237
	push	{r4, r5, r6, lr}
	.save {r4, r5, r6, lr}
	mov	r6, r0
	ldr	r3, [r3]
	mov	r4, r1
	mov	r5, r2
	lsls	r3, r3, #31
	bpl	.L2233
	movs	r2, #242
	ldr	r1, .L2237+4
	ldr	r0, .L2237+8
	bl	printk
.L2233:
	ldrh	r2, [r4, #4]
	mov	r0, r5
	ldrh	r1, [r4, #6]
	lsrs	r2, r2, #4
	add	r1, r1, r6
	bl	memcpy
	movs	r0, #0
	pop	{r4, r5, r6, pc}
.L2238:
	.align	2
.L2237:
	.word	.LANCHOR0
	.word	.LANCHOR2+251
	.word	.LC0
	.fnend
	.size	get_hw_aq_step_p, .-get_hw_aq_step_p
	.align	1
	.global	set_tune_scene_mode
	.syntax unified
	.thumb
	.thumb_func
	.fpu softvfp
	.type	set_tune_scene_mode, %function
set_tune_scene_mode:
	.fnstart
	@ args = 0, pretend = 0, frame = 8
	@ frame_needed = 0, uses_anonymous_args = 0
	ldr	r3, .L2248
	push	{r0, r1, r2, r4, r5, r6, r7, lr}
	.save {r4, r5, r6, r7, lr}
	.pad #12
	mov	r6, r0
	ldr	r3, [r3]
	mov	r7, r1
	str	r2, [sp, #4]
	lsls	r3, r3, #31
	bpl	.L2240
	movs	r2, #242
	ldr	r1, .L2248+4
	ldr	r0, .L2248+8
	bl	printk
.L2240:
	ldrh	r5, [r7, #4]
	add	r1, sp, #4
	ldrh	r4, [r7, #6]
	lsrs	r5, r5, #4
	add	r4, r4, r6
	mov	r2, r5
	mov	r0, r4
	bl	memcmp
	cbz	r0, .L2241
	mov	r2, r5
	add	r1, sp, #4
	mov	r0, r4
	bl	memcpy
	ldrh	r2, [r7, #10]
	ldr	r3, [r6, r2]
	orr	r3, r3, #1
	str	r3, [r6, r2]
.L2241:
	movs	r0, #0
	add	sp, sp, #12
	@ sp needed
	pop	{r4, r5, r6, r7, pc}
.L2249:
	.align	2
.L2248:
	.word	.LANCHOR0
	.word	.LANCHOR2+268
	.word	.LC0
	.fnend
	.size	set_tune_scene_mode, .-set_tune_scene_mode
	.align	1
	.global	get_tune_scene_mode
	.syntax unified
	.thumb
	.thumb_func
	.fpu softvfp
	.type	get_tune_scene_mode, %function
get_tune_scene_mode:
	.fnstart
	@ args = 0, pretend = 0, frame = 0
	@ frame_needed = 0, uses_anonymous_args = 0
	ldr	r3, .L2255
	push	{r4, r5, r6, lr}
	.save {r4, r5, r6, lr}
	mov	r6, r0
	ldr	r3, [r3]
	mov	r4, r1
	mov	r5, r2
	lsls	r3, r3, #31
	bpl	.L2251
	movs	r2, #242
	ldr	r1, .L2255+4
	ldr	r0, .L2255+8
	bl	printk
.L2251:
	ldrh	r2, [r4, #4]
	mov	r0, r5
	ldrh	r1, [r4, #6]
	lsrs	r2, r2, #4
	add	r1, r1, r6
	bl	memcpy
	movs	r0, #0
	pop	{r4, r5, r6, pc}
.L2256:
	.align	2
.L2255:
	.word	.LANCHOR0
	.word	.LANCHOR2+288
	.word	.LC0
	.fnend
	.size	get_tune_scene_mode, .-get_tune_scene_mode
	.align	1
	.global	const_strlen
	.syntax unified
	.thumb
	.thumb_func
	.fpu softvfp
	.type	const_strlen, %function
const_strlen:
	.fnstart
	@ args = 0, pretend = 0, frame = 0
	@ frame_needed = 0, uses_anonymous_args = 0
	@ link register save eliminated.
	subs	r2, r0, #1
	rsb	r3, r0, #1
.L2258:
	adds	r0, r3, r2
	ldrb	r1, [r2, #1]!	@ zero_extendqisi2
	cmp	r1, #0
	bne	.L2258
	bx	lr
	.fnend
	.size	const_strlen, .-const_strlen
	.section	.text.unlikely,"ax",%progbits
	.align	1
	.global	mpp_enc_cfg_api_init
	.syntax unified
	.thumb
	.thumb_func
	.fpu softvfp
	.type	mpp_enc_cfg_api_init, %function
mpp_enc_cfg_api_init:
	.fnstart
	@ args = 0, pretend = 0, frame = 0
	@ frame_needed = 0, uses_anonymous_args = 0
	push	{r0, r1, r4, r5, r6, lr}
	.save {r4, r5, r6, lr}
	.pad #8
	mov	r1, #270
	ldr	r4, .L2266
	ldr	r0, .L2266+4
	bl	printk
	movs	r2, #126
	mov	r1, #10240
	adds	r0, r4, #4
	bl	mpp_trie_init
	ldr	r2, [r4, #4]
	movw	r1, #273
	mov	r5, r0
	ldr	r0, .L2266+8
	bl	printk
	cbz	r5, .L2261
	movw	r2, #275
	ldr	r1, .L2266+12
	ldr	r0, .L2266+16
	bl	printk
.L2262:
	movw	r1, #281
	ldr	r0, .L2266+20
	bl	printk
	ldr	r0, [r4, #4]
	bl	mpp_trie_get_node_count
	cmp	r0, #10240
	ble	.L2260
	ldr	r0, [r4, #4]
	bl	mpp_trie_get_node_count
	mov	r3, #10240
	mov	r2, #284
	ldr	r1, .L2266+12
	str	r0, [sp, #4]
	str	r3, [sp]
	movs	r3, #126
	ldr	r0, .L2266+24
	bl	printk
.L2260:
	add	sp, sp, #8
	@ sp needed
	pop	{r4, r5, r6, pc}
.L2261:
	ldr	r6, .L2266+28
.L2263:
	ldr	r1, [r6], #4
	adds	r5, r5, #1
	ldr	r0, [r4, #4]
	bl	mpp_trie_add_info
	cmp	r5, #126
	bne	.L2263
	b	.L2262
.L2267:
	.align	2
.L2266:
	.word	.LANCHOR0
	.word	.LC1
	.word	.LC2
	.word	.LANCHOR2+308
	.word	.LC3
	.word	.LC4
	.word	.LC5
	.word	.LANCHOR2+332
	.fnend
	.size	mpp_enc_cfg_api_init, .-mpp_enc_cfg_api_init
	.text
	.align	1
	.global	mpp_enc_cfg_api_deinit
	.syntax unified
	.thumb
	.thumb_func
	.fpu softvfp
	.type	mpp_enc_cfg_api_deinit, %function
mpp_enc_cfg_api_deinit:
	.fnstart
	@ args = 0, pretend = 0, frame = 0
	@ frame_needed = 0, uses_anonymous_args = 0
	push	{r4, lr}
	.save {r4, lr}
	ldr	r4, .L2273
	ldr	r0, [r4, #4]
	cbz	r0, .L2268
	bl	mpp_trie_deinit
	movs	r3, #0
	str	r3, [r4, #4]
.L2268:
	pop	{r4, pc}
.L2274:
	.align	2
.L2273:
	.word	.LANCHOR0
	.fnend
	.size	mpp_enc_cfg_api_deinit, .-mpp_enc_cfg_api_deinit
	.align	1
	.global	mpp_enc_cfg_init
	.syntax unified
	.thumb
	.thumb_func
	.fpu softvfp
	.type	mpp_enc_cfg_init, %function
mpp_enc_cfg_init:
	.fnstart
	@ args = 0, pretend = 0, frame = 0
	@ frame_needed = 0, uses_anonymous_args = 0
	push	{r3, r4, r5, lr}
	.save {r3, r4, r5, lr}
	mov	r5, r0
	cbnz	r0, .L2276
	movw	r2, #307
	ldr	r1, .L2279
	ldr	r0, .L2279+4
	bl	printk
	mvn	r0, #2
.L2275:
	pop	{r3, r4, r5, pc}
.L2276:
	movw	r1, #4720
	ldr	r0, .L2279+8
	bl	mpp_osal_calloc
	mov	r4, r0
	cbnz	r0, .L2278
	mov	r3, r0
	movw	r2, #313
	ldr	r1, .L2279
	ldr	r0, .L2279+12
	bl	printk
	str	r4, [r5]
	ldr	r0, .L2279+16
	b	.L2275
.L2278:
	movw	r3, #4712
	movw	r2, #4720
	str	r2, [r0, r3]
	ldr	r3, .L2279+20
	ldr	r2, [r3, #4]
	movw	r3, #4716
	str	r2, [r0, r3]
	movs	r3, #2
	strd	r3, r3, [r0, #40]
	str	r3, [r0, #48]
	str	r0, [r5]
	movs	r0, #0
	b	.L2275
.L2280:
	.align	2
.L2279:
	.word	.LANCHOR2+836
	.word	.LC6
	.word	.LANCHOR2+853
	.word	.LC7
	.word	-1006
	.word	.LANCHOR0
	.fnend
	.size	mpp_enc_cfg_init, .-mpp_enc_cfg_init
	.align	1
	.global	mpp_enc_cfg_deinit
	.syntax unified
	.thumb
	.thumb_func
	.fpu softvfp
	.type	mpp_enc_cfg_deinit, %function
mpp_enc_cfg_deinit:
	.fnstart
	@ args = 0, pretend = 0, frame = 0
	@ frame_needed = 0, uses_anonymous_args = 0
	push	{r3, lr}
	.save {r3, lr}
	mov	r1, r0
	cbnz	r0, .L2282
	mov	r2, #332
	ldr	r1, .L2284
	ldr	r0, .L2284+4
	bl	printk
	mvn	r0, #2
.L2281:
	pop	{r3, pc}
.L2282:
	ldr	r0, .L2284+8
	bl	mpp_osal_free
	movs	r0, #0
	b	.L2281
.L2285:
	.align	2
.L2284:
	.word	.LANCHOR2+870
	.word	.LC6
	.word	.LANCHOR2+889
	.fnend
	.size	mpp_enc_cfg_deinit, .-mpp_enc_cfg_deinit
	.align	1
	.global	mpp_enc_cfg_set_s32
	.syntax unified
	.thumb
	.thumb_func
	.fpu softvfp
	.type	mpp_enc_cfg_set_s32, %function
mpp_enc_cfg_set_s32:
	.fnstart
	@ args = 0, pretend = 0, frame = 0
	@ frame_needed = 0, uses_anonymous_args = 0
	push	{r0, r1, r2, r4, r5, r6, r7, lr}
	.save {r4, r5, r6, r7, lr}
	.pad #12
	mov	r6, r1
	mov	r7, r2
	mov	r4, r0
	cbz	r0, .L2287
	cbnz	r1, .L2288
.L2287:
	str	r6, [sp]
	mov	r3, r4
	movw	r2, #367
	ldr	r1, .L2299
	ldr	r0, .L2299+4
	bl	printk
	mvn	r0, #2
.L2286:
	add	sp, sp, #12
	@ sp needed
	pop	{r4, r5, r6, r7, pc}
.L2288:
	movw	r3, #4716
	ldr	r0, [r0, r3]
	bl	mpp_trie_get_info
	mov	r5, r0
	cbnz	r0, .L2290
	mov	r3, r6
	movw	r2, #367
	ldr	r1, .L2299
	ldr	r0, .L2299+8
	bl	printk
.L2292:
	mov	r0, #-1
	b	.L2286
.L2290:
	movs	r1, #0
	bl	check_cfg_api_info
	cmp	r0, #0
	bne	.L2292
	ldr	r3, .L2299+12
	ldr	r3, [r3]
	lsls	r3, r3, #29
	bpl	.L2291
	ldrb	r3, [r5, #4]	@ zero_extendqisi2
	ldr	r2, .L2299+16
	and	r3, r3, #15
	ldr	r1, .L2299
	ldr	r0, .L2299+20
	ldr	r3, [r2, r3, lsl #2]
	movw	r2, #367
	str	r3, [sp]
	ldr	r3, [r5]
	bl	printk
.L2291:
	ldr	r3, [r5, #12]
	mov	r2, r7
	mov	r1, r5
	mov	r0, r4
	add	sp, sp, #12
	@ sp needed
	pop	{r4, r5, r6, r7, lr}
	bx	r3
.L2300:
	.align	2
.L2299:
	.word	.LANCHOR2+908
	.word	.LC8
	.word	.LC9
	.word	.LANCHOR0
	.word	cfg_type_names
	.word	.LC10
	.fnend
	.size	mpp_enc_cfg_set_s32, .-mpp_enc_cfg_set_s32
	.align	1
	.global	mpp_enc_cfg_set_u32
	.syntax unified
	.thumb
	.thumb_func
	.fpu softvfp
	.type	mpp_enc_cfg_set_u32, %function
mpp_enc_cfg_set_u32:
	.fnstart
	@ args = 0, pretend = 0, frame = 0
	@ frame_needed = 0, uses_anonymous_args = 0
	push	{r0, r1, r2, r4, r5, r6, r7, lr}
	.save {r4, r5, r6, r7, lr}
	.pad #12
	mov	r6, r1
	mov	r7, r2
	mov	r4, r0
	cbz	r0, .L2302
	cbnz	r1, .L2303
.L2302:
	str	r6, [sp]
	mov	r3, r4
	mov	r2, #368
	ldr	r1, .L2314
	ldr	r0, .L2314+4
	bl	printk
	mvn	r0, #2
.L2301:
	add	sp, sp, #12
	@ sp needed
	pop	{r4, r5, r6, r7, pc}
.L2303:
	movw	r3, #4716
	ldr	r0, [r0, r3]
	bl	mpp_trie_get_info
	mov	r5, r0
	cbnz	r0, .L2305
	mov	r3, r6
	mov	r2, #368
	ldr	r1, .L2314
	ldr	r0, .L2314+8
	bl	printk
.L2307:
	mov	r0, #-1
	b	.L2301
.L2305:
	movs	r1, #1
	bl	check_cfg_api_info
	cmp	r0, #0
	bne	.L2307
	ldr	r3, .L2314+12
	ldr	r3, [r3]
	lsls	r3, r3, #29
	bpl	.L2306
	ldrb	r3, [r5, #4]	@ zero_extendqisi2
	ldr	r2, .L2314+16
	and	r3, r3, #15
	ldr	r1, .L2314
	ldr	r0, .L2314+20
	ldr	r3, [r2, r3, lsl #2]
	mov	r2, #368
	str	r3, [sp]
	ldr	r3, [r5]
	bl	printk
.L2306:
	ldr	r3, [r5, #12]
	mov	r2, r7
	mov	r1, r5
	mov	r0, r4
	add	sp, sp, #12
	@ sp needed
	pop	{r4, r5, r6, r7, lr}
	bx	r3
.L2315:
	.align	2
.L2314:
	.word	.LANCHOR2+928
	.word	.LC8
	.word	.LC9
	.word	.LANCHOR0
	.word	cfg_type_names
	.word	.LC10
	.fnend
	.size	mpp_enc_cfg_set_u32, .-mpp_enc_cfg_set_u32
	.align	1
	.global	mpp_enc_cfg_set_s64
	.syntax unified
	.thumb
	.thumb_func
	.fpu softvfp
	.type	mpp_enc_cfg_set_s64, %function
mpp_enc_cfg_set_s64:
	.fnstart
	@ args = 0, pretend = 0, frame = 0
	@ frame_needed = 0, uses_anonymous_args = 0
	push	{r0, r1, r4, r5, r6, r7, r8, lr}
	.save {r4, r5, r6, r7, r8, lr}
	.pad #8
	mov	r8, r1
	mov	r6, r2
	mov	r7, r3
	mov	r4, r0
	cbz	r0, .L2317
	cbnz	r1, .L2318
.L2317:
	str	r8, [sp]
	mov	r3, r4
	movw	r2, #369
	ldr	r1, .L2329
	ldr	r0, .L2329+4
	bl	printk
	mvn	r0, #2
.L2316:
	add	sp, sp, #8
	@ sp needed
	pop	{r4, r5, r6, r7, r8, pc}
.L2318:
	movw	r3, #4716
	ldr	r0, [r0, r3]
	bl	mpp_trie_get_info
	mov	r5, r0
	cbnz	r0, .L2320
	mov	r3, r8
	movw	r2, #369
	ldr	r1, .L2329
	ldr	r0, .L2329+8
	bl	printk
.L2322:
	mov	r0, #-1
	b	.L2316
.L2320:
	movs	r1, #2
	bl	check_cfg_api_info
	cmp	r0, #0
	bne	.L2322
	ldr	r3, .L2329+12
	ldr	r3, [r3]
	lsls	r3, r3, #29
	bpl	.L2321
	ldrb	r3, [r5, #4]	@ zero_extendqisi2
	ldr	r2, .L2329+16
	and	r3, r3, #15
	ldr	r1, .L2329
	ldr	r0, .L2329+20
	ldr	r3, [r2, r3, lsl #2]
	movw	r2, #369
	str	r3, [sp]
	ldr	r3, [r5]
	bl	printk
.L2321:
	ldr	lr, [r5, #12]
	mov	r2, r6
	mov	r3, r7
	mov	r1, r5
	mov	r0, r4
	mov	ip, lr
	add	sp, sp, #8
	@ sp needed
	pop	{r4, r5, r6, r7, r8, lr}
	bx	ip
.L2330:
	.align	2
.L2329:
	.word	.LANCHOR2+948
	.word	.LC8
	.word	.LC9
	.word	.LANCHOR0
	.word	cfg_type_names
	.word	.LC10
	.fnend
	.size	mpp_enc_cfg_set_s64, .-mpp_enc_cfg_set_s64
	.align	1
	.global	mpp_enc_cfg_set_u64
	.syntax unified
	.thumb
	.thumb_func
	.fpu softvfp
	.type	mpp_enc_cfg_set_u64, %function
mpp_enc_cfg_set_u64:
	.fnstart
	@ args = 0, pretend = 0, frame = 0
	@ frame_needed = 0, uses_anonymous_args = 0
	push	{r0, r1, r4, r5, r6, r7, r8, lr}
	.save {r4, r5, r6, r7, r8, lr}
	.pad #8
	mov	r8, r1
	mov	r6, r2
	mov	r7, r3
	mov	r4, r0
	cbz	r0, .L2332
	cbnz	r1, .L2333
.L2332:
	str	r8, [sp]
	mov	r3, r4
	mov	r2, #370
	ldr	r1, .L2344
	ldr	r0, .L2344+4
	bl	printk
	mvn	r0, #2
.L2331:
	add	sp, sp, #8
	@ sp needed
	pop	{r4, r5, r6, r7, r8, pc}
.L2333:
	movw	r3, #4716
	ldr	r0, [r0, r3]
	bl	mpp_trie_get_info
	mov	r5, r0
	cbnz	r0, .L2335
	mov	r3, r8
	mov	r2, #370
	ldr	r1, .L2344
	ldr	r0, .L2344+8
	bl	printk
.L2337:
	mov	r0, #-1
	b	.L2331
.L2335:
	movs	r1, #3
	bl	check_cfg_api_info
	cmp	r0, #0
	bne	.L2337
	ldr	r3, .L2344+12
	ldr	r3, [r3]
	lsls	r3, r3, #29
	bpl	.L2336
	ldrb	r3, [r5, #4]	@ zero_extendqisi2
	ldr	r2, .L2344+16
	and	r3, r3, #15
	ldr	r1, .L2344
	ldr	r0, .L2344+20
	ldr	r3, [r2, r3, lsl #2]
	mov	r2, #370
	str	r3, [sp]
	ldr	r3, [r5]
	bl	printk
.L2336:
	ldr	lr, [r5, #12]
	mov	r2, r6
	mov	r3, r7
	mov	r1, r5
	mov	r0, r4
	mov	ip, lr
	add	sp, sp, #8
	@ sp needed
	pop	{r4, r5, r6, r7, r8, lr}
	bx	ip
.L2345:
	.align	2
.L2344:
	.word	.LANCHOR2+968
	.word	.LC8
	.word	.LC9
	.word	.LANCHOR0
	.word	cfg_type_names
	.word	.LC10
	.fnend
	.size	mpp_enc_cfg_set_u64, .-mpp_enc_cfg_set_u64
	.align	1
	.global	mpp_enc_cfg_set_ptr
	.syntax unified
	.thumb
	.thumb_func
	.fpu softvfp
	.type	mpp_enc_cfg_set_ptr, %function
mpp_enc_cfg_set_ptr:
	.fnstart
	@ args = 0, pretend = 0, frame = 0
	@ frame_needed = 0, uses_anonymous_args = 0
	push	{r0, r1, r2, r4, r5, r6, r7, lr}
	.save {r4, r5, r6, r7, lr}
	.pad #12
	mov	r6, r1
	mov	r7, r2
	mov	r4, r0
	cbz	r0, .L2347
	cbnz	r1, .L2348
.L2347:
	str	r6, [sp]
	mov	r3, r4
	movw	r2, #371
	ldr	r1, .L2359
	ldr	r0, .L2359+4
	bl	printk
	mvn	r0, #2
.L2346:
	add	sp, sp, #12
	@ sp needed
	pop	{r4, r5, r6, r7, pc}
.L2348:
	movw	r3, #4716
	ldr	r0, [r0, r3]
	bl	mpp_trie_get_info
	mov	r5, r0
	cbnz	r0, .L2350
	mov	r3, r6
	movw	r2, #371
	ldr	r1, .L2359
	ldr	r0, .L2359+8
	bl	printk
.L2352:
	mov	r0, #-1
	b	.L2346
.L2350:
	movs	r1, #4
	bl	check_cfg_api_info
	cmp	r0, #0
	bne	.L2352
	ldr	r3, .L2359+12
	ldr	r3, [r3]
	lsls	r3, r3, #29
	bpl	.L2351
	ldrb	r3, [r5, #4]	@ zero_extendqisi2
	ldr	r2, .L2359+16
	and	r3, r3, #15
	ldr	r1, .L2359
	ldr	r0, .L2359+20
	ldr	r3, [r2, r3, lsl #2]
	movw	r2, #371
	str	r3, [sp]
	ldr	r3, [r5]
	bl	printk
.L2351:
	ldr	r3, [r5, #12]
	mov	r2, r7
	mov	r1, r5
	mov	r0, r4
	add	sp, sp, #12
	@ sp needed
	pop	{r4, r5, r6, r7, lr}
	bx	r3
.L2360:
	.align	2
.L2359:
	.word	.LANCHOR2+988
	.word	.LC8
	.word	.LC9
	.word	.LANCHOR0
	.word	cfg_type_names
	.word	.LC10
	.fnend
	.size	mpp_enc_cfg_set_ptr, .-mpp_enc_cfg_set_ptr
	.align	1
	.global	mpp_enc_cfg_set_st
	.syntax unified
	.thumb
	.thumb_func
	.fpu softvfp
	.type	mpp_enc_cfg_set_st, %function
mpp_enc_cfg_set_st:
	.fnstart
	@ args = 0, pretend = 0, frame = 0
	@ frame_needed = 0, uses_anonymous_args = 0
	push	{r0, r1, r2, r4, r5, r6, r7, lr}
	.save {r4, r5, r6, r7, lr}
	.pad #12
	mov	r6, r1
	mov	r7, r2
	mov	r4, r0
	cbz	r0, .L2362
	cbnz	r1, .L2363
.L2362:
	str	r6, [sp]
	mov	r3, r4
	mov	r2, #372
	ldr	r1, .L2374
	ldr	r0, .L2374+4
	bl	printk
	mvn	r0, #2
.L2361:
	add	sp, sp, #12
	@ sp needed
	pop	{r4, r5, r6, r7, pc}
.L2363:
	movw	r3, #4716
	ldr	r0, [r0, r3]
	bl	mpp_trie_get_info
	mov	r5, r0
	cbnz	r0, .L2365
	mov	r3, r6
	mov	r2, #372
	ldr	r1, .L2374
	ldr	r0, .L2374+8
	bl	printk
.L2367:
	mov	r0, #-1
	b	.L2361
.L2365:
	movs	r1, #5
	bl	check_cfg_api_info
	cmp	r0, #0
	bne	.L2367
	ldr	r3, .L2374+12
	ldr	r3, [r3]
	lsls	r3, r3, #29
	bpl	.L2366
	ldrb	r3, [r5, #4]	@ zero_extendqisi2
	ldr	r2, .L2374+16
	and	r3, r3, #15
	ldr	r1, .L2374
	ldr	r0, .L2374+20
	ldr	r3, [r2, r3, lsl #2]
	mov	r2, #372
	str	r3, [sp]
	ldr	r3, [r5]
	bl	printk
.L2366:
	ldr	r3, [r5, #12]
	mov	r2, r7
	mov	r1, r5
	mov	r0, r4
	add	sp, sp, #12
	@ sp needed
	pop	{r4, r5, r6, r7, lr}
	bx	r3
.L2375:
	.align	2
.L2374:
	.word	.LANCHOR2+1008
	.word	.LC8
	.word	.LC9
	.word	.LANCHOR0
	.word	cfg_type_names
	.word	.LC10
	.fnend
	.size	mpp_enc_cfg_set_st, .-mpp_enc_cfg_set_st
	.align	1
	.global	mpp_enc_cfg_get_s32
	.syntax unified
	.thumb
	.thumb_func
	.fpu softvfp
	.type	mpp_enc_cfg_get_s32, %function
mpp_enc_cfg_get_s32:
	.fnstart
	@ args = 0, pretend = 0, frame = 0
	@ frame_needed = 0, uses_anonymous_args = 0
	push	{r0, r1, r2, r4, r5, r6, r7, lr}
	.save {r4, r5, r6, r7, lr}
	.pad #12
	mov	r6, r1
	mov	r7, r2
	mov	r4, r0
	cbz	r0, .L2377
	cbnz	r1, .L2378
.L2377:
	str	r6, [sp]
	mov	r3, r4
	mov	r2, #400
	ldr	r1, .L2389
	ldr	r0, .L2389+4
	bl	printk
	mvn	r0, #2
.L2376:
	add	sp, sp, #12
	@ sp needed
	pop	{r4, r5, r6, r7, pc}
.L2378:
	movw	r3, #4716
	ldr	r0, [r0, r3]
	bl	mpp_trie_get_info
	mov	r5, r0
	cbnz	r0, .L2380
	mov	r3, r6
	mov	r2, #400
	ldr	r1, .L2389
	ldr	r0, .L2389+8
	bl	printk
.L2382:
	mov	r0, #-1
	b	.L2376
.L2380:
	movs	r1, #0
	bl	check_cfg_api_info
	cmp	r0, #0
	bne	.L2382
	ldr	r3, .L2389+12
	ldr	r3, [r3]
	lsls	r3, r3, #28
	bpl	.L2381
	ldrb	r3, [r5, #4]	@ zero_extendqisi2
	ldr	r2, .L2389+16
	and	r3, r3, #15
	ldr	r1, .L2389
	ldr	r0, .L2389+20
	ldr	r3, [r2, r3, lsl #2]
	mov	r2, #400
	str	r3, [sp]
	ldr	r3, [r5]
	bl	printk
.L2381:
	ldr	r3, [r5, #16]
	mov	r2, r7
	mov	r1, r5
	mov	r0, r4
	add	sp, sp, #12
	@ sp needed
	pop	{r4, r5, r6, r7, lr}
	bx	r3
.L2390:
	.align	2
.L2389:
	.word	.LANCHOR2+1027
	.word	.LC8
	.word	.LC11
	.word	.LANCHOR0
	.word	cfg_type_names
	.word	.LC10
	.fnend
	.size	mpp_enc_cfg_get_s32, .-mpp_enc_cfg_get_s32
	.align	1
	.global	mpp_enc_cfg_get_u32
	.syntax unified
	.thumb
	.thumb_func
	.fpu softvfp
	.type	mpp_enc_cfg_get_u32, %function
mpp_enc_cfg_get_u32:
	.fnstart
	@ args = 0, pretend = 0, frame = 0
	@ frame_needed = 0, uses_anonymous_args = 0
	push	{r0, r1, r2, r4, r5, r6, r7, lr}
	.save {r4, r5, r6, r7, lr}
	.pad #12
	mov	r6, r1
	mov	r7, r2
	mov	r4, r0
	cbz	r0, .L2392
	cbnz	r1, .L2393
.L2392:
	str	r6, [sp]
	mov	r3, r4
	movw	r2, #401
	ldr	r1, .L2404
	ldr	r0, .L2404+4
	bl	printk
	mvn	r0, #2
.L2391:
	add	sp, sp, #12
	@ sp needed
	pop	{r4, r5, r6, r7, pc}
.L2393:
	movw	r3, #4716
	ldr	r0, [r0, r3]
	bl	mpp_trie_get_info
	mov	r5, r0
	cbnz	r0, .L2395
	mov	r3, r6
	movw	r2, #401
	ldr	r1, .L2404
	ldr	r0, .L2404+8
	bl	printk
.L2397:
	mov	r0, #-1
	b	.L2391
.L2395:
	movs	r1, #1
	bl	check_cfg_api_info
	cmp	r0, #0
	bne	.L2397
	ldr	r3, .L2404+12
	ldr	r3, [r3]
	lsls	r3, r3, #28
	bpl	.L2396
	ldrb	r3, [r5, #4]	@ zero_extendqisi2
	ldr	r2, .L2404+16
	and	r3, r3, #15
	ldr	r1, .L2404
	ldr	r0, .L2404+20
	ldr	r3, [r2, r3, lsl #2]
	movw	r2, #401
	str	r3, [sp]
	ldr	r3, [r5]
	bl	printk
.L2396:
	ldr	r3, [r5, #16]
	mov	r2, r7
	mov	r1, r5
	mov	r0, r4
	add	sp, sp, #12
	@ sp needed
	pop	{r4, r5, r6, r7, lr}
	bx	r3
.L2405:
	.align	2
.L2404:
	.word	.LANCHOR2+1047
	.word	.LC8
	.word	.LC11
	.word	.LANCHOR0
	.word	cfg_type_names
	.word	.LC10
	.fnend
	.size	mpp_enc_cfg_get_u32, .-mpp_enc_cfg_get_u32
	.align	1
	.global	mpp_enc_cfg_get_s64
	.syntax unified
	.thumb
	.thumb_func
	.fpu softvfp
	.type	mpp_enc_cfg_get_s64, %function
mpp_enc_cfg_get_s64:
	.fnstart
	@ args = 0, pretend = 0, frame = 0
	@ frame_needed = 0, uses_anonymous_args = 0
	push	{r0, r1, r2, r4, r5, r6, r7, lr}
	.save {r4, r5, r6, r7, lr}
	.pad #12
	mov	r6, r1
	mov	r7, r2
	mov	r4, r0
	cbz	r0, .L2407
	cbnz	r1, .L2408
.L2407:
	str	r6, [sp]
	mov	r3, r4
	mov	r2, #402
	ldr	r1, .L2419
	ldr	r0, .L2419+4
	bl	printk
	mvn	r0, #2
.L2406:
	add	sp, sp, #12
	@ sp needed
	pop	{r4, r5, r6, r7, pc}
.L2408:
	movw	r3, #4716
	ldr	r0, [r0, r3]
	bl	mpp_trie_get_info
	mov	r5, r0
	cbnz	r0, .L2410
	mov	r3, r6
	mov	r2, #402
	ldr	r1, .L2419
	ldr	r0, .L2419+8
	bl	printk
.L2412:
	mov	r0, #-1
	b	.L2406
.L2410:
	movs	r1, #2
	bl	check_cfg_api_info
	cmp	r0, #0
	bne	.L2412
	ldr	r3, .L2419+12
	ldr	r3, [r3]
	lsls	r3, r3, #28
	bpl	.L2411
	ldrb	r3, [r5, #4]	@ zero_extendqisi2
	ldr	r2, .L2419+16
	and	r3, r3, #15
	ldr	r1, .L2419
	ldr	r0, .L2419+20
	ldr	r3, [r2, r3, lsl #2]
	mov	r2, #402
	str	r3, [sp]
	ldr	r3, [r5]
	bl	printk
.L2411:
	ldr	r3, [r5, #16]
	mov	r2, r7
	mov	r1, r5
	mov	r0, r4
	add	sp, sp, #12
	@ sp needed
	pop	{r4, r5, r6, r7, lr}
	bx	r3
.L2420:
	.align	2
.L2419:
	.word	.LANCHOR2+1067
	.word	.LC8
	.word	.LC11
	.word	.LANCHOR0
	.word	cfg_type_names
	.word	.LC10
	.fnend
	.size	mpp_enc_cfg_get_s64, .-mpp_enc_cfg_get_s64
	.align	1
	.global	mpp_enc_cfg_get_u64
	.syntax unified
	.thumb
	.thumb_func
	.fpu softvfp
	.type	mpp_enc_cfg_get_u64, %function
mpp_enc_cfg_get_u64:
	.fnstart
	@ args = 0, pretend = 0, frame = 0
	@ frame_needed = 0, uses_anonymous_args = 0
	push	{r0, r1, r2, r4, r5, r6, r7, lr}
	.save {r4, r5, r6, r7, lr}
	.pad #12
	mov	r6, r1
	mov	r7, r2
	mov	r4, r0
	cbz	r0, .L2422
	cbnz	r1, .L2423
.L2422:
	str	r6, [sp]
	mov	r3, r4
	movw	r2, #403
	ldr	r1, .L2434
	ldr	r0, .L2434+4
	bl	printk
	mvn	r0, #2
.L2421:
	add	sp, sp, #12
	@ sp needed
	pop	{r4, r5, r6, r7, pc}
.L2423:
	movw	r3, #4716
	ldr	r0, [r0, r3]
	bl	mpp_trie_get_info
	mov	r5, r0
	cbnz	r0, .L2425
	mov	r3, r6
	movw	r2, #403
	ldr	r1, .L2434
	ldr	r0, .L2434+8
	bl	printk
.L2427:
	mov	r0, #-1
	b	.L2421
.L2425:
	movs	r1, #3
	bl	check_cfg_api_info
	cmp	r0, #0
	bne	.L2427
	ldr	r3, .L2434+12
	ldr	r3, [r3]
	lsls	r3, r3, #28
	bpl	.L2426
	ldrb	r3, [r5, #4]	@ zero_extendqisi2
	ldr	r2, .L2434+16
	and	r3, r3, #15
	ldr	r1, .L2434
	ldr	r0, .L2434+20
	ldr	r3, [r2, r3, lsl #2]
	movw	r2, #403
	str	r3, [sp]
	ldr	r3, [r5]
	bl	printk
.L2426:
	ldr	r3, [r5, #16]
	mov	r2, r7
	mov	r1, r5
	mov	r0, r4
	add	sp, sp, #12
	@ sp needed
	pop	{r4, r5, r6, r7, lr}
	bx	r3
.L2435:
	.align	2
.L2434:
	.word	.LANCHOR2+1087
	.word	.LC8
	.word	.LC11
	.word	.LANCHOR0
	.word	cfg_type_names
	.word	.LC10
	.fnend
	.size	mpp_enc_cfg_get_u64, .-mpp_enc_cfg_get_u64
	.align	1
	.global	mpp_enc_cfg_get_ptr
	.syntax unified
	.thumb
	.thumb_func
	.fpu softvfp
	.type	mpp_enc_cfg_get_ptr, %function
mpp_enc_cfg_get_ptr:
	.fnstart
	@ args = 0, pretend = 0, frame = 0
	@ frame_needed = 0, uses_anonymous_args = 0
	push	{r0, r1, r2, r4, r5, r6, r7, lr}
	.save {r4, r5, r6, r7, lr}
	.pad #12
	mov	r6, r1
	mov	r7, r2
	mov	r4, r0
	cbz	r0, .L2437
	cbnz	r1, .L2438
.L2437:
	str	r6, [sp]
	mov	r3, r4
	mov	r2, #404
	ldr	r1, .L2449
	ldr	r0, .L2449+4
	bl	printk
	mvn	r0, #2
.L2436:
	add	sp, sp, #12
	@ sp needed
	pop	{r4, r5, r6, r7, pc}
.L2438:
	movw	r3, #4716
	ldr	r0, [r0, r3]
	bl	mpp_trie_get_info
	mov	r5, r0
	cbnz	r0, .L2440
	mov	r3, r6
	mov	r2, #404
	ldr	r1, .L2449
	ldr	r0, .L2449+8
	bl	printk
.L2442:
	mov	r0, #-1
	b	.L2436
.L2440:
	movs	r1, #4
	bl	check_cfg_api_info
	cmp	r0, #0
	bne	.L2442
	ldr	r3, .L2449+12
	ldr	r3, [r3]
	lsls	r3, r3, #28
	bpl	.L2441
	ldrb	r3, [r5, #4]	@ zero_extendqisi2
	ldr	r2, .L2449+16
	and	r3, r3, #15
	ldr	r1, .L2449
	ldr	r0, .L2449+20
	ldr	r3, [r2, r3, lsl #2]
	mov	r2, #404
	str	r3, [sp]
	ldr	r3, [r5]
	bl	printk
.L2441:
	ldr	r3, [r5, #16]
	mov	r2, r7
	mov	r1, r5
	mov	r0, r4
	add	sp, sp, #12
	@ sp needed
	pop	{r4, r5, r6, r7, lr}
	bx	r3
.L2450:
	.align	2
.L2449:
	.word	.LANCHOR2+1107
	.word	.LC8
	.word	.LC11
	.word	.LANCHOR0
	.word	cfg_type_names
	.word	.LC10
	.fnend
	.size	mpp_enc_cfg_get_ptr, .-mpp_enc_cfg_get_ptr
	.align	1
	.global	mpp_enc_cfg_get_st
	.syntax unified
	.thumb
	.thumb_func
	.fpu softvfp
	.type	mpp_enc_cfg_get_st, %function
mpp_enc_cfg_get_st:
	.fnstart
	@ args = 0, pretend = 0, frame = 0
	@ frame_needed = 0, uses_anonymous_args = 0
	push	{r0, r1, r2, r4, r5, r6, r7, lr}
	.save {r4, r5, r6, r7, lr}
	.pad #12
	mov	r6, r1
	mov	r7, r2
	mov	r4, r0
	cbz	r0, .L2452
	cbnz	r1, .L2453
.L2452:
	str	r6, [sp]
	mov	r3, r4
	movw	r2, #405
	ldr	r1, .L2464
	ldr	r0, .L2464+4
	bl	printk
	mvn	r0, #2
.L2451:
	add	sp, sp, #12
	@ sp needed
	pop	{r4, r5, r6, r7, pc}
.L2453:
	movw	r3, #4716
	ldr	r0, [r0, r3]
	bl	mpp_trie_get_info
	mov	r5, r0
	cbnz	r0, .L2455
	mov	r3, r6
	movw	r2, #405
	ldr	r1, .L2464
	ldr	r0, .L2464+8
	bl	printk
.L2457:
	mov	r0, #-1
	b	.L2451
.L2455:
	movs	r1, #5
	bl	check_cfg_api_info
	cmp	r0, #0
	bne	.L2457
	ldr	r3, .L2464+12
	ldr	r3, [r3]
	lsls	r3, r3, #28
	bpl	.L2456
	ldrb	r3, [r5, #4]	@ zero_extendqisi2
	ldr	r2, .L2464+16
	and	r3, r3, #15
	ldr	r1, .L2464
	ldr	r0, .L2464+20
	ldr	r3, [r2, r3, lsl #2]
	movw	r2, #405
	str	r3, [sp]
	ldr	r3, [r5]
	bl	printk
.L2456:
	ldr	r3, [r5, #16]
	mov	r2, r7
	mov	r1, r5
	mov	r0, r4
	add	sp, sp, #12
	@ sp needed
	pop	{r4, r5, r6, r7, lr}
	bx	r3
.L2465:
	.align	2
.L2464:
	.word	.LANCHOR2+1127
	.word	.LC8
	.word	.LC11
	.word	.LANCHOR0
	.word	cfg_type_names
	.word	.LC10
	.fnend
	.size	mpp_enc_cfg_get_st, .-mpp_enc_cfg_get_st
	.section	.text.unlikely
	.align	1
	.global	mpp_enc_cfg_show
	.syntax unified
	.thumb
	.thumb_func
	.fpu softvfp
	.type	mpp_enc_cfg_show, %function
mpp_enc_cfg_show:
	.fnstart
	@ args = 0, pretend = 0, frame = 0
	@ frame_needed = 0, uses_anonymous_args = 0
	push	{r0, r1, r2, r4, r5, r6, r7, lr}
	.save {r4, r5, r6, r7, lr}
	.pad #12
	movw	r1, #411
	ldr	r0, .L2469
	movs	r4, #0
	bl	printk
	ldr	r5, .L2469+4
	ldr	r7, .L2469+8
	ldr	r6, .L2469+12
.L2467:
	ldr	r2, [r5], #4
	movw	r1, #415
	mov	r0, r6
	adds	r4, r4, #1
	ldrb	r3, [r2, #4]	@ zero_extendqisi2
	ldr	r2, [r2]
	and	r3, r3, #15
	ldr	r3, [r7, r3, lsl #2]
	bl	printk
	cmp	r4, #126
	bne	.L2467
	movw	r1, #417
	ldr	r0, .L2469+16
	bl	printk
	ldr	r3, .L2469+20
	ldr	r0, [r3, #4]
	bl	mpp_trie_get_node_count
	mov	r3, #10240
	mov	r2, r4
	movw	r1, #421
	str	r0, [sp]
	ldr	r0, .L2469+24
	bl	printk
	add	sp, sp, #12
	@ sp needed
	pop	{r4, r5, r6, r7, pc}
.L2470:
	.align	2
.L2469:
	.word	.LC12
	.word	.LANCHOR2+332
	.word	cfg_type_names
	.word	.LC13
	.word	.LC14
	.word	.LANCHOR0
	.word	.LC15
	.fnend
	.size	mpp_enc_cfg_show, .-mpp_enc_cfg_show
	.global	mpp_enc_cfg_debug
	.section	.rodata
	.align	2
	.set	.LANCHOR1,. + 0
	.set	.LANCHOR2,. + 4344
	.type	__func__.8883, %object
	.size	__func__.8883, 19
__func__.8883:
	.ascii	"set_base_low_delay\000"
	.type	__func__.8899, %object
	.size	__func__.8899, 19
__func__.8899:
	.ascii	"get_base_low_delay\000"
	.type	__func__.8908, %object
	.size	__func__.8908, 12
__func__.8908:
	.ascii	"set_rc_mode\000"
	.type	__func__.8924, %object
	.size	__func__.8924, 12
__func__.8924:
	.ascii	"get_rc_mode\000"
	.type	__func__.8933, %object
	.size	__func__.8933, 18
__func__.8933:
	.ascii	"set_rc_bps_target\000"
	.type	__func__.8949, %object
	.size	__func__.8949, 18
__func__.8949:
	.ascii	"get_rc_bps_target\000"
	.type	__func__.8958, %object
	.size	__func__.8958, 15
__func__.8958:
	.ascii	"set_rc_bps_max\000"
	.type	__func__.8974, %object
	.size	__func__.8974, 15
__func__.8974:
	.ascii	"get_rc_bps_max\000"
	.type	__func__.8983, %object
	.size	__func__.8983, 15
__func__.8983:
	.ascii	"set_rc_bps_min\000"
	.type	__func__.8999, %object
	.size	__func__.8999, 15
__func__.8999:
	.ascii	"get_rc_bps_min\000"
	.type	__func__.9008, %object
	.size	__func__.9008, 19
__func__.9008:
	.ascii	"set_rc_fps_in_flex\000"
	.type	__func__.9024, %object
	.size	__func__.9024, 19
__func__.9024:
	.ascii	"get_rc_fps_in_flex\000"
	.type	__func__.9033, %object
	.size	__func__.9033, 18
__func__.9033:
	.ascii	"set_rc_fps_in_num\000"
	.type	__func__.9049, %object
	.size	__func__.9049, 18
__func__.9049:
	.ascii	"get_rc_fps_in_num\000"
	.type	__func__.9058, %object
	.size	__func__.9058, 21
__func__.9058:
	.ascii	"set_rc_fps_in_denorm\000"
	.type	__func__.9074, %object
	.size	__func__.9074, 21
__func__.9074:
	.ascii	"get_rc_fps_in_denorm\000"
	.type	__func__.9083, %object
	.size	__func__.9083, 20
__func__.9083:
	.ascii	"set_rc_fps_out_flex\000"
	.type	__func__.9099, %object
	.size	__func__.9099, 20
__func__.9099:
	.ascii	"get_rc_fps_out_flex\000"
	.type	__func__.9108, %object
	.size	__func__.9108, 19
__func__.9108:
	.ascii	"set_rc_fps_out_num\000"
	.type	__func__.9124, %object
	.size	__func__.9124, 19
__func__.9124:
	.ascii	"get_rc_fps_out_num\000"
	.type	__func__.9133, %object
	.size	__func__.9133, 22
__func__.9133:
	.ascii	"set_rc_fps_out_denorm\000"
	.type	__func__.9149, %object
	.size	__func__.9149, 22
__func__.9149:
	.ascii	"get_rc_fps_out_denorm\000"
	.type	__func__.9158, %object
	.size	__func__.9158, 11
__func__.9158:
	.ascii	"set_rc_gop\000"
	.type	__func__.9174, %object
	.size	__func__.9174, 11
__func__.9174:
	.ascii	"get_rc_gop\000"
	.type	__func__.9183, %object
	.size	__func__.9183, 23
__func__.9183:
	.ascii	"set_rc_max_reenc_times\000"
	.type	__func__.9199, %object
	.size	__func__.9199, 23
__func__.9199:
	.ascii	"get_rc_max_reenc_times\000"
	.type	__func__.9208, %object
	.size	__func__.9208, 16
__func__.9208:
	.ascii	"set_rc_priority\000"
	.type	__func__.9224, %object
	.size	__func__.9224, 16
__func__.9224:
	.ascii	"get_rc_priority\000"
	.type	__func__.9233, %object
	.size	__func__.9233, 17
__func__.9233:
	.ascii	"set_rc_drop_mode\000"
	.type	__func__.9249, %object
	.size	__func__.9249, 17
__func__.9249:
	.ascii	"get_rc_drop_mode\000"
	.type	__func__.9258, %object
	.size	__func__.9258, 16
__func__.9258:
	.ascii	"set_rc_drop_thd\000"
	.type	__func__.9274, %object
	.size	__func__.9274, 16
__func__.9274:
	.ascii	"get_rc_drop_thd\000"
	.type	__func__.9283, %object
	.size	__func__.9283, 16
__func__.9283:
	.ascii	"set_rc_drop_gap\000"
	.type	__func__.9299, %object
	.size	__func__.9299, 16
__func__.9299:
	.ascii	"get_rc_drop_gap\000"
	.type	__func__.9308, %object
	.size	__func__.9308, 18
__func__.9308:
	.ascii	"set_rc_max_i_prop\000"
	.type	__func__.9324, %object
	.size	__func__.9324, 18
__func__.9324:
	.ascii	"get_rc_max_i_prop\000"
	.type	__func__.9333, %object
	.size	__func__.9333, 18
__func__.9333:
	.ascii	"set_rc_min_i_prop\000"
	.type	__func__.9349, %object
	.size	__func__.9349, 18
__func__.9349:
	.ascii	"get_rc_min_i_prop\000"
	.type	__func__.9358, %object
	.size	__func__.9358, 21
__func__.9358:
	.ascii	"set_rc_init_ip_ratio\000"
	.type	__func__.9374, %object
	.size	__func__.9374, 21
__func__.9374:
	.ascii	"get_rc_init_ip_ratio\000"
	.type	__func__.9383, %object
	.size	__func__.9383, 18
__func__.9383:
	.ascii	"set_rc_super_mode\000"
	.type	__func__.9399, %object
	.size	__func__.9399, 18
__func__.9399:
	.ascii	"get_rc_super_mode\000"
	.type	__func__.9408, %object
	.size	__func__.9408, 19
__func__.9408:
	.ascii	"set_rc_super_i_thd\000"
	.type	__func__.9424, %object
	.size	__func__.9424, 19
__func__.9424:
	.ascii	"get_rc_super_i_thd\000"
	.type	__func__.9433, %object
	.size	__func__.9433, 19
__func__.9433:
	.ascii	"set_rc_super_p_thd\000"
	.type	__func__.9449, %object
	.size	__func__.9449, 19
__func__.9449:
	.ascii	"get_rc_super_p_thd\000"
	.type	__func__.9458, %object
	.size	__func__.9458, 19
__func__.9458:
	.ascii	"set_rc_debreath_en\000"
	.type	__func__.9474, %object
	.size	__func__.9474, 19
__func__.9474:
	.ascii	"get_rc_debreath_en\000"
	.type	__func__.9483, %object
	.size	__func__.9483, 25
__func__.9483:
	.ascii	"set_rc_debreath_strength\000"
	.type	__func__.9499, %object
	.size	__func__.9499, 25
__func__.9499:
	.ascii	"get_rc_debreath_strength\000"
	.type	__func__.9508, %object
	.size	__func__.9508, 15
__func__.9508:
	.ascii	"set_rc_qp_init\000"
	.type	__func__.9524, %object
	.size	__func__.9524, 15
__func__.9524:
	.ascii	"get_rc_qp_init\000"
	.type	__func__.9533, %object
	.size	__func__.9533, 14
__func__.9533:
	.ascii	"set_rc_qp_min\000"
	.type	__func__.9549, %object
	.size	__func__.9549, 14
__func__.9549:
	.ascii	"get_rc_qp_min\000"
	.type	__func__.9558, %object
	.size	__func__.9558, 14
__func__.9558:
	.ascii	"set_rc_qp_max\000"
	.type	__func__.9574, %object
	.size	__func__.9574, 14
__func__.9574:
	.ascii	"get_rc_qp_max\000"
	.type	__func__.9583, %object
	.size	__func__.9583, 16
__func__.9583:
	.ascii	"set_rc_qp_min_i\000"
	.type	__func__.9599, %object
	.size	__func__.9599, 16
__func__.9599:
	.ascii	"get_rc_qp_min_i\000"
	.type	__func__.9608, %object
	.size	__func__.9608, 16
__func__.9608:
	.ascii	"set_rc_qp_max_i\000"
	.type	__func__.9624, %object
	.size	__func__.9624, 16
__func__.9624:
	.ascii	"get_rc_qp_max_i\000"
	.type	__func__.9633, %object
	.size	__func__.9633, 15
__func__.9633:
	.ascii	"set_rc_qp_step\000"
	.type	__func__.9649, %object
	.size	__func__.9649, 15
__func__.9649:
	.ascii	"get_rc_qp_step\000"
	.type	__func__.9658, %object
	.size	__func__.9658, 13
__func__.9658:
	.ascii	"set_rc_qp_ip\000"
	.type	__func__.9674, %object
	.size	__func__.9674, 13
__func__.9674:
	.ascii	"get_rc_qp_ip\000"
	.type	__func__.9683, %object
	.size	__func__.9683, 13
__func__.9683:
	.ascii	"set_rc_qp_vi\000"
	.type	__func__.9699, %object
	.size	__func__.9699, 13
__func__.9699:
	.ascii	"get_rc_qp_vi\000"
	.type	__func__.9708, %object
	.size	__func__.9708, 18
__func__.9708:
	.ascii	"set_rc_hier_qp_en\000"
	.type	__func__.9724, %object
	.size	__func__.9724, 18
__func__.9724:
	.ascii	"get_rc_hier_qp_en\000"
	.type	__func__.9733, %object
	.size	__func__.9733, 21
__func__.9733:
	.ascii	"set_rc_hier_qp_delta\000"
	.type	__func__.9749, %object
	.size	__func__.9749, 21
__func__.9749:
	.ascii	"get_rc_hier_qp_delta\000"
	.type	__func__.9758, %object
	.size	__func__.9758, 22
__func__.9758:
	.ascii	"set_rc_hier_frame_num\000"
	.type	__func__.9774, %object
	.size	__func__.9774, 22
__func__.9774:
	.ascii	"get_rc_hier_frame_num\000"
	.type	__func__.9783, %object
	.size	__func__.9783, 18
__func__.9783:
	.ascii	"set_rc_stats_time\000"
	.type	__func__.9799, %object
	.size	__func__.9799, 18
__func__.9799:
	.ascii	"get_rc_stats_time\000"
	.type	__func__.9808, %object
	.size	__func__.9808, 23
__func__.9808:
	.ascii	"set_rc_fm_lvl_qp_min_i\000"
	.type	__func__.9824, %object
	.size	__func__.9824, 23
__func__.9824:
	.ascii	"get_rc_fm_lvl_qp_min_i\000"
	.type	__func__.9833, %object
	.size	__func__.9833, 23
__func__.9833:
	.ascii	"set_rc_fm_lvl_qp_min_p\000"
	.type	__func__.9849, %object
	.size	__func__.9849, 23
__func__.9849:
	.ascii	"get_rc_fm_lvl_qp_min_p\000"
	.type	__func__.9858, %object
	.size	__func__.9858, 23
__func__.9858:
	.ascii	"set_rc_fm_lvl_qp_max_i\000"
	.type	__func__.9874, %object
	.size	__func__.9874, 23
__func__.9874:
	.ascii	"get_rc_fm_lvl_qp_max_i\000"
	.type	__func__.9883, %object
	.size	__func__.9883, 23
__func__.9883:
	.ascii	"set_rc_fm_lvl_qp_max_p\000"
	.type	__func__.9899, %object
	.size	__func__.9899, 23
__func__.9899:
	.ascii	"get_rc_fm_lvl_qp_max_p\000"
	.type	__func__.9908, %object
	.size	__func__.9908, 15
__func__.9908:
	.ascii	"set_prep_width\000"
	.type	__func__.9924, %object
	.size	__func__.9924, 15
__func__.9924:
	.ascii	"get_prep_width\000"
	.type	__func__.9933, %object
	.size	__func__.9933, 16
__func__.9933:
	.ascii	"set_prep_height\000"
	.type	__func__.9949, %object
	.size	__func__.9949, 16
__func__.9949:
	.ascii	"get_prep_height\000"
	.type	__func__.9958, %object
	.size	__func__.9958, 20
__func__.9958:
	.ascii	"set_prep_hor_stride\000"
	.type	__func__.9974, %object
	.size	__func__.9974, 20
__func__.9974:
	.ascii	"get_prep_hor_stride\000"
	.type	__func__.9983, %object
	.size	__func__.9983, 20
__func__.9983:
	.ascii	"set_prep_ver_stride\000"
	.type	__func__.9999, %object
	.size	__func__.9999, 20
__func__.9999:
	.ascii	"get_prep_ver_stride\000"
	.type	__func__.10008, %object
	.size	__func__.10008, 19
__func__.10008:
	.ascii	"set_prep_max_width\000"
	.type	__func__.10024, %object
	.size	__func__.10024, 19
__func__.10024:
	.ascii	"get_prep_max_width\000"
	.type	__func__.10033, %object
	.size	__func__.10033, 20
__func__.10033:
	.ascii	"set_prep_max_height\000"
	.type	__func__.10049, %object
	.size	__func__.10049, 20
__func__.10049:
	.ascii	"get_prep_max_height\000"
	.type	__func__.10058, %object
	.size	__func__.10058, 16
__func__.10058:
	.ascii	"set_prep_format\000"
	.type	__func__.10074, %object
	.size	__func__.10074, 16
__func__.10074:
	.ascii	"get_prep_format\000"
	.type	__func__.10083, %object
	.size	__func__.10083, 20
__func__.10083:
	.ascii	"set_prep_colorspace\000"
	.type	__func__.10099, %object
	.size	__func__.10099, 20
__func__.10099:
	.ascii	"get_prep_colorspace\000"
	.type	__func__.10108, %object
	.size	__func__.10108, 19
__func__.10108:
	.ascii	"set_prep_colorprim\000"
	.type	__func__.10124, %object
	.size	__func__.10124, 19
__func__.10124:
	.ascii	"get_prep_colorprim\000"
	.type	__func__.10133, %object
	.size	__func__.10133, 18
__func__.10133:
	.ascii	"set_prep_colortrc\000"
	.type	__func__.10149, %object
	.size	__func__.10149, 18
__func__.10149:
	.ascii	"get_prep_colortrc\000"
	.type	__func__.10158, %object
	.size	__func__.10158, 20
__func__.10158:
	.ascii	"set_prep_colorrange\000"
	.type	__func__.10174, %object
	.size	__func__.10174, 20
__func__.10174:
	.ascii	"get_prep_colorrange\000"
	.type	__func__.10183, %object
	.size	__func__.10183, 15
__func__.10183:
	.ascii	"set_prep_range\000"
	.type	__func__.10199, %object
	.size	__func__.10199, 15
__func__.10199:
	.ascii	"get_prep_range\000"
	.type	__func__.10208, %object
	.size	__func__.10208, 18
__func__.10208:
	.ascii	"set_prep_rotation\000"
	.type	__func__.10224, %object
	.size	__func__.10224, 18
__func__.10224:
	.ascii	"get_prep_rotation\000"
	.type	__func__.10233, %object
	.size	__func__.10233, 19
__func__.10233:
	.ascii	"set_prep_mirroring\000"
	.type	__func__.10249, %object
	.size	__func__.10249, 19
__func__.10249:
	.ascii	"get_prep_mirroring\000"
	.type	__func__.10258, %object
	.size	__func__.10258, 15
__func__.10258:
	.ascii	"set_codec_type\000"
	.type	__func__.10274, %object
	.size	__func__.10274, 15
__func__.10274:
	.ascii	"get_codec_type\000"
	.type	__func__.10283, %object
	.size	__func__.10283, 21
__func__.10283:
	.ascii	"set_h264_stream_type\000"
	.type	__func__.10299, %object
	.size	__func__.10299, 21
__func__.10299:
	.ascii	"get_h264_stream_type\000"
	.type	__func__.10308, %object
	.size	__func__.10308, 17
__func__.10308:
	.ascii	"set_h264_profile\000"
	.type	__func__.10324, %object
	.size	__func__.10324, 17
__func__.10324:
	.ascii	"get_h264_profile\000"
	.type	__func__.10333, %object
	.size	__func__.10333, 15
__func__.10333:
	.ascii	"set_h264_level\000"
	.type	__func__.10349, %object
	.size	__func__.10349, 15
__func__.10349:
	.ascii	"get_h264_level\000"
	.type	__func__.10358, %object
	.size	__func__.10358, 18
__func__.10358:
	.ascii	"set_h264_poc_type\000"
	.type	__func__.10374, %object
	.size	__func__.10374, 18
__func__.10374:
	.ascii	"get_h264_poc_type\000"
	.type	__func__.10383, %object
	.size	__func__.10383, 26
__func__.10383:
	.ascii	"set_h264_log2_max_poc_lsb\000"
	.type	__func__.10399, %object
	.size	__func__.10399, 26
__func__.10399:
	.ascii	"get_h264_log2_max_poc_lsb\000"
	.type	__func__.10408, %object
	.size	__func__.10408, 26
__func__.10408:
	.ascii	"set_h264_log2_max_frm_num\000"
	.type	__func__.10424, %object
	.size	__func__.10424, 26
__func__.10424:
	.ascii	"get_h264_log2_max_frm_num\000"
	.type	__func__.10433, %object
	.size	__func__.10433, 26
__func__.10433:
	.ascii	"set_h264_gaps_not_allowed\000"
	.type	__func__.10449, %object
	.size	__func__.10449, 26
__func__.10449:
	.ascii	"get_h264_gaps_not_allowed\000"
	.type	__func__.10458, %object
	.size	__func__.10458, 18
__func__.10458:
	.ascii	"set_h264_cabac_en\000"
	.type	__func__.10474, %object
	.size	__func__.10474, 18
__func__.10474:
	.ascii	"get_h264_cabac_en\000"
	.type	__func__.10483, %object
	.size	__func__.10483, 19
__func__.10483:
	.ascii	"set_h264_cabac_idc\000"
	.type	__func__.10499, %object
	.size	__func__.10499, 19
__func__.10499:
	.ascii	"get_h264_cabac_idc\000"
	.type	__func__.10508, %object
	.size	__func__.10508, 18
__func__.10508:
	.ascii	"set_h264_trans8x8\000"
	.type	__func__.10524, %object
	.size	__func__.10524, 18
__func__.10524:
	.ascii	"get_h264_trans8x8\000"
	.type	__func__.10533, %object
	.size	__func__.10533, 21
__func__.10533:
	.ascii	"set_h264_const_intra\000"
	.type	__func__.10549, %object
	.size	__func__.10549, 21
__func__.10549:
	.ascii	"get_h264_const_intra\000"
	.type	__func__.10558, %object
	.size	__func__.10558, 22
__func__.10558:
	.ascii	"set_h264_scaling_list\000"
	.type	__func__.10574, %object
	.size	__func__.10574, 22
__func__.10574:
	.ascii	"get_h264_scaling_list\000"
	.type	__func__.10583, %object
	.size	__func__.10583, 22
__func__.10583:
	.ascii	"set_h264_cb_qp_offset\000"
	.type	__func__.10599, %object
	.size	__func__.10599, 22
__func__.10599:
	.ascii	"get_h264_cb_qp_offset\000"
	.type	__func__.10608, %object
	.size	__func__.10608, 22
__func__.10608:
	.ascii	"set_h264_cr_qp_offset\000"
	.type	__func__.10624, %object
	.size	__func__.10624, 22
__func__.10624:
	.ascii	"get_h264_cr_qp_offset\000"
	.type	__func__.10633, %object
	.size	__func__.10633, 22
__func__.10633:
	.ascii	"set_h264_dblk_disable\000"
	.type	__func__.10649, %object
	.size	__func__.10649, 22
__func__.10649:
	.ascii	"get_h264_dblk_disable\000"
	.type	__func__.10658, %object
	.size	__func__.10658, 20
__func__.10658:
	.ascii	"set_h264_dblk_alpha\000"
	.type	__func__.10674, %object
	.size	__func__.10674, 20
__func__.10674:
	.ascii	"get_h264_dblk_alpha\000"
	.type	__func__.10683, %object
	.size	__func__.10683, 19
__func__.10683:
	.ascii	"set_h264_dblk_beta\000"
	.type	__func__.10699, %object
	.size	__func__.10699, 19
__func__.10699:
	.ascii	"get_h264_dblk_beta\000"
	.type	__func__.10708, %object
	.size	__func__.10708, 17
__func__.10708:
	.ascii	"set_h264_qp_init\000"
	.type	__func__.10724, %object
	.size	__func__.10724, 17
__func__.10724:
	.ascii	"get_h264_qp_init\000"
	.type	__func__.10733, %object
	.size	__func__.10733, 16
__func__.10733:
	.ascii	"set_h264_qp_min\000"
	.type	__func__.10749, %object
	.size	__func__.10749, 16
__func__.10749:
	.ascii	"get_h264_qp_min\000"
	.type	__func__.10758, %object
	.size	__func__.10758, 16
__func__.10758:
	.ascii	"set_h264_qp_max\000"
	.type	__func__.10774, %object
	.size	__func__.10774, 16
__func__.10774:
	.ascii	"get_h264_qp_max\000"
	.type	__func__.10783, %object
	.size	__func__.10783, 18
__func__.10783:
	.ascii	"set_h264_qp_min_i\000"
	.type	__func__.10799, %object
	.size	__func__.10799, 18
__func__.10799:
	.ascii	"get_h264_qp_min_i\000"
	.type	__func__.10808, %object
	.size	__func__.10808, 18
__func__.10808:
	.ascii	"set_h264_qp_max_i\000"
	.type	__func__.10824, %object
	.size	__func__.10824, 18
__func__.10824:
	.ascii	"get_h264_qp_max_i\000"
	.type	__func__.10833, %object
	.size	__func__.10833, 17
__func__.10833:
	.ascii	"set_h264_qp_step\000"
	.type	__func__.10849, %object
	.size	__func__.10849, 17
__func__.10849:
	.ascii	"get_h264_qp_step\000"
	.type	__func__.10858, %object
	.size	__func__.10858, 21
__func__.10858:
	.ascii	"set_h264_qp_delta_ip\000"
	.type	__func__.10874, %object
	.size	__func__.10874, 21
__func__.10874:
	.ascii	"get_h264_qp_delta_ip\000"
	.type	__func__.10883, %object
	.size	__func__.10883, 17
__func__.10883:
	.ascii	"set_h264_max_tid\000"
	.type	__func__.10899, %object
	.size	__func__.10899, 17
__func__.10899:
	.ascii	"get_h264_max_tid\000"
	.type	__func__.10908, %object
	.size	__func__.10908, 17
__func__.10908:
	.ascii	"set_h264_max_ltr\000"
	.type	__func__.10924, %object
	.size	__func__.10924, 17
__func__.10924:
	.ascii	"get_h264_max_ltr\000"
	.type	__func__.10933, %object
	.size	__func__.10933, 21
__func__.10933:
	.ascii	"set_h264_prefix_mode\000"
	.type	__func__.10949, %object
	.size	__func__.10949, 21
__func__.10949:
	.ascii	"get_h264_prefix_mode\000"
	.type	__func__.10958, %object
	.size	__func__.10958, 24
__func__.10958:
	.ascii	"set_h264_base_layer_pid\000"
	.type	__func__.10974, %object
	.size	__func__.10974, 24
__func__.10974:
	.ascii	"get_h264_base_layer_pid\000"
	.type	__func__.10983, %object
	.size	__func__.10983, 17
__func__.10983:
	.ascii	"set_h265_profile\000"
	.type	__func__.10999, %object
	.size	__func__.10999, 17
__func__.10999:
	.ascii	"get_h265_profile\000"
	.type	__func__.11008, %object
	.size	__func__.11008, 15
__func__.11008:
	.ascii	"set_h265_level\000"
	.type	__func__.11024, %object
	.size	__func__.11024, 15
__func__.11024:
	.ascii	"get_h265_level\000"
	.type	__func__.11033, %object
	.size	__func__.11033, 22
__func__.11033:
	.ascii	"set_h265_scaling_list\000"
	.type	__func__.11049, %object
	.size	__func__.11049, 22
__func__.11049:
	.ascii	"get_h265_scaling_list\000"
	.type	__func__.11058, %object
	.size	__func__.11058, 22
__func__.11058:
	.ascii	"set_h265_cb_qp_offset\000"
	.type	__func__.11074, %object
	.size	__func__.11074, 22
__func__.11074:
	.ascii	"get_h265_cb_qp_offset\000"
	.type	__func__.11083, %object
	.size	__func__.11083, 22
__func__.11083:
	.ascii	"set_h265_cr_qp_offset\000"
	.type	__func__.11099, %object
	.size	__func__.11099, 22
__func__.11099:
	.ascii	"get_h265_cr_qp_offset\000"
	.type	__func__.11108, %object
	.size	__func__.11108, 22
__func__.11108:
	.ascii	"set_h265_dblk_disable\000"
	.type	__func__.11124, %object
	.size	__func__.11124, 22
__func__.11124:
	.ascii	"get_h265_dblk_disable\000"
	.type	__func__.11133, %object
	.size	__func__.11133, 20
__func__.11133:
	.ascii	"set_h265_dblk_alpha\000"
	.type	__func__.11149, %object
	.size	__func__.11149, 20
__func__.11149:
	.ascii	"get_h265_dblk_alpha\000"
	.type	__func__.11158, %object
	.size	__func__.11158, 19
__func__.11158:
	.ascii	"set_h265_dblk_beta\000"
	.type	__func__.11174, %object
	.size	__func__.11174, 19
__func__.11174:
	.ascii	"get_h265_dblk_beta\000"
	.type	__func__.11183, %object
	.size	__func__.11183, 17
__func__.11183:
	.ascii	"set_h265_qp_init\000"
	.type	__func__.11199, %object
	.size	__func__.11199, 17
__func__.11199:
	.ascii	"get_h265_qp_init\000"
	.type	__func__.11208, %object
	.size	__func__.11208, 16
__func__.11208:
	.ascii	"set_h265_qp_min\000"
	.type	__func__.11224, %object
	.size	__func__.11224, 16
__func__.11224:
	.ascii	"get_h265_qp_min\000"
