	.arch armv7-a
	.eabi_attribute 20, 1
	.eabi_attribute 21, 1
	.eabi_attribute 23, 3
	.eabi_attribute 24, 1
	.eabi_attribute 25, 1
	.eabi_attribute 26, 2
	.eabi_attribute 30, 4
	.eabi_attribute 34, 0
	.eabi_attribute 18, 2
	.file	"spl_fit_tb.c"
	.text
.Ltext0:
	.cfi_sections	.debug_frame
	.section	.text.spl_fit_get_image_name.isra.0,"ax",%progbits
	.align	1
	.syntax unified
	.thumb
	.thumb_func
	.fpu softvfp
	.type	spl_fit_get_image_name.isra.0, %function
spl_fit_get_image_name.isra.0:
.LFB241:
	.file 1 "common/spl/spl_fit_tb.c"
	.loc 1 94 0
	.cfi_startproc
	@ args = 0, pretend = 0, frame = 8
	@ frame_needed = 0, uses_anonymous_args = 0
.LVL0:
	push	{r0, r1, r4, r5, r6, r7, r8, lr}
	.cfi_def_cfa_offset 32
	.cfi_offset 4, -24
	.cfi_offset 5, -20
	.cfi_offset 6, -16
	.cfi_offset 7, -12
	.cfi_offset 8, -8
	.cfi_offset 14, -4
	.loc 1 94 0
	mov	r5, r0
	mov	r8, r1
	mov	r7, r2
	mov	r6, r3
	.loc 1 103 0
	bl	fit_find_config_node
.LVL1:
	.loc 1 104 0
	subs	r4, r0, #0
	bge	.L2
	.loc 1 106 0
	ldr	r0, .L11
.LVL2:
	.loc 1 110 0
	ldr	r7, .L11+4
.LVL3:
	.loc 1 111 0
	ldr	r8, .L11+8
.LVL4:
	.loc 1 106 0
	bl	printf
.LVL5:
	.loc 1 107 0
	mov	r1, r4
	mov	r0, r5
	bl	fdt_first_subnode
.LVL6:
	mov	r6, r0
.LVL7:
.L3:
	cmp	r6, #0
	bge	.L4
.LVL8:
.L1:
	.loc 1 134 0
	mov	r0, r4
	add	sp, sp, #8
	.cfi_remember_state
	.cfi_def_cfa_offset 24
	@ sp needed
	pop	{r4, r5, r6, r7, r8, pc}
.LVL9:
.L4:
	.cfi_restore_state
	.loc 1 110 0
	add	r3, sp, #4
	mov	r2, r7
	mov	r1, r6
	mov	r0, r5
.LVL10:
	bl	fdt_getprop
.LVL11:
	.loc 1 111 0
	mov	r1, r0
	mov	r0, r8
.LVL12:
	bl	printf
.LVL13:
	.loc 1 109 0
	mov	r1, r6
	mov	r0, r5
	bl	fdt_next_subnode
.LVL14:
	mov	r6, r0
.LVL15:
	b	.L3
.LVL16:
.L2:
	.loc 1 117 0
	mov	r0, r5
.LVL17:
	add	r3, sp, #4
	mov	r2, r8
	mov	r1, r4
	bl	fdt_getprop
.LVL18:
	.loc 1 118 0
	mov	r5, r0
.LVL19:
	cbz	r0, .L8
	movs	r4, #0
.LVL20:
.L6:
	.loc 1 124 0
	cmp	r4, r7
	blt	.L7
	.loc 1 132 0
	str	r0, [r6]
	.loc 1 133 0
	movs	r4, #0
.LVL21:
	b	.L1
.LVL22:
.L7:
	.loc 1 125 0
	movs	r1, #0
	bl	strchr
.LVL23:
	.loc 1 126 0
	adds	r0, r0, #1
.LVL24:
	beq	.L10
	ldr	r2, [sp, #4]
	subs	r3, r0, r5
	cmp	r3, r2
	bge	.L10
	.loc 1 124 0
	adds	r4, r4, #1
.LVL25:
	b	.L6
.LVL26:
.L8:
	.loc 1 120 0
	mvn	r4, #21
.LVL27:
	b	.L1
.LVL28:
.L10:
	.loc 1 128 0
	mvn	r4, #6
.LVL29:
	b	.L1
.L12:
	.align	2
.L11:
	.word	.LC4
	.word	.LC5
	.word	.LC6
	.cfi_endproc
.LFE241:
	.size	spl_fit_get_image_name.isra.0, .-spl_fit_get_image_name.isra.0
	.section	.text.spl_fit_get_image_node,"ax",%progbits
	.align	1
	.syntax unified
	.thumb
	.thumb_func
	.fpu softvfp
	.type	spl_fit_get_image_node, %function
spl_fit_get_image_node:
.LFB226:
	.loc 1 150 0
	.cfi_startproc
	@ args = 0, pretend = 0, frame = 8
	@ frame_needed = 0, uses_anonymous_args = 0
.LVL30:
	push	{r0, r1, r2, r4, r5, lr}
	.cfi_def_cfa_offset 24
	.cfi_offset 4, -12
	.cfi_offset 5, -8
	.cfi_offset 14, -4
	.loc 1 150 0
	mov	r5, r1
	mov	r1, r2
.LVL31:
	mov	r2, r3
.LVL32:
	.loc 1 155 0
	add	r3, sp, #4
.LVL33:
	.loc 1 150 0
	mov	r4, r0
	.loc 1 155 0
	bl	spl_fit_get_image_name.isra.0
.LVL34:
	.loc 1 156 0
	cbnz	r0, .L13
	.loc 1 161 0
	ldr	r2, [sp, #4]
	mov	r1, r5
	mov	r0, r4
.LVL35:
	bl	fdt_subnode_offset
.LVL36:
	.loc 1 162 0
	cmp	r0, #0
	.loc 1 164 0
	it	lt
	mvnlt	r0, #21
.LVL37:
.L13:
	.loc 1 168 0
	add	sp, sp, #12
	.cfi_def_cfa_offset 12
	@ sp needed
	pop	{r4, r5, pc}
	.cfi_endproc
.LFE226:
	.size	spl_fit_get_image_node, .-spl_fit_get_image_node
	.global	__aeabi_idivmod
	.global	__aeabi_idiv
	.section	.text.spl_load_fit_image,"ax",%progbits
	.align	1
	.syntax unified
	.thumb
	.thumb_func
	.fpu softvfp
	.type	spl_load_fit_image, %function
spl_load_fit_image:
.LFB230:
	.loc 1 228 0
	.cfi_startproc
	@ args = 8, pretend = 0, frame = 48
	@ frame_needed = 0, uses_anonymous_args = 0
.LVL38:
	push	{r4, r5, r6, r7, r8, r10, fp, lr}
	.cfi_def_cfa_offset 32
	.cfi_offset 4, -32
	.cfi_offset 5, -28
	.cfi_offset 6, -24
	.cfi_offset 7, -20
	.cfi_offset 8, -16
	.cfi_offset 10, -12
	.cfi_offset 11, -8
	.cfi_offset 14, -4
	sub	sp, sp, #56
	.cfi_def_cfa_offset 88
	.loc 1 228 0
	mov	r4, r2
	ldr	r5, [sp, #88]
	.loc 1 238 0
	add	r2, sp, #56
.LVL39:
	.loc 1 228 0
	mov	r7, r3
	.loc 1 238 0
	movs	r3, #255
.LVL40:
	.loc 1 228 0
	str	r1, [sp, #20]
	.loc 1 238 0
	strb	r3, [r2, #-29]!
.LVL41:
	.loc 1 255 0
	mov	r1, r5
.LVL42:
	.loc 1 242 0
	ldr	r3, [r0]
	.loc 1 228 0
	mov	r8, r0
	.loc 1 255 0
	mov	r0, r4
.LVL43:
	.loc 1 228 0
	ldr	r6, [sp, #92]
	.loc 1 242 0
	str	r3, [sp, #12]
.LVL44:
	.loc 1 255 0
	bl	fit_image_get_comp
.LVL45:
	.loc 1 258 0
	add	r2, sp, #44
	mov	r1, r5
	mov	r0, r4
	bl	fit_image_get_load
.LVL46:
	cbz	r0, .L17
	.loc 1 259 0
	ldr	r3, [r6, #8]
	str	r3, [sp, #44]
.L17:
	.loc 1 261 0
	ldrb	r3, [sp, #27]	@ zero_extendqisi2
	cmp	r3, #0
	beq	.L18
	.loc 1 261 0 is_stmt 0 discriminator 1
	cmp	r3, #6
	beq	.L18
	.loc 1 263 0 is_stmt 1
	add	r2, sp, #40
	mov	r1, r5
	mov	r0, r4
	bl	fit_image_get_comp_addr
.LVL47:
	cbz	r0, .L19
	.loc 1 264 0
	ldr	r3, [sp, #44]
	add	r3, r3, #1048576
.L70:
	.loc 1 266 0
	str	r3, [sp, #40]
.L19:
	.loc 1 269 0
	add	r2, sp, #28
	mov	r1, r5
	mov	r0, r4
	bl	fit_image_get_data_position
.LVL48:
	cbz	r0, .L20
	.loc 1 271 0
	add	r2, sp, #28
	mov	r1, r5
	mov	r0, r4
	bl	fit_image_get_data_offset
.LVL49:
	cmp	r0, #0
	bne	.L21
	.loc 1 272 0
	ldr	r3, [sp, #28]
	add	r7, r7, r3
.LVL50:
	str	r7, [sp, #28]
.LVL51:
.L20:
	.loc 1 278 0
	add	r2, sp, #36
	mov	r1, r5
	mov	r0, r4
	bl	fit_image_get_data_size
.LVL52:
	cmp	r0, #0
	bne	.L40
	.loc 1 281 0
	ldr	r7, [sp, #40]
	adds	r7, r7, #63
	bic	r3, r7, #63
	.loc 1 283 0
	cmp	r3, #-16777216
	.loc 1 281 0
	str	r3, [sp, #8]
.LVL53:
	.loc 1 283 0
	bcc	.L22
	.loc 1 285 0
	ldr	r1, [sp, #36]
	movs	r0, #64
	bl	memalign_simple
.LVL54:
	str	r0, [sp, #8]
.LVL55:
.L22:
.LBB37:
.LBB38:
	.loc 1 191 0
	ldr	r3, [r8, #12]
.LBE38:
.LBE37:
	.loc 1 287 0
	ldr	r10, [sp, #36]
	.loc 1 289 0
	ldr	r0, [sp, #28]
	.loc 1 287 0
	str	r10, [sp, #32]
.LVL56:
.LBB41:
.LBB39:
	.loc 1 191 0
	cmp	r3, #0
	beq	.L23
	.loc 1 192 0
	and	fp, r0, #63
.LVL57:
.L24:
.LBE39:
.LBE41:
.LBB42:
.LBB43:
	.loc 1 200 0
	add	r10, r10, fp
.LVL58:
	.loc 1 202 0
	cbnz	r3, .L25
	.loc 1 205 0
	ldr	r1, [r8, #8]
	add	r0, r10, r1
	subs	r0, r0, #1
	bl	__aeabi_idiv
.LVL59:
	mov	r10, r0
.LVL60:
.L25:
.LBE43:
.LBE42:
	.loc 1 293 0
	mov	r1, r5
	mov	r0, r4
	bl	fit_image_is_preload
.LVL61:
	.loc 1 295 0
	str	r0, [sp, #16]
	cbz	r0, .L26
	.loc 1 296 0
	ldr	r2, [sp, #12]
	movs	r3, #1
	strb	r3, [r2, #14]
.L26:
	.loc 1 298 0
	ldr	r3, [r8, #16]
	.loc 1 299 0
	ldr	r0, [sp, #28]
.LVL62:
	.loc 1 298 0
	mov	r7, r3
.LBB44:
.LBB45:
	.loc 1 177 0
	ldr	r3, [r8, #12]
	cmp	r3, #0
	beq	.L27
	.loc 1 178 0
	bic	r0, r0, #63
.LVL63:
.L28:
.LBE45:
.LBE44:
	.loc 1 298 0
	ldr	r1, [sp, #20]
	mov	r2, r10
	ldr	r3, [sp, #8]
	add	r1, r1, r0
	mov	r0, r8
	blx	r7
.LVL64:
	cmp	r10, r0
	bne	.L37
	.loc 1 305 0
	ldr	r3, [sp, #8]
	add	r3, r3, fp
	str	r3, [sp, #48]
	.loc 1 306 0
	ldr	r3, [sp, #16]
	cbz	r3, .L30
	.loc 1 307 0
	ldr	r3, [sp, #12]
	ldr	r2, [sp, #12]
	.loc 1 308 0
	ldr	r0, .L72
	.loc 1 307 0
	ldrb	r3, [r3, #14]	@ zero_extendqisi2
	bic	r3, r3, #1
	strb	r3, [r2, #14]
	.loc 1 308 0
	bl	printf
.LVL65:
.L31:
	.loc 1 361 0
	cbz	r6, .L71
	.loc 1 362 0
	ldr	r3, [sp, #44]
	.loc 1 364 0
	mov	r1, r5
	ldr	r2, .L72+4
	mov	r0, r4
	.loc 1 362 0
	str	r3, [r6, #8]
	.loc 1 363 0
	ldr	r3, [sp, #32]
	str	r3, [r6, #32]
	.loc 1 364 0
	bl	fdt_getprop_u32
.LVL66:
	str	r0, [r6, #12]
.L71:
	.loc 1 367 0
	movs	r0, #0
.LVL67:
.L16:
	.loc 1 368 0
	add	sp, sp, #56
	.cfi_remember_state
	.cfi_def_cfa_offset 32
	@ sp needed
	pop	{r4, r5, r6, r7, r8, r10, fp, pc}
.LVL68:
.L18:
	.cfi_restore_state
	.loc 1 266 0
	ldr	r3, [sp, #44]
	b	.L70
.LVL69:
.L23:
.LBB47:
.LBB40:
	.loc 1 194 0
	ldr	r1, [r8, #8]
	str	r3, [sp, #16]
	bl	__aeabi_idivmod
.LVL70:
	ldr	r3, [sp, #16]
	mov	fp, r1
	b	.L24
.LVL71:
.L27:
.LBE40:
.LBE47:
.LBB48:
.LBB46:
	.loc 1 180 0
	ldr	r1, [r8, #8]
	bl	__aeabi_idiv
.LVL72:
	b	.L28
.LVL73:
.L68:
.LBE46:
.LBE48:
	.loc 1 319 0
	ldr	r3, [sp, #52]
	str	r3, [sp, #48]
.LVL74:
.L30:
	.loc 1 323 0
	ldrb	r3, [sp, #27]	@ zero_extendqisi2
.LBB49:
.LBB50:
	.file 2 "include/image.h"
	.loc 2 1006 0
	movs	r2, #0
	mov	r1, r5
	mov	r0, r4
.LBE50:
.LBE49:
	.loc 1 323 0
	cbz	r3, .L32
.LVL75:
	.loc 1 323 0 is_stmt 0 discriminator 1
	cmp	r3, #6
	beq	.L32
.LVL76:
.LBB53:
.LBB51:
	.loc 2 1006 0 is_stmt 1
	bl	fdt_get_name
.LVL77:
.LBE51:
.LBE53:
	.loc 1 326 0
	movs	r3, #0
.LBB54:
.LBB52:
	.loc 2 1006 0
	mov	r7, r0
.LVL78:
.LBE52:
.LBE54:
	.loc 1 326 0
	ldr	r2, .L72+8
	mov	r1, r5
	mov	r0, r4
	.loc 1 324 0
	ldr	r10, [sp, #44]
	.loc 1 326 0
	bl	fdt_getprop
.LVL79:
	.loc 1 324 0
	ldr	r3, [sp, #48]
	mov	r1, r7
	mov	r2, r10
	str	r3, [sp]
	mov	r3, r0
	ldr	r0, .L72+12
	bl	printf
.LVL80:
.L33:
	.loc 1 336 0
	ldr	r3, [sp, #32]
	mov	r1, r5
	ldr	r2, [sp, #48]
	mov	r0, r4
	bl	fit_image_verify_with_data
.LVL81:
	cbz	r0, .L38
	.loc 1 341 0
	add	r3, sp, #32
	add	r2, sp, #44
	mov	r1, r5
	str	r3, [sp]
	mov	r0, r4
	add	r3, sp, #48
	str	r8, [sp, #4]
	bl	board_fit_image_post_process
.LVL82:
	.loc 1 344 0
	ldr	r0, .L72+16
	bl	puts
.LVL83:
	.loc 1 358 0
	ldr	r2, [sp, #32]
	ldr	r1, [sp, #48]
	ldr	r0, [sp, #44]
	bl	memcpy
.LVL84:
	b	.L31
.LVL85:
.L32:
.LBB55:
.LBB56:
	.loc 2 1006 0
	bl	fdt_get_name
.LVL86:
.LBE56:
.LBE55:
	.loc 1 329 0
	ldr	r2, [sp, #44]
	mov	r1, r0
	ldr	r0, .L72+20
	bl	printf
.LVL87:
	b	.L33
.LVL88:
.L37:
	.loc 1 301 0
	mvn	r0, #4
	b	.L16
.LVL89:
.L38:
	.loc 1 338 0
	mov	r0, #-1
	b	.L16
.LVL90:
.L21:
	.loc 1 313 0
	add	r3, sp, #32
	add	r2, sp, #52
	mov	r1, r5
	mov	r0, r4
	bl	fit_image_get_data
.LVL91:
	cmp	r0, #0
	beq	.L68
	.loc 1 314 0
	ldr	r0, .L72+24
	bl	puts
.LVL92:
.L40:
	.loc 1 279 0
	mvn	r0, #1
.LVL93:
	b	.L16
.L73:
	.align	2
.L72:
	.word	.LC7
	.word	.LC13
	.word	.LC9
	.word	.LC10
	.word	.LC12
	.word	.LC11
	.word	.LC8
	.cfi_endproc
.LFE230:
	.size	spl_load_fit_image, .-spl_load_fit_image
	.section	.text.spl_fit_append_fdt,"ax",%progbits
	.align	1
	.syntax unified
	.thumb
	.thumb_func
	.fpu softvfp
	.type	spl_fit_append_fdt, %function
spl_fit_append_fdt:
.LFB231:
	.loc 1 373 0
	.cfi_startproc
	@ args = 8, pretend = 0, frame = 48
	@ frame_needed = 0, uses_anonymous_args = 0
.LVL94:
	push	{r4, r5, r6, r7, r8, lr}
	.cfi_def_cfa_offset 24
	.cfi_offset 4, -24
	.cfi_offset 5, -20
	.cfi_offset 6, -16
	.cfi_offset 7, -12
	.cfi_offset 8, -8
	.cfi_offset 14, -4
	mov	r6, r3
	sub	sp, sp, #56
	.cfi_def_cfa_offset 80
	.loc 1 373 0
	mov	r5, r0
	mov	r7, r1
	mov	r8, r2
	.loc 1 378 0
	movs	r3, #0
.LVL95:
	ldr	r2, .L76
.LVL96:
	ldr	r1, [sp, #80]
.LVL97:
	mov	r0, r6
.LVL98:
	bl	spl_fit_get_image_node
.LVL99:
	.loc 1 379 0
	subs	r4, r0, #0
	blt	.L74
	.loc 1 388 0
	ldr	r2, [r5, #32]
	.loc 1 389 0
	mov	r1, r8
	.loc 1 388 0
	ldr	r3, [r5, #8]
	.loc 1 389 0
	mov	r0, r7
.LVL100:
	str	r4, [sp]
	.loc 1 388 0
	add	r3, r3, r2
	.loc 1 389 0
	mov	r2, r6
	.loc 1 388 0
	str	r3, [sp, #20]
	.loc 1 389 0
	add	r3, sp, #12
	str	r3, [sp, #4]
	ldr	r3, [sp, #84]
	bl	spl_load_fit_image
.LVL101:
	.loc 1 392 0
	subs	r4, r0, #0
.LVL102:
	blt	.L74
	.loc 1 396 0
	ldr	r0, [sp, #20]
.LVL103:
	.loc 1 399 0
	mov	r1, #8192
	.loc 1 396 0
	str	r0, [r5, #20]
	.loc 1 399 0
	bl	fdt_shrink_to_minimum
.LVL104:
.L74:
	.loc 1 403 0
	mov	r0, r4
	add	sp, sp, #56
	.cfi_def_cfa_offset 24
	@ sp needed
	pop	{r4, r5, r6, r7, r8, pc}
.LVL105:
.L77:
	.align	2
.L76:
	.word	.LC0
	.cfi_endproc
.LFE231:
	.size	spl_fit_append_fdt, .-spl_fit_append_fdt
	.section	.text.spl_fit_load_blob,"ax",%progbits
	.align	1
	.syntax unified
	.thumb
	.thumb_func
	.fpu softvfp
	.type	spl_fit_load_blob, %function
spl_fit_load_blob:
.LFB235:
	.loc 1 445 0
	.cfi_startproc
	@ args = 0, pretend = 0, frame = 0
	@ frame_needed = 0, uses_anonymous_args = 0
.LVL106:
	ldr	r2, [r2, #4]
.LVL107:
	push	{r3, r4, r5, r6, r7, lr}
	.cfi_def_cfa_offset 24
	.cfi_offset 3, -24
	.cfi_offset 4, -20
	.cfi_offset 5, -16
	.cfi_offset 6, -12
	.cfi_offset 7, -8
	.cfi_offset 14, -4
	.loc 1 445 0
	mov	r4, r0
	mov	r5, r1
	rev	r2, r2
.LVL108:
	.loc 1 458 0
	addw	r2, r2, #511
.LVL109:
	.loc 1 459 0
	bic	r0, r2, #510
.LVL110:
	bic	r0, r0, #1
	str	r0, [r3]
	.loc 1 478 0
	ldr	r3, .L81
.LVL111:
	ldr	r1, [r4, #8]
.LVL112:
	subs	r3, r3, r1
	subs	r3, r3, r0
	.loc 1 479 0
	bic	r6, r3, #63
.LVL113:
.LBB63:
.LBB64:
	.loc 1 202 0
	ldr	r3, [r4, #12]
	cbnz	r3, .L79
	.loc 1 205 0
	add	r0, r0, r1
.LVL114:
	subs	r0, r0, #1
	bl	__aeabi_idiv
.LVL115:
.L79:
.LBE64:
.LBE63:
	.loc 1 481 0
	mov	r2, r0
	ldr	r7, [r4, #16]
	mov	r3, r6
	mov	r1, r5
	mov	r0, r4
	blx	r7
.LVL116:
	.loc 1 484 0
	cmp	r0, #0
	.loc 1 488 0
	ite	ne
	movne	r0, r6
.LVL117:
	moveq	r0, #0
	pop	{r3, r4, r5, r6, r7, pc}
.LVL118:
.L82:
	.align	2
.L81:
	.word	2097089
	.cfi_endproc
.LFE235:
	.size	spl_fit_load_blob, .-spl_fit_load_blob
	.section	.text.fit_config_verify,"ax",%progbits
	.align	1
	.weak	fit_config_verify
	.syntax unified
	.thumb
	.thumb_func
	.fpu softvfp
	.type	fit_config_verify, %function
fit_config_verify:
.LFB215:
	.loc 1 26 0
	.cfi_startproc
	@ args = 0, pretend = 0, frame = 0
	@ frame_needed = 0, uses_anonymous_args = 0
	@ link register save eliminated.
.LVL119:
	.loc 1 28 0
	movs	r0, #0
.LVL120:
	bx	lr
	.cfi_endproc
.LFE215:
	.size	fit_config_verify, .-fit_config_verify
	.section	.text.mtd_part_parse,"ax",%progbits
	.align	1
	.weak	mtd_part_parse
	.syntax unified
	.thumb
	.thumb_func
	.fpu softvfp
	.type	mtd_part_parse, %function
mtd_part_parse:
.LFB216:
	.loc 1 31 0
	.cfi_startproc
	@ args = 0, pretend = 0, frame = 0
	@ frame_needed = 0, uses_anonymous_args = 0
	@ link register save eliminated.
.LVL121:
	.loc 1 33 0
	movs	r0, #0
.LVL122:
	bx	lr
	.cfi_endproc
.LFE216:
	.size	mtd_part_parse, .-mtd_part_parse
	.section	.text.spl_get_current_slot,"ax",%progbits
	.align	1
	.weak	spl_get_current_slot
	.syntax unified
	.thumb
	.thumb_func
	.fpu softvfp
	.type	spl_get_current_slot, %function
spl_get_current_slot:
.LFB217:
	.loc 1 36 0
	.cfi_startproc
	@ args = 0, pretend = 0, frame = 0
	@ frame_needed = 0, uses_anonymous_args = 0
	@ link register save eliminated.
.LVL123:
	.loc 1 38 0
	mov	r0, #-1
.LVL124:
	bx	lr
	.cfi_endproc
.LFE217:
	.size	spl_get_current_slot, .-spl_get_current_slot
	.section	.text.spl_load_meta,"ax",%progbits
	.align	1
	.weak	spl_load_meta
	.syntax unified
	.thumb
	.thumb_func
	.fpu softvfp
	.type	spl_load_meta, %function
spl_load_meta:
.LFB218:
	.loc 1 41 0
	.cfi_startproc
	@ args = 0, pretend = 0, frame = 0
	@ frame_needed = 0, uses_anonymous_args = 0
.LVL125:
	push	{r3, lr}
	.cfi_def_cfa_offset 8
	.cfi_offset 3, -8
	.cfi_offset 14, -4
	.loc 1 42 0
	ldr	r0, .L87
.LVL126:
	bl	printf
.LVL127:
	.loc 1 45 0
	mov	r0, #-1
	pop	{r3, pc}
.L88:
	.align	2
.L87:
	.word	.LC14
	.cfi_endproc
.LFE218:
	.size	spl_load_meta, .-spl_load_meta
	.section	.text.fdt_bootargs_append,"ax",%progbits
	.align	1
	.weak	fdt_bootargs_append
	.syntax unified
	.thumb
	.thumb_func
	.fpu softvfp
	.type	fdt_bootargs_append, %function
fdt_bootargs_append:
.LFB243:
	.cfi_startproc
	@ args = 0, pretend = 0, frame = 0
	@ frame_needed = 0, uses_anonymous_args = 0
	@ link register save eliminated.
	mov	r0, #-1
	bx	lr
	.cfi_endproc
.LFE243:
	.size	fdt_bootargs_append, .-fdt_bootargs_append
	.section	.text.spl_ab_bootargs_append_slot,"ax",%progbits
	.align	1
	.weak	spl_ab_bootargs_append_slot
	.syntax unified
	.thumb
	.thumb_func
	.fpu softvfp
	.type	spl_ab_bootargs_append_slot, %function
spl_ab_bootargs_append_slot:
.LFB220:
	.loc 1 53 0
	.cfi_startproc
	@ args = 0, pretend = 0, frame = 0
	@ frame_needed = 0, uses_anonymous_args = 0
	@ link register save eliminated.
.LVL128:
	.loc 1 55 0
	mov	r0, #-1
.LVL129:
	bx	lr
	.cfi_endproc
.LFE220:
	.size	spl_ab_bootargs_append_slot, .-spl_ab_bootargs_append_slot
	.section	.text.rk_meta_bootargs_append,"ax",%progbits
	.align	1
	.weak	rk_meta_bootargs_append
	.syntax unified
	.thumb
	.thumb_func
	.fpu softvfp
	.type	rk_meta_bootargs_append, %function
rk_meta_bootargs_append:
.LFB221:
	.loc 1 58 0
	.cfi_startproc
	@ args = 0, pretend = 0, frame = 0
	@ frame_needed = 0, uses_anonymous_args = 0
	@ link register save eliminated.
.LVL130:
	bx	lr
	.cfi_endproc
.LFE221:
	.size	rk_meta_bootargs_append, .-rk_meta_bootargs_append
	.section	.text.spl_internal_load_kernel_fit,"ax",%progbits
	.align	1
	.syntax unified
	.thumb
	.thumb_func
	.fpu softvfp
	.type	spl_internal_load_kernel_fit, %function
spl_internal_load_kernel_fit:
.LFB237:
	.loc 1 503 0
	.cfi_startproc
	@ args = 8, pretend = 0, frame = 72
	@ frame_needed = 1, uses_anonymous_args = 0
.LVL131:
	.loc 1 503 0
	push	{r4, r5, r6, r7, r8, r10, fp, lr}
	.cfi_def_cfa_offset 32
	.cfi_offset 4, -32
	.cfi_offset 5, -28
	.cfi_offset 6, -24
	.cfi_offset 7, -20
	.cfi_offset 8, -16
	.cfi_offset 10, -12
	.cfi_offset 11, -8
	.cfi_offset 14, -4
	mov	r5, r3
	sub	sp, sp, #80
	.cfi_def_cfa_offset 112
	add	r7, sp, #8
	.cfi_def_cfa 7, 104
	.loc 1 503 0
	mov	r6, r1
	.loc 1 505 0
	ldr	r3, [r1, #8]
.LVL132:
	.loc 1 503 0
	mov	r10, r2
	str	r0, [r7, #4]
	.loc 1 511 0
	movs	r2, #1
.LVL133:
	ldr	r4, [r1, #16]
	mov	r0, r6
.LVL134:
	.loc 1 505 0
	adds	r3, r3, #7
	.loc 1 511 0
	mov	r1, r10
.LVL135:
	.loc 1 505 0
	bic	r3, r3, #7
	sub	sp, sp, r3
	add	r8, sp, #8
.LVL136:
	.loc 1 511 0
	mov	r3, r8
	blx	r4
.LVL137:
	cmp	r0, #1
	bne	.L106
.LVL138:
	ldr	r2, [sp, #8]
	.loc 1 514 0
	ldr	r3, .L111
	cmp	r2, r3
	beq	.L94
	.loc 1 515 0
	ldr	r1, .L111+4
	ldr	r0, .L111+8
	bl	printf
.LVL139:
.L110:
	.loc 1 530 0
	mvn	r4, #21
.LVL140:
.L92:
	.loc 1 607 0
	mov	r0, r4
	adds	r7, r7, #72
	.cfi_remember_state
	.cfi_def_cfa_offset 32
	mov	sp, r7
	.cfi_def_cfa_register 13
.LVL141:
	@ sp needed
	pop	{r4, r5, r6, r7, r8, r10, fp, pc}
.LVL142:
.L94:
	.cfi_restore_state
	.loc 1 519 0
	mov	r2, r8
	add	r3, r7, #24
	mov	r1, r10
	mov	r0, r6
	bl	spl_fit_load_blob
.LVL143:
	.loc 1 520 0
	mov	r8, r0
.LVL144:
	cmp	r0, #0
	beq	.L107
	.loc 1 527 0
	movs	r1, #0
	bl	fit_conf_get_node
.LVL145:
	.loc 1 528 0
	subs	r1, r0, #0
	bgt	.L95
	.loc 1 529 0
	ldr	r0, .L111+12
.LVL146:
	bl	printf
.LVL147:
	b	.L110
.LVL148:
.L95:
	.loc 1 533 0
	mov	r0, r8
.LVL149:
	bl	fit_config_verify
.LVL150:
	.loc 1 534 0
	mov	r4, r0
	cbz	r0, .L96
	.loc 1 535 0
	mov	r1, r0
	ldr	r0, .L111+16
.LVL151:
	bl	printf
.LVL152:
	.loc 1 536 0
	b	.L92
.LVL153:
.L96:
	.loc 1 538 0
	ldr	r0, .L111+20
.LVL154:
	bl	printf
.LVL155:
	.loc 1 540 0
	ldr	r1, .L111+24
	mov	r0, r8
	bl	fdt_path_offset
.LVL156:
	.loc 1 541 0
	subs	r3, r0, #0
	str	r3, [r7, #8]
	blt	.L108
	.loc 1 541 0 is_stmt 0 discriminator 1
	str	r4, [r7, #12]
.LVL157:
.L97:
	.loc 1 544 0 is_stmt 1 discriminator 1
	ldr	r3, [r7, #12]
	ldr	r2, [r7, #104]
	cmp	r3, r2
	bge	.L92
.LBB65:
	.loc 1 545 0
	movs	r3, #0
	ldr	r2, [r5]
	ldr	r1, [r7, #8]
	mov	r0, r8
	bl	spl_fit_get_image_node
.LVL158:
	.loc 1 549 0
	cmp	r0, #0
	bge	.L98
	.loc 1 550 0
	ldr	r1, .L111+28
	ldr	r0, [r5]
.LVL159:
	bl	strcmp
.LVL160:
	cbnz	r0, .L100
	.loc 1 551 0
	ldr	r2, [r7, #108]
	movs	r3, #1
	str	r3, [r2]
.L100:
.LBE65:
	.loc 1 544 0 discriminator 2
	ldr	r3, [r7, #12]
	adds	r5, r5, #4
	adds	r3, r3, #1
	str	r3, [r7, #12]
.LVL161:
	b	.L97
.LVL162:
.L98:
.LBB67:
	.loc 1 556 0
	add	r3, r7, #28
	mov	r2, r8
	stm	sp, {r0, r3}
	mov	r1, r10
	ldr	r3, [r7, #24]
	mov	r0, r6
.LVL163:
	.loc 1 547 0
	ldr	fp, [r6]
	.loc 1 556 0
	bl	spl_load_fit_image
.LVL164:
	.loc 1 558 0
	cmp	r0, #0
	bne	.L109
	.loc 1 562 0
	ldr	r1, .L111+32
	ldr	r0, [r5]
.LVL165:
	bl	strcmp
.LVL166:
	cbnz	r0, .L101
.LBB66:
	.loc 1 563 0
	ldr	r2, [r7, #4]
	ldr	r3, [r7, #36]
	.loc 1 565 0
	strh	r0, [r7, #20]	@ movhi
	strb	r0, [r7, #22]
	.loc 1 563 0
	str	r3, [r2, #20]
	.loc 1 567 0
	add	r2, r7, #20
	ldr	r1, .L111+36
	ldr	r0, [r6]
	bl	spl_get_current_slot
.LVL167:
	cbnz	r0, .L102
	.loc 1 568 0
	add	r1, r7, #20
	ldr	r0, [r7, #36]
	bl	spl_ab_bootargs_append_slot
.LVL168:
.L102:
	.loc 1 572 0
	ldr	r3, [fp, #4]
	cmp	r3, #1
	bne	.L103
	.loc 1 573 0
	ldr	r3, [r7, #36]
	mov	r0, fp
	str	r3, [r7]
	bl	mtd_part_parse
.LVL169:
	ldr	r3, [r7]
	mov	r1, r0
	mov	r0, r3
	bl	fdt_bootargs_append
.LVL170:
.L103:
	.loc 1 577 0
	ldr	r0, [r7, #36]
	bl	rk_meta_bootargs_append
.LVL171:
	.loc 1 582 0
	ldr	r1, .L111+40
	ldr	r0, [r6]
	bl	envf_get
.LVL172:
	mov	fp, r0
.LVL173:
	.loc 1 584 0
	ldr	r0, .L111+44
.LVL174:
	bl	strlen
.LVL175:
	.loc 1 585 0
	add	r1, fp, r0
.LVL176:
	ldr	r0, [r7, #36]
	bl	fdt_bootargs_append
.LVL177:
.LBE66:
	b	.L100
.L101:
	.loc 1 587 0
	ldr	r1, .L111+48
	ldr	r0, [r5]
	bl	strcmp
.LVL178:
	cmp	r0, #0
	bne	.L100
	.loc 1 589 0
	ldr	r3, [r7, #36]
	ldr	r2, [r7, #4]
	str	r3, [r2, #16]
	b	.L100
.LVL179:
.L106:
.LBE67:
	.loc 1 512 0
	mvn	r4, #4
	b	.L92
.LVL180:
.L107:
	.loc 1 521 0
	mvn	r4, #18
	b	.L92
.LVL181:
.L108:
	ldr	r4, [r7, #8]
.LVL182:
	b	.L92
.LVL183:
.L109:
.LBB68:
	.loc 1 556 0
	mov	r4, r0
	b	.L92
.L112:
	.align	2
.L111:
	.word	-302117424
	.word	.LANCHOR0
	.word	.LC15
	.word	.LC16
	.word	.LC17
	.word	.LC18
	.word	.LC19
	.word	.LC2
	.word	.LC0
	.word	.LC20
	.word	.LC21
	.word	.LC22
	.word	.LC1
.LBE68:
	.cfi_endproc
.LFE237:
	.size	spl_internal_load_kernel_fit, .-spl_internal_load_kernel_fit
	.section	.text.fit_rollback_index_verify,"ax",%progbits
	.align	1
	.weak	fit_rollback_index_verify
	.syntax unified
	.thumb
	.thumb_func
	.fpu softvfp
	.type	fit_rollback_index_verify, %function
fit_rollback_index_verify:
.LFB222:
	.loc 1 62 0
	.cfi_startproc
	@ args = 0, pretend = 0, frame = 0
	@ frame_needed = 0, uses_anonymous_args = 0
	@ link register save eliminated.
.LVL184:
	.loc 1 63 0
	mov	r1, #-1
.LVL185:
	.loc 1 67 0
	movs	r0, #0
.LVL186:
	.loc 1 63 0
	str	r1, [r2]
	.loc 1 64 0
	str	r1, [r3]
	.loc 1 67 0
	bx	lr
	.cfi_endproc
.LFE222:
	.size	fit_rollback_index_verify, .-fit_rollback_index_verify
	.section	.text.spl_ab_decrease_reset,"ax",%progbits
	.align	1
	.weak	spl_ab_decrease_reset
	.syntax unified
	.thumb
	.thumb_func
	.fpu softvfp
	.type	spl_ab_decrease_reset, %function
spl_ab_decrease_reset:
.LFB223:
	.loc 1 71 0
	.cfi_startproc
	@ args = 0, pretend = 0, frame = 0
	@ frame_needed = 0, uses_anonymous_args = 0
	@ link register save eliminated.
.LVL187:
	.loc 1 74 0
	mov	r0, #-1
.LVL188:
	bx	lr
	.cfi_endproc
.LFE223:
	.size	spl_ab_decrease_reset, .-spl_ab_decrease_reset
	.section	.text.spl_ab_decrease_tries,"ax",%progbits
	.align	1
	.weak	spl_ab_decrease_tries
	.syntax unified
	.thumb
	.thumb_func
	.fpu softvfp
	.type	spl_ab_decrease_tries, %function
spl_ab_decrease_tries:
.LFB224:
	.loc 1 77 0
	.cfi_startproc
	@ args = 0, pretend = 0, frame = 0
	@ frame_needed = 0, uses_anonymous_args = 0
	@ link register save eliminated.
.LVL189:
	.loc 1 79 0
	movs	r0, #0
.LVL190:
	bx	lr
	.cfi_endproc
.LFE224:
	.size	spl_ab_decrease_tries, .-spl_ab_decrease_tries
	.section	.text.spl_fit_standalone_release,"ax",%progbits
	.align	1
	.weak	spl_fit_standalone_release
	.syntax unified
	.thumb
	.thumb_func
	.fpu softvfp
	.type	spl_fit_standalone_release, %function
spl_fit_standalone_release:
.LFB234:
	.loc 1 438 0
	.cfi_startproc
	@ args = 0, pretend = 0, frame = 0
	@ frame_needed = 0, uses_anonymous_args = 0
	@ link register save eliminated.
.LVL191:
	.loc 1 440 0
	movs	r0, #0
.LVL192:
	bx	lr
	.cfi_endproc
.LFE234:
	.size	spl_fit_standalone_release, .-spl_fit_standalone_release
	.section	.text.spl_kernel_partition,"ax",%progbits
	.align	1
	.weak	spl_kernel_partition
	.syntax unified
	.thumb
	.thumb_func
	.fpu softvfp
	.type	spl_kernel_partition, %function
spl_kernel_partition:
.LFB236:
	.loc 1 494 0
	.cfi_startproc
	@ args = 0, pretend = 0, frame = 0
	@ frame_needed = 0, uses_anonymous_args = 0
	@ link register save eliminated.
.LVL193:
	.loc 1 496 0
	ldr	r0, .L118
.LVL194:
	bx	lr
.L119:
	.align	2
.L118:
	.word	.LC23
	.cfi_endproc
.LFE236:
	.size	spl_kernel_partition, .-spl_kernel_partition
	.section	.text.spl_load_simple_fit,"ax",%progbits
	.align	1
	.global	spl_load_simple_fit
	.syntax unified
	.thumb
	.thumb_func
	.fpu softvfp
	.type	spl_load_simple_fit, %function
spl_load_simple_fit:
.LFB240:
	.loc 1 898 0
	.cfi_startproc
	@ args = 0, pretend = 0, frame = 144
	@ frame_needed = 0, uses_anonymous_args = 0
.LVL195:
	push	{r4, r5, r6, r7, r8, r10, fp, lr}
	.cfi_def_cfa_offset 32
	.cfi_offset 4, -32
	.cfi_offset 5, -28
	.cfi_offset 6, -24
	.cfi_offset 7, -20
	.cfi_offset 8, -16
	.cfi_offset 10, -12
	.cfi_offset 11, -8
	.cfi_offset 14, -4
	sub	sp, sp, #160
	.cfi_def_cfa_offset 192
.LVL196:
	.loc 1 898 0
	str	r2, [sp, #24]
.LVL197:
	mov	r5, r3
	mov	r4, r0
	mov	r6, r1
	ldr	r2, [r3]
.LVL198:
	.loc 1 914 0
	ldr	r3, .L193
.LVL199:
	cmp	r2, r3
	beq	.L121
	.loc 1 915 0
	ldr	r0, .L193+4
.LVL200:
.L190:
.LBB84:
.LBB85:
	.loc 1 707 0
	bl	printf
.LVL201:
.L122:
.LBE85:
.LBE84:
	.loc 1 940 0
	ldr	r3, [r4, #28]
	cmp	r3, #2
	bne	.L156
	.loc 1 941 0
	movs	r3, #0
	mov	r2, r3
	mov	r1, r3
	mov	r0, r3
	bl	do_reset
.LVL202:
.L192:
	.loc 1 943 0
	mov	fp, r0
	b	.L120
.LVL203:
.L121:
	.loc 1 919 0
	ldr	r3, [r0, #28]
	cmp	r3, #2
	bne	.L123
	.loc 1 921 0
	bl	spl_load_meta
.LVL204:
	.loc 1 925 0
	ldr	r0, [r6]
	bl	spl_ab_decrease_tries
.LVL205:
.L123:
.LBB96:
.LBB93:
	.loc 1 681 0
	mov	r2, r5
	add	r3, sp, #56
	ldr	r1, [sp, #24]
	mov	r0, r6
	bl	spl_fit_load_blob
.LVL206:
	.loc 1 682 0
	mov	r5, r0
.LVL207:
	cmp	r0, #0
	beq	.L122
	.loc 1 688 0
	ldr	r1, .L193+8
	bl	fdt_path_offset
.LVL208:
	.loc 1 689 0
	subs	r3, r0, #0
	str	r3, [sp, #20]
	blt	.L122
	.loc 1 695 0
	bl	fit_board_verify_required_sigs
.LVL209:
	.loc 1 705 0
	movs	r1, #0
	mov	r0, r5
	bl	fit_conf_get_node
.LVL210:
	.loc 1 706 0
	subs	r1, r0, #0
	bgt	.L125
	.loc 1 707 0
	ldr	r0, .L193+12
.LVL211:
	b	.L190
.LVL212:
.L125:
	.loc 1 711 0
	mov	r0, r5
.LVL213:
	bl	fit_config_verify
.LVL214:
	.loc 1 712 0
	mov	r1, r0
	cbz	r0, .L127
	.loc 1 713 0
	ldr	r0, .L193+16
.LVL215:
.L191:
.LBE93:
.LBE96:
.LBB97:
.LBB98:
	.loc 1 636 0
	bl	printf
.LVL216:
	b	.L122
.LVL217:
.L127:
.LBE98:
.LBE97:
.LBB100:
.LBB94:
	.loc 1 716 0
	ldr	r0, .L193+20
.LVL218:
	bl	printf
.LVL219:
	.loc 1 721 0
	add	r3, sp, #64
	add	r2, sp, #60
	ldr	r1, .L193+24
	mov	r0, r5
	bl	fit_rollback_index_verify
.LVL220:
	.loc 1 723 0
	mov	fp, r0
	cbz	r0, .L128
	.loc 1 724 0
	mov	r1, r0
	ldr	r0, .L193+28
.LVL221:
	b	.L191
.LVL222:
.L128:
	.loc 1 726 0
	ldr	r1, [sp, #60]
	ldr	r2, [sp, #64]
	cmp	r1, r2
	bcs	.L129
	.loc 1 727 0
	ldr	r0, .L193+32
.LVL223:
	bl	printf
.LVL224:
	b	.L122
.LVL225:
.L129:
	.loc 1 733 0
	adds	r7, r1, #1
	bne	.L130
	adds	r0, r2, #1
.LVL226:
	beq	.L131
.L130:
	.loc 1 734 0
	ldr	r0, .L193+36
	bl	printf
.LVL227:
.L131:
	.loc 1 746 0
	ldr	r10, .L193+64
.LBE94:
.LBE100:
	.loc 1 898 0
	movs	r7, #0
.LVL228:
.L135:
.LBB101:
.LBB95:
	.loc 1 746 0
	mov	r3, r7
	mov	r2, r10
	ldr	r1, [sp, #20]
	mov	r0, r5
	bl	spl_fit_get_image_node
.LVL229:
	.loc 1 748 0
	subs	r8, r0, #0
	blt	.L132
	.loc 1 751 0
	add	r3, sp, #80
	str	r8, [sp]
	str	r3, [sp, #4]
	mov	r2, r5
	ldr	r3, [sp, #56]
	mov	r0, r6
.LVL230:
	ldr	r1, [sp, #24]
	bl	spl_load_fit_image
.LVL231:
	.loc 1 753 0
	cmp	r0, #0
	bne	.L122
	.loc 1 756 0
	add	r2, sp, #52
	mov	r1, r8
	mov	r0, r5
.LVL232:
	bl	fit_get_desc
.LVL233:
	.loc 1 757 0
	cmp	r0, #0
	bne	.L122
	.loc 1 760 0
	ldr	r3, [sp, #92]
	.loc 1 763 0
	ldr	r0, [sp, #52]
.LVL234:
	.loc 1 760 0
	adds	r3, r3, #1
	.loc 1 761 0
	itt	eq
	ldreq	r3, [sp, #88]
	streq	r3, [sp, #92]
	.loc 1 763 0
	ldr	r1, [sp, #92]
	bl	spl_fit_standalone_release
.LVL235:
	.loc 1 764 0
	mov	r2, r0
	cbz	r0, .L134
	.loc 1 765 0
	ldr	r1, [sp, #52]
	ldr	r0, .L193+40
.LVL236:
	bl	printf
.LVL237:
.L134:
	.loc 1 745 0
	adds	r7, r7, #1
.LVL238:
	b	.L135
.LVL239:
.L132:
	.loc 1 779 0
	movs	r3, #0
	ldr	r2, .L193+44
	ldr	r1, [sp, #20]
	mov	r0, r5
	bl	spl_fit_get_image_node
.LVL240:
	.loc 1 785 0
	subs	r8, r0, #0
	bge	.L158
	.loc 1 787 0
	movs	r3, #0
	ldr	r2, .L193+48
	ldr	r1, [sp, #20]
	mov	r0, r5
.LVL241:
	bl	spl_fit_get_image_node
.LVL242:
	.loc 1 795 0
	ldr	r3, [r4, #28]
	.loc 1 787 0
	mov	r8, r0
.LVL243:
	.loc 1 795 0
	cmp	r3, #2
	bne	.L137
	.loc 1 797 0
	ldr	r0, .L193+52
.LVL244:
	bl	atags_get_tag
.LVL245:
	.loc 1 798 0
	cmp	r0, #0
	beq	.L137
	.loc 1 799 0
	ldr	r7, [r0, #16]
	cmp	r7, #1
	bne	.L137
	.loc 1 800 0
	movs	r3, #5
	strb	r3, [r4, #4]
.LVL246:
.L138:
.LBB86:
	.loc 1 843 0
	movs	r3, #0
	.loc 1 845 0
	ldr	r2, .L193+48
	.loc 1 843 0
	strb	r3, [sp, #51]
	.loc 1 845 0
	mov	r0, r5
	mov	r3, r7
	ldr	r1, [sp, #20]
	bl	spl_fit_get_image_node
.LVL247:
	.loc 1 846 0
	subs	r10, r0, #0
	blt	.L141
.LVL248:
.LBB87:
.LBB88:
	.loc 1 433 0
	add	r2, sp, #51
.LVL249:
	mov	r1, r10
	mov	r0, r5
.LVL250:
	bl	fit_image_get_os
.LVL251:
.LBE88:
.LBE87:
	.loc 1 853 0
	ldr	r3, [r4, #28]
	cmp	r3, #2
	bne	.L142
	ldrb	r3, [sp, #51]	@ zero_extendqisi2
	cmp	r3, #17
	beq	.L150
.L142:
	.loc 1 857 0
	add	r8, sp, #80
	str	r10, [sp]
	str	r8, [sp, #4]
	mov	r2, r5
	ldr	r3, [sp, #56]
	mov	r0, r6
	ldr	r1, [sp, #24]
	bl	spl_load_fit_image
.LVL252:
	.loc 1 859 0
	cmp	r0, #0
	blt	.L150
	.loc 1 862 0
	ldrb	r3, [sp, #51]	@ zero_extendqisi2
	cmp	r3, #17
	bne	.L144
	.loc 1 863 0
	ldr	r3, [sp, #56]
	mov	r1, r6
	ldr	r2, [sp, #24]
	mov	r0, r8
.LVL253:
	str	r3, [sp, #4]
	ldr	r3, [sp, #20]
	str	r3, [sp]
	mov	r3, r5
	bl	spl_fit_append_fdt
.LVL254:
	.loc 1 865 0
	cmp	r0, #0
	blt	.L122
	.loc 1 867 0
	ldr	r3, [sp, #100]
	str	r3, [r4, #20]
.L144:
	.loc 1 874 0
	ldr	r3, [r4, #12]
	adds	r3, r3, #1
	bne	.L146
	.loc 1 875 0
	ldr	r3, [sp, #92]
	.loc 1 874 0
	adds	r2, r3, #1
	.loc 1 876 0
	it	ne
	strne	r3, [r4, #12]
.L146:
	.loc 1 879 0
	ldr	r8, [r4, #20]
	cmp	r8, #0
	beq	.L150
.LVL255:
.LBB89:
.LBB90:
	.loc 1 413 0
	add	r3, sp, #68
	mov	r2, r7
	ldr	r1, .L193+48
	mov	r0, r5
.LVL256:
	bl	spl_fit_get_image_name.isra.0
.LVL257:
	.loc 1 415 0
	cmp	r0, #0
	blt	.L150
	.loc 1 418 0
	mov	r3, r7
	ldr	r2, .L193+48
	ldr	r1, [sp, #20]
	mov	r0, r5
.LVL258:
	bl	spl_fit_get_image_node
.LVL259:
	.loc 1 420 0
	ldr	r3, [sp, #68]
	.loc 1 422 0
	mov	r1, r0
	.loc 1 418 0
	mov	r10, r0
.LVL260:
	.loc 1 422 0
	ldr	r2, .L193+56
	mov	r0, r5
.LVL261:
	.loc 1 420 0
	str	r3, [sp, #28]
	ldr	r3, [sp, #88]
	str	r3, [sp, #32]
	ldr	r3, [sp, #112]
	str	r3, [sp, #36]
	ldr	r3, [sp, #92]
	str	r3, [sp, #40]
	.loc 1 422 0
	movs	r3, #0
	bl	fdt_getprop
.LVL262:
	.loc 1 423 0
	movs	r3, #0
	.loc 1 422 0
	str	r0, [sp, #44]
	.loc 1 423 0
	ldr	r2, .L193+60
	mov	r1, r10
	mov	r0, r5
	bl	fdt_getprop
.LVL263:
	.loc 1 420 0
	ldr	r3, [sp, #44]
	mov	r1, r7
	str	r0, [sp, #12]
	mov	r0, r8
	ldr	r2, [sp, #28]
	str	r3, [sp, #8]
	ldr	r3, [sp, #40]
	str	r3, [sp, #4]
	ldr	r3, [sp, #36]
	str	r3, [sp]
	ldr	r3, [sp, #32]
	bl	fdt_record_loadable
.LVL264:
.L150:
.LBE90:
.LBE89:
.LBE86:
	.loc 1 842 0
	adds	r7, r7, #1
.LVL265:
	b	.L138
.LVL266:
.L137:
	.loc 1 807 0
	cmp	r8, #0
	blt	.L122
	movs	r7, #1
.LVL267:
.L136:
	.loc 1 814 0
	str	r4, [sp, #4]
	mov	r2, r5
	str	r8, [sp]
	mov	r0, r6
	ldr	r3, [sp, #56]
	ldr	r1, [sp, #24]
	bl	spl_load_fit_image
.LVL268:
	.loc 1 816 0
	cmp	r0, #0
	bne	.L122
.LVL269:
.LBB91:
.LBB92:
	.loc 1 433 0
	adds	r2, r4, #4
.LVL270:
	mov	r1, r8
	mov	r0, r5
.LVL271:
	bl	fit_image_get_os
.LVL272:
.LBE92:
.LBE91:
	.loc 1 823 0
	cbz	r0, .L139
	.loc 1 827 0
	movs	r3, #17
	strb	r3, [r4, #4]
.L139:
	.loc 1 831 0
	ldrb	r3, [r4, #4]	@ zero_extendqisi2
	cmp	r3, #17
	bne	.L138
	.loc 1 832 0
	ldr	r3, [sp, #56]
	mov	r1, r6
	ldr	r2, [sp, #24]
	mov	r0, r4
	str	r3, [sp, #4]
	ldr	r3, [sp, #20]
	str	r3, [sp]
	mov	r3, r5
	bl	spl_fit_append_fdt
.LVL273:
	.loc 1 834 0
	cmp	r0, #0
	bge	.L138
	b	.L122
.LVL274:
.L158:
	.loc 1 770 0
	movs	r7, #0
	b	.L136
.L194:
	.align	2
.L193:
	.word	-302117424
	.word	.LC24
	.word	.LC19
	.word	.LC16
	.word	.LC17
	.word	.LC18
	.word	-237076478
	.word	.LC25
	.word	.LC26
	.word	.LC27
	.word	.LC29
	.word	.LC30
	.word	.LC31
	.word	1413546071
	.word	.LC32
	.word	.LC33
	.word	.LC28
.LVL275:
.L141:
	.loc 1 890 0
	ldr	r3, [r4, #12]
	subs	r3, r3, #1
	adds	r3, r3, #3
	bls	.L149
	.loc 1 891 0
	ldr	r3, [r4, #8]
	str	r3, [r4, #12]
.L149:
.LVL276:
.LBE95:
.LBE101:
.LBB102:
.LBB99:
	.loc 1 622 0
	ldr	r3, .L195
	add	r7, sp, #68
	ldm	r3, {r0, r1, r2}
	.loc 1 623 0
	movs	r3, #0
	str	r3, [sp, #64]
	.loc 1 626 0
	ldr	r3, [r4, #28]
	.loc 1 622 0
	stm	r7, {r0, r1, r2}
	.loc 1 626 0
	cmp	r3, #2
	bne	.L120
.LVL277:
	.loc 1 634 0
	mov	r1, r6
	mov	r0, r4
	bl	spl_kernel_partition
.LVL278:
	.loc 1 635 0
	add	r2, sp, #80
	mov	r1, r0
	ldr	r0, [r6]
.LVL279:
	bl	part_get_info_by_name
.LVL280:
	cmp	r0, #0
	bge	.L151
	.loc 1 636 0
	ldr	r1, .L195+4
	ldr	r0, .L195+8
	b	.L191
.L151:
.LVL281:
	.loc 1 643 0
	movs	r3, #3
	add	r5, sp, #64
	str	r3, [sp]
	mov	r1, r6
	str	r5, [sp, #4]
	mov	r3, r7
	ldr	r2, [sp, #80]
	mov	r0, r4
	bl	spl_internal_load_kernel_fit
.LVL282:
	.loc 1 645 0
	cmp	r0, #0
	blt	.L122
	.loc 1 649 0
	ldr	r3, [sp, #64]
	cbz	r3, .L120
	.loc 1 651 0
	add	r2, sp, #80
	ldr	r1, .L195+12
	ldr	r0, [r6]
.LVL283:
	bl	part_get_info_by_name
.LVL284:
	cmp	r0, #0
	bge	.L154
	.loc 1 652 0
	add	r2, sp, #80
	ldr	r1, .L195+16
	ldr	r0, [r6]
	bl	part_get_info_by_name
.LVL285:
	.loc 1 651 0
	cmp	r0, #0
	bge	.L154
	.loc 1 653 0
	ldr	r0, .L195+20
	b	.L190
.L154:
	.loc 1 656 0
	ldr	r7, [sp, #80]
.LVL286:
	.loc 1 660 0
	ldr	r0, .L195+24
	mov	r1, r7
	bl	printf
.LVL287:
	.loc 1 661 0
	movs	r3, #1
	str	r5, [sp, #4]
	str	r3, [sp]
	mov	r2, r7
	add	r3, sp, #76
	mov	r1, r6
	mov	r0, r4
	bl	spl_internal_load_kernel_fit
.LVL288:
.LBE99:
.LBE102:
	.loc 1 939 0
	mov	fp, r0
	cmp	r0, #0
	bne	.L122
.LVL289:
.L120:
	.loc 1 947 0
	mov	r0, fp
	add	sp, sp, #160
	.cfi_remember_state
	.cfi_def_cfa_offset 32
	@ sp needed
	pop	{r4, r5, r6, r7, r8, r10, fp, pc}
.LVL290:
.L156:
	.cfi_restore_state
	.loc 1 943 0
	ldr	r0, [r6]
	bl	spl_ab_decrease_reset
.LVL291:
	b	.L192
.L196:
	.align	2
.L195:
	.word	.LANCHOR2
	.word	.LANCHOR1
	.word	.LC34
	.word	.LC35
	.word	.LC36
	.word	.LC37
	.word	.LC38
	.cfi_endproc
.LFE240:
	.size	spl_load_simple_fit, .-spl_load_simple_fit
	.section	.rodata
	.align	2
	.set	.LANCHOR2,. + 0
.LC39:
	.word	.LC0
	.word	.LC1
	.word	.LC2
	.section	.rodata.__func__.9950,"a",%progbits
	.set	.LANCHOR0,. + 0
	.type	__func__.9950, %object
	.size	__func__.9950, 29
__func__.9950:
	.ascii	"spl_internal_load_kernel_fit\000"
	.section	.rodata.__func__.9969,"a",%progbits
	.set	.LANCHOR1,. + 0
	.type	__func__.9969, %object
	.size	__func__.9969, 20
__func__.9969:
	.ascii	"spl_load_kernel_fit\000"
	.section	.rodata.spl_fit_get_image_name.isra.0.str1.1,"aMS",%progbits,1
.LC4:
	.ascii	"No matching DT out of these options:\012\000"
.LC5:
	.ascii	"description\000"
.LC6:
	.ascii	"   %s\012\000"
	.section	.rodata.spl_internal_load_kernel_fit.str1.1,"aMS",%progbits,1
.LC15:
	.ascii	"%s: invalid fit magic\012\000"
.LC16:
	.ascii	"No default config node\012\000"
.LC17:
	.ascii	"fit verify configure failed, ret=%d\012\000"
.LC18:
	.ascii	"\012\000"
.LC19:
	.ascii	"/images\000"
.LC20:
	.ascii	"misc\000"
.LC21:
	.ascii	"sys_bootargs\000"
.LC22:
	.ascii	"sys_bootargs=\000"
	.section	.rodata.spl_kernel_partition.str1.1,"aMS",%progbits,1
.LC23:
	.ascii	"boot\000"
	.section	.rodata.spl_load_fit_image.str1.1,"aMS",%progbits,1
.LC7:
	.ascii	"## Preload the image OK.\012\000"
.LC8:
	.ascii	"Cannot get image data/size\012\000"
.LC9:
	.ascii	"compression\000"
.LC10:
	.ascii	"## Checking %s 0x%08lx (%s @0x%08lx) ... \000"
.LC11:
	.ascii	"## Checking %s 0x%08lx ... \000"
.LC12:
	.ascii	"OK\012\000"
.LC13:
	.ascii	"entry\000"
	.section	.rodata.spl_load_meta.str1.1,"aMS",%progbits,1
.LC14:
	.ascii	"No load cfg image.\012\000"
	.section	.rodata.spl_load_simple_fit.str1.1,"aMS",%progbits,1
.LC24:
	.ascii	"Not fit magic\012\000"
.LC25:
	.ascii	"fit failed to get rollback index, ret=%d\012\000"
.LC26:
	.ascii	"fit reject rollback: %d < %d(min)\012\000"
.LC27:
	.ascii	"rollback index: %d >= %d(min), OK\012\000"
.LC28:
	.ascii	"standalone\000"
.LC29:
	.ascii	"%s: start standalone fail, ret=%d\012\000"
.LC30:
	.ascii	"firmware\000"
.LC31:
	.ascii	"loadables\000"
.LC32:
	.ascii	"type\000"
.LC33:
	.ascii	"os\000"
.LC34:
	.ascii	"%s: no partition\012\000"
.LC35:
	.ascii	"rootfs\000"
.LC36:
	.ascii	"system\000"
.LC37:
	.ascii	"Neither rootfs nor system_a/b partition\012\000"
.LC38:
	.ascii	"Trying ramdisk fit image at 0x%lx sector\012\000"
	.section	.rodata.str1.1,"aMS",%progbits,1
.LC0:
	.ascii	"fdt\000"
.LC2:
	.ascii	"ramdisk\000"
.LC1:
	.ascii	"kernel\000"
	.text
.Letext0:
	.file 3 "include/common.h"
	.file 4 "./arch/arm/include/asm/types.h"
	.file 5 "./arch/arm/include/asm/posix_types.h"
	.file 6 "include/linux/types.h"
	.file 7 "include/errno.h"
	.file 8 "include/linux/string.h"
	.file 9 "include/efi.h"
	.file 10 "include/blk.h"
	.file 11 "include/ide.h"
	.file 12 "include/part.h"
	.file 13 "include/flash.h"
	.file 14 "include/lmb.h"
	.file 15 "include/asm-generic/u-boot.h"
	.file 16 "./arch/arm/include/asm/u-boot-arm.h"
	.file 17 "include/linux/libfdt_env.h"
	.file 18 "include/linux/../../scripts/dtc/libfdt/fdt.h"
	.file 19 "include/linux/libfdt.h"
	.file 20 "include/u-boot/sha1.h"
	.file 21 "include/u-boot/sha256.h"
	.file 22 "include/net.h"
	.file 23 "./arch/arm/include/asm/spl.h"
	.file 24 "include/spl.h"
	.file 25 "include/malloc.h"
	.file 26 "./arch/arm/include/asm/arch/rk_atags.h"
	.file 27 "include/linux/byteorder/swab.h"
	.file 28 "include/linux/../../scripts/dtc/libfdt/libfdt.h"
	.file 29 "include/fdt_support.h"
	.file 30 "include/stdio.h"
	.file 31 "include/command.h"
	.file 32 "include/envf.h"
	.section	.note.GNU-stack,"",%progbits
