	.arch armv8-a+nosimd
	.file	"spl_fit_tb.c"
	.text
.Ltext0:
	.cfi_sections	.debug_frame
	.section	.text.spl_fit_get_image_name.isra.0,"ax",@progbits
	.align	2
	.type	spl_fit_get_image_name.isra.0, %function
spl_fit_get_image_name.isra.0:
.LFB232:
	.file 1 "common/spl/spl_fit_tb.c"
	.loc 1 93 0
	.cfi_startproc
.LVL0:
	stp	x29, x30, [sp, -80]!
	.cfi_def_cfa_offset 80
	.cfi_offset 29, -80
	.cfi_offset 30, -72
	add	x29, sp, 0
	.cfi_def_cfa_register 29
	stp	x19, x20, [sp, 16]
	.cfi_offset 19, -64
	.cfi_offset 20, -56
	mov	x20, x0
	stp	x21, x22, [sp, 32]
	.cfi_offset 21, -48
	.cfi_offset 22, -40
	mov	w22, w2
	str	x23, [sp, 48]
	.cfi_offset 23, -32
	.loc 1 93 0
	mov	x21, x3
	mov	x23, x1
	.loc 1 102 0
	bl	fit_find_config_node
.LVL1:
	mov	w19, w0
.LVL2:
	.loc 1 103 0
	tbz	w0, #31, .L2
	.loc 1 105 0
	adrp	x0, .LC0
.LVL3:
	add	x0, x0, :lo12:.LC0
	bl	printf
.LVL4:
	.loc 1 109 0
	adrp	x22, .LC1
.LVL5:
	.loc 1 106 0
	mov	w1, w19
	mov	x0, x20
	.loc 1 110 0
	adrp	x23, .LC2
.LVL6:
	.loc 1 106 0
	bl	fdt_first_subnode
.LVL7:
	.loc 1 109 0
	add	x22, x22, :lo12:.LC1
	.loc 1 106 0
	mov	w21, w0
.LVL8:
	.loc 1 110 0
	add	x23, x23, :lo12:.LC2
.L3:
	.loc 1 106 0
	tbz	w21, #31, .L4
.LVL9:
.L1:
	.loc 1 133 0
	mov	w0, w19
	ldr	x23, [sp, 48]
	ldp	x19, x20, [sp, 16]
	ldp	x21, x22, [sp, 32]
	ldp	x29, x30, [sp], 80
	.cfi_remember_state
	.cfi_restore 30
	.cfi_restore 29
	.cfi_restore 23
	.cfi_restore 21
	.cfi_restore 22
	.cfi_restore 19
	.cfi_restore 20
	.cfi_def_cfa 31, 0
	ret
.LVL10:
.L4:
	.cfi_restore_state
	.loc 1 109 0
	add	x3, x29, 76
	mov	x2, x22
	mov	w1, w21
	mov	x0, x20
.LVL11:
	bl	fdt_getprop
.LVL12:
	.loc 1 110 0
	mov	x1, x0
	mov	x0, x23
.LVL13:
	bl	printf
.LVL14:
	.loc 1 108 0
	mov	w1, w21
	mov	x0, x20
	bl	fdt_next_subnode
.LVL15:
	mov	w21, w0
.LVL16:
	b	.L3
.LVL17:
.L2:
	.loc 1 116 0
	mov	w1, w0
	add	x3, x29, 76
	mov	x0, x20
.LVL18:
	mov	x2, x23
	bl	fdt_getprop
.LVL19:
	mov	x20, x0
.LVL20:
	.loc 1 117 0
	cbz	x0, .L8
	mov	w19, 0
.LVL21:
.L6:
	.loc 1 123 0
	cmp	w19, w22
	blt	.L7
	.loc 1 132 0
	mov	w19, 0
.LVL22:
	.loc 1 131 0
	str	x0, [x21]
	b	.L1
.LVL23:
.L7:
	.loc 1 124 0
	mov	w1, 0
	bl	strchr
.LVL24:
	.loc 1 125 0
	adds	x0, x0, 1
.LVL25:
	beq	.L10
	ldrsw	x2, [x29, 76]
	sub	x1, x0, x20
	cmp	x1, x2
	bge	.L10
	.loc 1 123 0
	add	w19, w19, 1
.LVL26:
	b	.L6
.LVL27:
.L8:
	.loc 1 119 0
	mov	w19, -22
.LVL28:
	b	.L1
.LVL29:
.L10:
	.loc 1 127 0
	mov	w19, -7
.LVL30:
	b	.L1
	.cfi_endproc
.LFE232:
	.size	spl_fit_get_image_name.isra.0, .-spl_fit_get_image_name.isra.0
	.section	.text.spl_fit_get_image_node,"ax",@progbits
	.align	2
	.type	spl_fit_get_image_node, %function
spl_fit_get_image_node:
.LFB218:
	.loc 1 149 0
	.cfi_startproc
.LVL31:
	stp	x29, x30, [sp, -48]!
	.cfi_def_cfa_offset 48
	.cfi_offset 29, -48
	.cfi_offset 30, -40
	add	x29, sp, 0
	.cfi_def_cfa_register 29
	stp	x19, x20, [sp, 16]
	.cfi_offset 19, -32
	.cfi_offset 20, -24
	.loc 1 149 0
	mov	w20, w1
	mov	x19, x0
	mov	x1, x2
.LVL32:
	mov	w2, w3
.LVL33:
	.loc 1 154 0
	add	x3, x29, 40
.LVL34:
	bl	spl_fit_get_image_name.isra.0
.LVL35:
	.loc 1 155 0
	cbnz	w0, .L12
	.loc 1 160 0
	ldr	x2, [x29, 40]
	mov	w1, w20
	mov	x0, x19
.LVL36:
	bl	fdt_subnode_offset
.LVL37:
	.loc 1 163 0
	cmp	w0, 0
	mov	w1, -22
	csel	w0, w0, w1, ge
.LVL38:
.L12:
	.loc 1 167 0
	ldp	x19, x20, [sp, 16]
.LVL39:
	ldp	x29, x30, [sp], 48
	.cfi_restore 30
	.cfi_restore 29
	.cfi_restore 19
	.cfi_restore 20
	.cfi_def_cfa 31, 0
	ret
	.cfi_endproc
.LFE218:
	.size	spl_fit_get_image_node, .-spl_fit_get_image_node
	.section	.text.spl_load_fit_image,"ax",@progbits
	.align	2
	.type	spl_load_fit_image, %function
spl_load_fit_image:
.LFB222:
	.loc 1 227 0
	.cfi_startproc
.LVL40:
	stp	x29, x30, [sp, -144]!
	.cfi_def_cfa_offset 144
	.cfi_offset 29, -144
	.cfi_offset 30, -136
	add	x29, sp, 0
	.cfi_def_cfa_register 29
	stp	x19, x20, [sp, 16]
	.cfi_offset 19, -128
	.cfi_offset 20, -120
	mov	x19, x2
	.loc 1 237 0
	add	x2, x29, 144
.LVL41:
	.loc 1 227 0
	stp	x21, x22, [sp, 32]
	stp	x23, x24, [sp, 48]
	.cfi_offset 21, -112
	.cfi_offset 22, -104
	.cfi_offset 23, -96
	.cfi_offset 24, -88
	mov	x22, x0
	stp	x25, x26, [sp, 64]
	.loc 1 237 0
	mov	w0, -1
.LVL42:
	.loc 1 227 0
	stp	x27, x28, [sp, 80]
	.cfi_offset 25, -80
	.cfi_offset 26, -72
	.cfi_offset 27, -64
	.cfi_offset 28, -56
	.loc 1 227 0
	mov	w20, w4
	.loc 1 237 0
	strb	w0, [x2, -41]!
.LVL43:
	.loc 1 227 0
	mov	x25, x1
	mov	x21, x3
	.loc 1 254 0
	mov	w1, w4
.LVL44:
	.loc 1 227 0
	mov	x23, x5
	.loc 1 254 0
	mov	x0, x19
	.loc 1 241 0
	ldr	x24, [x22]
.LVL45:
	.loc 1 254 0
	bl	fit_image_get_comp
.LVL46:
	.loc 1 257 0
	add	x2, x29, 128
	mov	w1, w20
	mov	x0, x19
	bl	fit_image_get_load
.LVL47:
	cbz	w0, .L17
	.loc 1 258 0
	ldr	x0, [x23, 16]
	str	x0, [x29, 128]
.L17:
	.loc 1 260 0
	ldrb	w0, [x29, 103]
	cmp	w0, 0
	ccmp	w0, 6, 4, ne
	beq	.L18
	.loc 1 262 0
	add	x2, x29, 120
	mov	w1, w20
	mov	x0, x19
	bl	fit_image_get_comp_addr
.LVL48:
	cbz	w0, .L19
	.loc 1 263 0
	ldr	x0, [x29, 128]
	add	x0, x0, 1048576
.L57:
	.loc 1 265 0
	str	x0, [x29, 120]
.L19:
	.loc 1 268 0
	add	x2, x29, 104
	mov	w1, w20
	mov	x0, x19
	bl	fit_image_get_data_position
.LVL49:
	cbz	w0, .L20
	.loc 1 270 0
	add	x2, x29, 104
	mov	w1, w20
	mov	x0, x19
	bl	fit_image_get_data_offset
.LVL50:
	cbnz	w0, .L21
	.loc 1 271 0
	ldr	w3, [x29, 104]
	add	w3, w3, w21
	str	w3, [x29, 104]
.LVL51:
.L20:
	.loc 1 277 0
	add	x2, x29, 108
	mov	w1, w20
	mov	x0, x19
	bl	fit_image_get_data_size
.LVL52:
	cbnz	w0, .L41
	.loc 1 280 0
	ldr	x21, [x29, 120]
.LVL53:
	.loc 1 282 0
	mov	x0, 65535
	movk	x0, 0xfeff, lsl 16
	.loc 1 280 0
	add	x21, x21, 63
	and	x26, x21, -64
.LVL54:
	.loc 1 282 0
	cmp	x26, x0
	bls	.L22
	.loc 1 284 0
	ldrsw	x1, [x29, 108]
	mov	x0, 64
	bl	memalign_simple
.LVL55:
	mov	x26, x0
.LVL56:
.L22:
	.loc 1 286 0
	ldp	w27, w21, [x29, 104]
	sxtw	x0, w21
	str	x0, [x29, 112]
.LVL57:
.LBB36:
.LBB37:
	.loc 1 190 0
	ldr	x0, [x22, 24]
	cbz	x0, .L23
	.loc 1 191 0
	and	w27, w27, 63
.L24:
.LVL58:
.LBE37:
.LBE36:
.LBB39:
.LBB40:
	.loc 1 199 0
	add	w21, w21, w27
.LVL59:
	.loc 1 201 0
	cbnz	x0, .L25
	.loc 1 204 0
	ldr	w0, [x22, 16]
	add	w21, w21, w0
.LVL60:
	sub	w21, w21, #1
	sdiv	w21, w21, w0
.L25:
.LVL61:
.LBE40:
.LBE39:
	.loc 1 292 0
	mov	w1, w20
	mov	x0, x19
	bl	fit_image_is_preload
.LVL62:
	.loc 1 294 0
	ands	w28, w0, 255
	beq	.L26
	.loc 1 295 0
	mov	w0, 1
.LVL63:
	strb	w0, [x24, 14]
.L26:
	.loc 1 297 0
	ldp	x0, x4, [x22, 24]
	.loc 1 298 0
	ldr	w1, [x29, 104]
.LVL64:
.LBB41:
.LBB42:
	.loc 1 176 0
	cbz	x0, .L27
	.loc 1 177 0
	and	w1, w1, -64
.LVL65:
.L28:
.LBE42:
.LBE41:
	.loc 1 297 0
	sxtw	x21, w21
	mov	x3, x26
	mov	x2, x21
	add	x1, x25, x1, sxtw
	mov	x0, x22
	blr	x4
.LVL66:
	cmp	x21, x0
	bne	.L38
.LVL67:
	.loc 1 305 0
	cbnz	w28, .L30
	.loc 1 304 0
	add	x26, x26, x27, sxtw
.LVL68:
.L31:
	.loc 1 322 0
	ldrb	w0, [x29, 103]
.LBB44:
.LBB45:
	.file 2 "include/image.h"
	.loc 2 1006 0
	mov	x2, 0
	mov	w1, w20
.LBE45:
.LBE44:
	.loc 1 322 0
	cmp	w0, 0
	ccmp	w0, 6, 4, ne
.LBB49:
.LBB46:
	.loc 2 1006 0
	mov	x0, x19
.LBE46:
.LBE49:
	.loc 1 322 0
	beq	.L33
.LVL69:
.LBB50:
.LBB47:
	.loc 2 1006 0
	bl	fdt_get_name
.LVL70:
.LBE47:
.LBE50:
	.loc 1 323 0
	ldr	x24, [x29, 128]
.LVL71:
.LBB51:
.LBB48:
	.loc 2 1006 0
	mov	x22, x0
.LVL72:
.LBE48:
.LBE51:
	.loc 1 325 0
	mov	x3, 0
	mov	w1, w20
	adrp	x2, .LC5
	mov	x0, x19
	add	x2, x2, :lo12:.LC5
	bl	fdt_getprop
.LVL73:
	.loc 1 323 0
	mov	x3, x0
	mov	x4, x26
	adrp	x0, .LC6
	mov	x2, x24
	mov	x1, x22
	add	x0, x0, :lo12:.LC6
	bl	printf
.LVL74:
.L34:
	.loc 1 335 0
	ldr	x3, [x29, 112]
	mov	x2, x26
	mov	w1, w20
	mov	x0, x19
	bl	fit_image_verify_with_data
.LVL75:
	cbz	w0, .L39
	.loc 1 343 0
	adrp	x0, .LC8
	add	x0, x0, :lo12:.LC8
	bl	puts
.LVL76:
	.loc 1 357 0
	ldr	x2, [x29, 112]
	mov	x1, x26
	ldr	x0, [x29, 128]
	bl	memcpy
.LVL77:
	b	.L32
.LVL78:
.L18:
	.loc 1 265 0
	ldr	x0, [x29, 128]
	b	.L57
.LVL79:
.L23:
.LBB52:
.LBB38:
	.loc 1 193 0
	ldr	w1, [x22, 16]
	sdiv	w2, w27, w1
	msub	w27, w2, w1, w27
	b	.L24
.LVL80:
.L27:
.LBE38:
.LBE52:
.LBB53:
.LBB43:
	.loc 1 179 0
	ldr	w0, [x22, 16]
	sdiv	w1, w1, w0
.LVL81:
	b	.L28
.LVL82:
.L30:
.LBE43:
.LBE53:
	.loc 1 306 0
	ldrb	w0, [x24, 14]
	and	w0, w0, -2
	strb	w0, [x24, 14]
	.loc 1 307 0
	adrp	x0, .LC3
	add	x0, x0, :lo12:.LC3
	bl	printf
.LVL83:
.L32:
	.loc 1 360 0
	cbz	x23, .L40
	.loc 1 361 0
	ldr	x0, [x29, 128]
	.loc 1 363 0
	adrp	x2, .LC9
	.loc 1 361 0
	str	x0, [x23, 16]
	.loc 1 363 0
	add	x2, x2, :lo12:.LC9
	.loc 1 362 0
	ldr	x0, [x29, 112]
	.loc 1 363 0
	mov	w1, w20
	.loc 1 362 0
	str	w0, [x23, 72]
	.loc 1 363 0
	mov	x0, x19
	bl	fdt_getprop_u32
.LVL84:
	str	x0, [x23, 24]
.L40:
	.loc 1 366 0
	mov	w0, 0
	b	.L16
.LVL85:
.L54:
	.loc 1 318 0
	ldr	x26, [x29, 136]
.LVL86:
	b	.L31
.LVL87:
.L33:
.LBB54:
.LBB55:
	.loc 2 1006 0
	bl	fdt_get_name
.LVL88:
.LBE55:
.LBE54:
	.loc 1 328 0
	mov	x1, x0
	ldr	x2, [x29, 128]
	adrp	x0, .LC7
	add	x0, x0, :lo12:.LC7
	bl	printf
.LVL89:
	b	.L34
.LVL90:
.L38:
	.loc 1 300 0
	mov	w0, -5
.LVL91:
.L16:
	.loc 1 367 0
	ldp	x19, x20, [sp, 16]
.LVL92:
	ldp	x21, x22, [sp, 32]
	ldp	x23, x24, [sp, 48]
.LVL93:
	ldp	x25, x26, [sp, 64]
.LVL94:
	ldp	x27, x28, [sp, 80]
	ldp	x29, x30, [sp], 144
	.cfi_remember_state
	.cfi_restore 30
	.cfi_restore 29
	.cfi_restore 27
	.cfi_restore 28
	.cfi_restore 25
	.cfi_restore 26
	.cfi_restore 23
	.cfi_restore 24
	.cfi_restore 21
	.cfi_restore 22
	.cfi_restore 19
	.cfi_restore 20
	.cfi_def_cfa 31, 0
	ret
.LVL95:
.L39:
	.cfi_restore_state
	.loc 1 337 0
	mov	w0, -1
	b	.L16
.LVL96:
.L21:
	.loc 1 312 0
	add	x3, x29, 112
	add	x2, x29, 136
	mov	w1, w20
	mov	x0, x19
	bl	fit_image_get_data
.LVL97:
	cbz	w0, .L54
	.loc 1 313 0
	adrp	x0, .LC4
	add	x0, x0, :lo12:.LC4
	bl	puts
.LVL98:
.L41:
	.loc 1 278 0
	mov	w0, -2
.LVL99:
	b	.L16
	.cfi_endproc
.LFE222:
	.size	spl_load_fit_image, .-spl_load_fit_image
	.section	.text.spl_fit_append_fdt,"ax",@progbits
	.align	2
	.type	spl_fit_append_fdt, %function
spl_fit_append_fdt:
.LFB223:
	.loc 1 372 0
	.cfi_startproc
.LVL100:
	stp	x29, x30, [sp, -160]!
	.cfi_def_cfa_offset 160
	.cfi_offset 29, -160
	.cfi_offset 30, -152
	add	x29, sp, 0
	.cfi_def_cfa_register 29
	stp	x21, x22, [sp, 32]
	.cfi_offset 21, -128
	.cfi_offset 22, -120
	mov	x21, x3
	stp	x19, x20, [sp, 16]
	mov	x22, x1
	stp	x23, x24, [sp, 48]
	.cfi_offset 19, -144
	.cfi_offset 20, -136
	.cfi_offset 23, -112
	.cfi_offset 24, -104
	.loc 1 372 0
	mov	x20, x0
	mov	x23, x2
	mov	x24, x5
	.loc 1 377 0
	mov	w3, 0
.LVL101:
	adrp	x2, .LC10
.LVL102:
	mov	w1, w4
.LVL103:
	add	x2, x2, :lo12:.LC10
	mov	x0, x21
.LVL104:
	bl	spl_fit_get_image_node
.LVL105:
	mov	w19, w0
.LVL106:
	.loc 1 378 0
	tbnz	w0, #31, .L58
	.loc 1 387 0
	ldr	w1, [x20, 72]
	.loc 1 388 0
	mov	w4, w0
	.loc 1 387 0
	ldr	x0, [x20, 16]
.LVL107:
	.loc 1 388 0
	add	x5, x29, 72
	mov	x3, x24
	mov	x2, x21
	.loc 1 387 0
	add	x0, x0, x1
	.loc 1 388 0
	mov	x1, x23
	.loc 1 387 0
	str	x0, [x29, 88]
	.loc 1 388 0
	mov	x0, x22
	bl	spl_load_fit_image
.LVL108:
	mov	w19, w0
.LVL109:
	.loc 1 391 0
	tbnz	w0, #31, .L58
	.loc 1 395 0
	ldr	x0, [x29, 88]
.LVL110:
	.loc 1 398 0
	mov	w1, 8192
	.loc 1 395 0
	str	x0, [x20, 56]
	.loc 1 398 0
	bl	fdt_shrink_to_minimum
.LVL111:
.L58:
	.loc 1 402 0
	mov	w0, w19
	ldp	x19, x20, [sp, 16]
.LVL112:
	ldp	x21, x22, [sp, 32]
.LVL113:
	ldp	x23, x24, [sp, 48]
.LVL114:
	ldp	x29, x30, [sp], 160
	.cfi_restore 30
	.cfi_restore 29
	.cfi_restore 23
	.cfi_restore 24
	.cfi_restore 21
	.cfi_restore 22
	.cfi_restore 19
	.cfi_restore 20
	.cfi_def_cfa 31, 0
	ret
	.cfi_endproc
.LFE223:
	.size	spl_fit_append_fdt, .-spl_fit_append_fdt
	.section	.text.spl_fit_load_blob,"ax",@progbits
	.align	2
	.type	spl_fit_load_blob, %function
spl_fit_load_blob:
.LFB227:
	.loc 1 444 0
	.cfi_startproc
.LVL115:
	stp	x29, x30, [sp, -32]!
	.cfi_def_cfa_offset 32
	.cfi_offset 29, -32
	.cfi_offset 30, -24
	add	x29, sp, 0
	.cfi_def_cfa_register 29
	ldr	w4, [x2, 4]
.LVL116:
.LBB62:
.LBB63:
	.loc 1 201 0
	ldr	x5, [x0, 24]
.LBE63:
.LBE62:
	.loc 1 456 0
	rev	w4, w4
.LVL117:
	.loc 1 444 0
	str	x19, [sp, 16]
	.cfi_offset 19, -16
	.loc 1 457 0
	add	x4, x4, 511
.LVL118:
	.loc 1 477 0
	mov	x19, 65473
	.loc 1 457 0
	and	x4, x4, -512
.LVL119:
	.loc 1 458 0
	str	w4, [x3]
	.loc 1 477 0
	movk	x19, 0x1f, lsl 16
	ldr	w3, [x0, 16]
.LVL120:
	sub	x19, x19, x3, sxtw
	sub	x19, x19, x4
	.loc 1 478 0
	and	x19, x19, -64
.LVL121:
.LBB65:
.LBB64:
	.loc 1 201 0
	cbnz	x5, .L64
	.loc 1 204 0
	add	w2, w3, w4
.LVL122:
	sub	w2, w2, #1
	sdiv	w2, w2, w3
.L62:
.LVL123:
.LBE64:
.LBE65:
	.loc 1 480 0
	ldr	x4, [x0, 32]
.LVL124:
	mov	x3, x19
	sxtw	x2, w2
	blr	x4
.LVL125:
	.loc 1 484 0
	cmp	x0, 0
	.loc 1 487 0
	csel	x0, x19, xzr, ne
.LVL126:
	ldr	x19, [sp, 16]
.LVL127:
	ldp	x29, x30, [sp], 32
	.cfi_remember_state
	.cfi_restore 30
	.cfi_restore 29
	.cfi_restore 19
	.cfi_def_cfa 31, 0
	ret
.LVL128:
.L64:
	.cfi_restore_state
	mov	w2, w4
.LVL129:
	b	.L62
	.cfi_endproc
.LFE227:
	.size	spl_fit_load_blob, .-spl_fit_load_blob
	.section	.text.fit_config_verify,"ax",@progbits
	.align	2
	.weak	fit_config_verify
	.type	fit_config_verify, %function
fit_config_verify:
.LFB207:
	.loc 1 25 0
	.cfi_startproc
.LVL130:
	.loc 1 27 0
	mov	w0, 0
.LVL131:
	ret
	.cfi_endproc
.LFE207:
	.size	fit_config_verify, .-fit_config_verify
	.section	.text.mtd_part_parse,"ax",@progbits
	.align	2
	.weak	mtd_part_parse
	.type	mtd_part_parse, %function
mtd_part_parse:
.LFB208:
	.loc 1 30 0
	.cfi_startproc
.LVL132:
	.loc 1 32 0
	mov	x0, 0
.LVL133:
	ret
	.cfi_endproc
.LFE208:
	.size	mtd_part_parse, .-mtd_part_parse
	.section	.text.spl_get_current_slot,"ax",@progbits
	.align	2
	.weak	spl_get_current_slot
	.type	spl_get_current_slot, %function
spl_get_current_slot:
.LFB209:
	.loc 1 35 0
	.cfi_startproc
.LVL134:
	.loc 1 37 0
	mov	w0, -1
.LVL135:
	ret
	.cfi_endproc
.LFE209:
	.size	spl_get_current_slot, .-spl_get_current_slot
	.section	.text.spl_load_meta,"ax",@progbits
	.align	2
	.weak	spl_load_meta
	.type	spl_load_meta, %function
spl_load_meta:
.LFB210:
	.loc 1 40 0
	.cfi_startproc
.LVL136:
	stp	x29, x30, [sp, -16]!
	.cfi_def_cfa_offset 16
	.cfi_offset 29, -16
	.cfi_offset 30, -8
	.loc 1 41 0
	adrp	x0, .LC11
.LVL137:
	add	x0, x0, :lo12:.LC11
	.loc 1 40 0
	add	x29, sp, 0
	.cfi_def_cfa_register 29
	.loc 1 41 0
	bl	printf
.LVL138:
	.loc 1 44 0
	mov	w0, -1
	ldp	x29, x30, [sp], 16
	.cfi_restore 30
	.cfi_restore 29
	.cfi_def_cfa 31, 0
	ret
	.cfi_endproc
.LFE210:
	.size	spl_load_meta, .-spl_load_meta
	.section	.text.fdt_bootargs_append_ab,"ax",@progbits
	.align	2
	.weak	fdt_bootargs_append_ab
	.type	fdt_bootargs_append_ab, %function
fdt_bootargs_append_ab:
.LFB234:
	.cfi_startproc
	mov	w0, -1
	ret
	.cfi_endproc
.LFE234:
	.size	fdt_bootargs_append_ab, .-fdt_bootargs_append_ab
	.section	.text.fdt_bootargs_append,"ax",@progbits
	.align	2
	.weak	fdt_bootargs_append
	.type	fdt_bootargs_append, %function
fdt_bootargs_append:
.LFB212:
	.loc 1 52 0
	.cfi_startproc
.LVL139:
	.loc 1 54 0
	mov	w0, -1
.LVL140:
	ret
	.cfi_endproc
.LFE212:
	.size	fdt_bootargs_append, .-fdt_bootargs_append
	.section	.text.rk_meta_bootargs_append,"ax",@progbits
	.align	2
	.weak	rk_meta_bootargs_append
	.type	rk_meta_bootargs_append, %function
rk_meta_bootargs_append:
.LFB213:
	.loc 1 57 0
	.cfi_startproc
.LVL141:
	ret
	.cfi_endproc
.LFE213:
	.size	rk_meta_bootargs_append, .-rk_meta_bootargs_append
	.section	.text.fit_rollback_index_verify,"ax",@progbits
	.align	2
	.weak	fit_rollback_index_verify
	.type	fit_rollback_index_verify, %function
fit_rollback_index_verify:
.LFB214:
	.loc 1 61 0
	.cfi_startproc
.LVL142:
	.loc 1 62 0
	mov	w0, -1
.LVL143:
	str	w0, [x2]
	.loc 1 63 0
	str	w0, [x3]
	.loc 1 66 0
	mov	w0, 0
	ret
	.cfi_endproc
.LFE214:
	.size	fit_rollback_index_verify, .-fit_rollback_index_verify
	.section	.text.spl_ab_decrease_reset,"ax",@progbits
	.align	2
	.weak	spl_ab_decrease_reset
	.type	spl_ab_decrease_reset, %function
spl_ab_decrease_reset:
.LFB215:
	.loc 1 70 0
	.cfi_startproc
.LVL144:
	.loc 1 73 0
	mov	w0, -1
.LVL145:
	ret
	.cfi_endproc
.LFE215:
	.size	spl_ab_decrease_reset, .-spl_ab_decrease_reset
	.section	.text.spl_ab_decrease_tries,"ax",@progbits
	.align	2
	.weak	spl_ab_decrease_tries
	.type	spl_ab_decrease_tries, %function
spl_ab_decrease_tries:
.LFB216:
	.loc 1 76 0
	.cfi_startproc
.LVL146:
	.loc 1 78 0
	mov	w0, 0
.LVL147:
	ret
	.cfi_endproc
.LFE216:
	.size	spl_ab_decrease_tries, .-spl_ab_decrease_tries
	.section	.text.spl_fit_standalone_release,"ax",@progbits
	.align	2
	.weak	spl_fit_standalone_release
	.type	spl_fit_standalone_release, %function
spl_fit_standalone_release:
.LFB226:
	.loc 1 437 0
	.cfi_startproc
.LVL148:
	.loc 1 439 0
	mov	w0, 0
.LVL149:
	ret
	.cfi_endproc
.LFE226:
	.size	spl_fit_standalone_release, .-spl_fit_standalone_release
	.section	.text.spl_kernel_partition,"ax",@progbits
	.align	2
	.weak	spl_kernel_partition
	.type	spl_kernel_partition, %function
spl_kernel_partition:
.LFB228:
	.loc 1 493 0
	.cfi_startproc
.LVL150:
	.loc 1 495 0
	adrp	x0, .LC12
.LVL151:
	add	x0, x0, :lo12:.LC12
	ret
	.cfi_endproc
.LFE228:
	.size	spl_kernel_partition, .-spl_kernel_partition
	.section	.text.spl_load_simple_fit,"ax",@progbits
	.align	2
	.global	spl_load_simple_fit
	.type	spl_load_simple_fit, %function
spl_load_simple_fit:
.LFB231:
	.loc 1 863 0
	.cfi_startproc
.LVL152:
	stp	x29, x30, [sp, -432]!
	.cfi_def_cfa_offset 432
	.cfi_offset 29, -432
	.cfi_offset 30, -424
	add	x29, sp, 0
	.cfi_def_cfa_register 29
	stp	x25, x26, [sp, 64]
	.cfi_offset 25, -368
	.cfi_offset 26, -360
	mov	x26, x3
	stp	x19, x20, [sp, 16]
	.loc 1 868 0
	mov	w25, 0
	.loc 1 863 0
	stp	x21, x22, [sp, 32]
	.cfi_offset 19, -416
	.cfi_offset 20, -408
	.cfi_offset 21, -400
	.cfi_offset 22, -392
	mov	x21, x1
	stp	x23, x24, [sp, 48]
	.cfi_offset 23, -384
	.cfi_offset 24, -376
	mov	x23, x2
.LVL153:
	stp	x27, x28, [sp, 80]
	.cfi_offset 27, -352
	.cfi_offset 28, -344
	.loc 1 863 0
	mov	x19, x0
.LBB86:
.LBB87:
.LBB88:
	.loc 1 810 0
	adrp	x27, .LC26
.LBB89:
.LBB90:
	.loc 1 412 0
	add	x0, x27, :lo12:.LC26
.LVL154:
	str	x0, [x29, 152]
.LVL155:
.L125:
.LBE90:
.LBE89:
.LBE88:
.LBE87:
.LBE86:
	.loc 1 869 0
	cmp	w25, 1
	bne	.L80
	.loc 1 871 0
	ldr	w1, [x21, 16]
	mov	w0, 2097152
	sdiv	w0, w0, w1
	.loc 1 870 0
	add	x23, x23, x0, sxtw
.LVL156:
	.loc 1 872 0
	adrp	x0, .LC13
	mov	x1, x23
	add	x0, x0, :lo12:.LC13
	bl	printf
.LVL157:
	.loc 1 873 0
	ldr	x4, [x21, 32]
	mov	x3, x26
	mov	x2, 1
	mov	x1, x23
	mov	x0, x21
	blr	x4
.LVL158:
	cmp	x0, 1
	beq	.L80
	.loc 1 874 0
	adrp	x0, .LC14
	add	x0, x0, :lo12:.LC14
.L170:
	.loc 1 880 0
	bl	printf
.LVL159:
.L81:
	.loc 1 868 0 discriminator 2
	add	w25, w25, 1
.LVL160:
	cmp	w25, 2
	beq	.L126
	b	.L125
.L80:
.LVL161:
	ldr	w0, [x26]
	.loc 1 879 0
	mov	w1, 65261
	movk	w1, 0xd00d, lsl 16
	rev	w0, w0
.LVL162:
	cmp	w0, w1
	beq	.L82
	.loc 1 880 0
	adrp	x0, .LC15
	add	x0, x0, :lo12:.LC15
	b	.L170
.L82:
	.loc 1 884 0
	ldr	w0, [x19, 68]
	cmp	w0, 2
	bne	.L83
	.loc 1 890 0
	ldr	x0, [x21]
	bl	spl_ab_decrease_tries
.LVL163:
.L83:
.LBB100:
.LBB98:
	.loc 1 646 0
	add	x3, x29, 172
	mov	x2, x26
	mov	x1, x23
	mov	x0, x21
	bl	spl_fit_load_blob
.LVL164:
	mov	x20, x0
.LVL165:
	.loc 1 647 0
	cbz	x0, .L81
	.loc 1 653 0
	adrp	x22, .LC16
	add	x1, x22, :lo12:.LC16
	bl	fdt_path_offset
.LVL166:
	str	x22, [x29, 136]
	mov	w24, w0
.LVL167:
	.loc 1 654 0
	tbnz	w0, #31, .L81
	.loc 1 660 0
	bl	fit_board_verify_required_sigs
.LVL168:
	.loc 1 670 0
	mov	x1, 0
	mov	x0, x20
	bl	fit_conf_get_node
.LVL169:
	.loc 1 671 0
	cmp	w0, 0
	bgt	.L85
	.loc 1 672 0
	adrp	x0, .LC17
.LVL170:
	add	x0, x0, :lo12:.LC17
	b	.L170
.LVL171:
.L85:
	.loc 1 676 0
	mov	w1, w0
	mov	x0, x20
.LVL172:
	bl	fit_config_verify
.LVL173:
	.loc 1 677 0
	cbz	w0, .L87
	.loc 1 678 0
	mov	w1, w0
	adrp	x0, .LC18
.LVL174:
	add	x0, x0, :lo12:.LC18
.L171:
	.loc 1 689 0
	bl	printf
.LVL175:
	b	.L81
.LVL176:
.L87:
	.loc 1 681 0
	adrp	x22, .LC19
	add	x0, x22, :lo12:.LC19
.LVL177:
	bl	printf
.LVL178:
	.loc 1 686 0
	mov	w1, 32770
	add	x3, x29, 180
	add	x2, x29, 176
	movk	w1, 0xf1de, lsl 16
	mov	x0, x20
	bl	fit_rollback_index_verify
.LVL179:
	str	x22, [x29, 128]
	.loc 1 688 0
	cbz	w0, .L88
	.loc 1 689 0
	mov	w1, w0
	adrp	x0, .LC20
.LVL180:
	add	x0, x0, :lo12:.LC20
	b	.L171
.LVL181:
.L88:
	.loc 1 691 0
	ldp	w1, w2, [x29, 176]
	cmp	w1, w2
	bcs	.L89
	.loc 1 692 0
	adrp	x0, .LC21
.LVL182:
	add	x0, x0, :lo12:.LC21
	bl	printf
.LVL183:
	b	.L81
.LVL184:
.L89:
	.loc 1 698 0
	cmn	w1, #1
	bne	.L90
	cmn	w2, #1
	beq	.L91
.L90:
	.loc 1 699 0
	adrp	x0, .LC22
.LVL185:
	add	x0, x0, :lo12:.LC22
	bl	printf
.LVL186:
.L91:
	.loc 1 730 0
	adrp	x28, .LC24
	add	x28, x28, :lo12:.LC24
	.loc 1 711 0
	adrp	x0, .LC23
.LBE98:
.LBE100:
	.loc 1 868 0
	mov	w22, 0
.LBB101:
.LBB99:
	.loc 1 711 0
	add	x0, x0, :lo12:.LC23
	str	x0, [x29, 144]
.LVL187:
.L95:
	ldr	x2, [x29, 144]
	mov	w3, w22
	mov	w1, w24
	mov	x0, x20
	bl	spl_fit_get_image_node
.LVL188:
	mov	w6, w0
.LVL189:
	.loc 1 713 0
	tbnz	w0, #31, .L92
	.loc 1 716 0
	ldrsw	x3, [x29, 172]
	mov	w4, w0
	add	x5, x29, 296
	mov	x2, x20
	mov	x1, x23
	mov	x0, x21
.LVL190:
	str	w6, [x29, 124]
	bl	spl_load_fit_image
.LVL191:
	.loc 1 718 0
	cbnz	w0, .L81
	.loc 1 721 0
	ldr	w6, [x29, 124]
	add	x2, x29, 184
	mov	x0, x20
.LVL192:
	mov	w1, w6
	bl	fit_get_desc
.LVL193:
	.loc 1 722 0
	cbnz	w0, .L81
	.loc 1 725 0
	ldr	x0, [x29, 320]
.LVL194:
	cmn	x0, #1
	bne	.L93
	.loc 1 726 0
	ldr	x0, [x29, 312]
	str	x0, [x29, 320]
.L93:
	.loc 1 728 0
	ldr	x0, [x29, 184]
	ldr	x1, [x29, 320]
	bl	spl_fit_standalone_release
.LVL195:
	.loc 1 729 0
	cbz	w0, .L94
	.loc 1 730 0
	ldr	x1, [x29, 184]
	mov	w2, w0
	mov	x0, x28
.LVL196:
	bl	printf
.LVL197:
.L94:
	.loc 1 710 0
	add	w22, w22, 1
.LVL198:
	b	.L95
.LVL199:
.L92:
	.loc 1 744 0
	mov	w3, 0
	adrp	x2, .LC25
	mov	w1, w24
	add	x2, x2, :lo12:.LC25
	mov	x0, x20
	bl	spl_fit_get_image_node
.LVL200:
	mov	w28, w0
.LVL201:
	.loc 1 750 0
	tbz	w0, #31, .L129
	.loc 1 752 0
	mov	w3, 0
	add	x2, x27, :lo12:.LC26
	mov	w1, w24
	mov	x0, x20
.LVL202:
	bl	spl_fit_get_image_node
.LVL203:
	mov	w28, w0
.LVL204:
	.loc 1 760 0
	ldr	w0, [x19, 68]
.LVL205:
	cmp	w0, 2
	bne	.L97
	.loc 1 762 0
	mov	w0, 87
	movk	w0, 0x5441, lsl 16
	bl	atags_get_tag
.LVL206:
	.loc 1 763 0
	cbz	x0, .L97
	.loc 1 764 0
	ldr	w22, [x0, 16]
	cmp	w22, 1
	bne	.L97
	.loc 1 765 0
	mov	w0, 5
.LVL207:
	strb	w0, [x19, 8]
.LVL208:
.L98:
.LBB95:
	.loc 1 808 0
	strb	wzr, [x29, 171]
	.loc 1 810 0
	mov	w3, w22
	add	x2, x27, :lo12:.LC26
	mov	w1, w24
	mov	x0, x20
	bl	spl_fit_get_image_node
.LVL209:
	mov	w28, w0
.LVL210:
	.loc 1 811 0
	tbnz	w0, #31, .L101
.LVL211:
.LBB92:
.LBB93:
	.loc 1 432 0
	mov	w1, w0
	add	x2, x29, 171
.LVL212:
	mov	x0, x20
.LVL213:
	bl	fit_image_get_os
.LVL214:
.LBE93:
.LBE92:
	.loc 1 818 0
	ldr	w0, [x19, 68]
	cmp	w0, 2
	bne	.L102
	ldrb	w0, [x29, 171]
	cmp	w0, 17
	beq	.L110
.L102:
	.loc 1 822 0
	ldrsw	x3, [x29, 172]
	add	x5, x29, 296
	mov	w4, w28
	mov	x2, x20
	mov	x1, x23
	mov	x0, x21
	bl	spl_load_fit_image
.LVL215:
	.loc 1 824 0
	tbnz	w0, #31, .L110
	.loc 1 827 0
	ldrb	w0, [x29, 171]
.LVL216:
	cmp	w0, 17
	bne	.L104
	.loc 1 828 0
	ldrsw	x5, [x29, 172]
	mov	w4, w24
	mov	x3, x20
	mov	x2, x23
	mov	x1, x21
	add	x0, x29, 296
	bl	spl_fit_append_fdt
.LVL217:
	.loc 1 830 0
	tbnz	w0, #31, .L81
	.loc 1 832 0
	ldr	x0, [x29, 352]
.LVL218:
	str	x0, [x19, 56]
.L104:
	.loc 1 839 0
	ldr	x0, [x19, 24]
	cmn	x0, #1
	bne	.L106
	.loc 1 840 0
	ldr	x0, [x29, 320]
	.loc 1 839 0
	cmn	x0, #1
	beq	.L106
	.loc 1 841 0
	str	x0, [x19, 24]
.L106:
	.loc 1 844 0
	ldr	x28, [x19, 56]
.LVL219:
	cbz	x28, .L110
.LVL220:
.LBB94:
.LBB91:
	.loc 1 412 0
	ldr	x1, [x29, 152]
	add	x3, x29, 208
	mov	w2, w22
	mov	x0, x20
	bl	spl_fit_get_image_name.isra.0
.LVL221:
	.loc 1 414 0
	tbnz	w0, #31, .L110
	.loc 1 417 0
	ldr	x2, [x29, 152]
	mov	w3, w22
	mov	w1, w24
	mov	x0, x20
.LVL222:
	bl	spl_fit_get_image_node
.LVL223:
	mov	w7, w0
.LVL224:
	.loc 1 419 0
	ldp	x10, x5, [x29, 312]
	.loc 1 421 0
	mov	w1, w0
	.loc 1 419 0
	ldr	w4, [x29, 368]
	.loc 1 421 0
	mov	x3, 0
	.loc 1 419 0
	ldr	x8, [x29, 208]
	.loc 1 421 0
	adrp	x2, .LC27
	stp	w4, w7, [x29, 120]
	add	x2, x2, :lo12:.LC27
	.loc 1 419 0
	stp	x8, x10, [x29, 96]
	.loc 1 421 0
	mov	x0, x20
.LVL225:
	.loc 1 419 0
	str	x5, [x29, 112]
	.loc 1 421 0
	bl	fdt_getprop
.LVL226:
	mov	x6, x0
	.loc 1 422 0
	ldr	w7, [x29, 124]
	mov	x3, 0
	.loc 1 421 0
	str	x6, [x29, 144]
	.loc 1 422 0
	adrp	x2, .LC28
	mov	w1, w7
	add	x2, x2, :lo12:.LC28
	mov	x0, x20
	bl	fdt_getprop
.LVL227:
	.loc 1 419 0
	mov	x7, x0
	ldp	x8, x10, [x29, 96]
	mov	w1, w22
	ldr	w4, [x29, 120]
	mov	x0, x28
	ldr	x5, [x29, 112]
	mov	x3, x10
	ldr	x6, [x29, 144]
	mov	x2, x8
	bl	fdt_record_loadable
.LVL228:
.L110:
.LBE91:
.LBE94:
.LBE95:
	.loc 1 807 0
	add	w22, w22, 1
.LVL229:
	b	.L98
.LVL230:
.L97:
	.loc 1 772 0
	tbnz	w28, #31, .L81
	mov	w22, 1
.LVL231:
.L96:
	.loc 1 779 0
	ldrsw	x3, [x29, 172]
	mov	x5, x19
	mov	w4, w28
	mov	x2, x20
	mov	x1, x23
	mov	x0, x21
	bl	spl_load_fit_image
.LVL232:
	.loc 1 781 0
	cbnz	w0, .L81
.LVL233:
.LBB96:
.LBB97:
	.loc 1 432 0
	add	x2, x19, 8
.LVL234:
	mov	w1, w28
	mov	x0, x20
.LVL235:
	bl	fit_image_get_os
.LVL236:
.LBE97:
.LBE96:
	.loc 1 788 0
	cbz	w0, .L99
	.loc 1 792 0
	mov	w0, 17
	strb	w0, [x19, 8]
.L99:
	.loc 1 796 0
	ldrb	w0, [x19, 8]
	cmp	w0, 17
	bne	.L98
	.loc 1 797 0
	ldrsw	x5, [x29, 172]
	mov	w4, w24
	mov	x3, x20
	mov	x2, x23
	mov	x1, x21
	mov	x0, x19
	bl	spl_fit_append_fdt
.LVL237:
	.loc 1 799 0
	tbz	w0, #31, .L98
	b	.L81
.LVL238:
.L129:
	.loc 1 735 0
	mov	w22, 0
	b	.L96
.LVL239:
.L101:
	.loc 1 855 0
	ldr	x0, [x19, 24]
.LVL240:
	sub	x0, x0, #1
	cmn	x0, #3
	bls	.L109
	.loc 1 856 0
	ldr	x0, [x19, 16]
	str	x0, [x19, 24]
.L109:
.LVL241:
.LBE99:
.LBE101:
.LBB102:
.LBB103:
	.loc 1 500 0
	mov	x0, sp
	.loc 1 510 0
	adrp	x23, .LC32
.LVL242:
	.loc 1 500 0
	str	x0, [x29, 152]
	.loc 1 510 0
	add	x0, x23, :lo12:.LC32
	str	x0, [x29, 192]
	adrp	x0, .LC33
	add	x0, x0, :lo12:.LC33
	str	x0, [x29, 200]
.LVL243:
	.loc 1 512 0
	ldrsw	x0, [x21, 16]
.LVL244:
	.loc 1 510 0
	adrp	x20, .LC10
	add	x20, x20, :lo12:.LC10
	str	x20, [x29, 184]
	.loc 1 512 0
	add	x0, x0, 15
.LVL245:
	and	x0, x0, -16
.LVL246:
	sub	sp, sp, x0
.LVL247:
	.loc 1 519 0
	ldr	w0, [x19, 68]
	cmp	w0, 2
	bne	.L127
.LVL248:
	.loc 1 526 0
	mov	x1, x21
	mov	x0, x19
	bl	spl_kernel_partition
.LVL249:
	.loc 1 527 0
	mov	x1, x0
	ldr	x0, [x21]
.LVL250:
	add	x2, x29, 296
	bl	part_get_info_by_name
.LVL251:
	cmp	w0, 0
	bgt	.L111
	.loc 1 528 0
	adrp	x1, .LANCHOR0
	adrp	x0, .LC29
	add	x1, x1, :lo12:.LANCHOR0
	add	x0, x0, :lo12:.LC29
.LVL252:
.L168:
	.loc 1 541 0
	bl	printf
.LVL253:
.L169:
	.loc 1 542 0
	mov	w27, -22
.LVL254:
.L112:
	ldr	x0, [x29, 152]
	mov	sp, x0
.LVL255:
.LBE103:
.LBE102:
	.loc 1 904 0
	cbz	w27, .L79
.LVL256:
.L126:
	.loc 1 905 0
	ldr	w0, [x19, 68]
	cmp	w0, 2
	bne	.L165
	.loc 1 906 0
	mov	x3, 0
	mov	w2, 0
	mov	w1, 0
	mov	x0, 0
	bl	do_reset
.LVL257:
.L172:
	.loc 1 908 0
	mov	w27, w0
.L79:
	.loc 1 912 0
	add	sp, x29, 0
	mov	w0, w27
	ldp	x19, x20, [sp, 16]
.LVL258:
	ldp	x21, x22, [sp, 32]
.LVL259:
	ldp	x23, x24, [sp, 48]
	ldp	x25, x26, [sp, 64]
	ldp	x27, x28, [sp, 80]
	ldp	x29, x30, [sp], 432
	.cfi_remember_state
	.cfi_restore 30
	.cfi_restore 29
	.cfi_restore 27
	.cfi_restore 28
	.cfi_restore 25
	.cfi_restore 26
	.cfi_restore 23
	.cfi_restore 24
	.cfi_restore 21
	.cfi_restore 22
	.cfi_restore 19
	.cfi_restore 20
	.cfi_def_cfa 31, 0
	ret
.LVL260:
.L111:
	.cfi_restore_state
.LBB107:
.LBB106:
	.loc 1 535 0
	ldr	x4, [x21, 32]
	mov	x3, sp
	ldrsw	x25, [x29, 296]
.LVL261:
	mov	x2, 1
	mov	x0, x21
	mov	x1, x25
	blr	x4
.LVL262:
	cmp	x0, 1
	bne	.L130
.LVL263:
	ldr	w1, [sp]
	.loc 1 540 0
	mov	w0, 3536
	movk	w0, 0xedfe, lsl 16
	cmp	w1, w0
	beq	.L113
	.loc 1 541 0
	adrp	x1, .LANCHOR0
	adrp	x0, .LC30
	add	x1, x1, :lo12:.LANCHOR0
	add	x0, x0, :lo12:.LC30
	b	.L168
.L113:
	.loc 1 545 0
	add	x3, x29, 180
	mov	x2, sp
	mov	x1, x25
	mov	x0, x21
	bl	spl_fit_load_blob
.LVL264:
	mov	x22, x0
.LVL265:
	.loc 1 546 0
	cbz	x0, .L131
	.loc 1 555 0
	mov	x1, 0
	bl	fit_conf_get_node
.LVL266:
	.loc 1 556 0
	cmp	w0, 0
	bgt	.L114
	.loc 1 557 0
	adrp	x0, .LC17
.LVL267:
	add	x0, x0, :lo12:.LC17
	bl	printf
.LVL268:
	b	.L169
.LVL269:
.L114:
	.loc 1 561 0
	mov	w1, w0
	mov	x0, x22
.LVL270:
	bl	fit_config_verify
.LVL271:
	mov	w27, w0
.LVL272:
	.loc 1 562 0
	cbz	w0, .L115
	.loc 1 563 0
	mov	w1, w0
	adrp	x0, .LC18
.LVL273:
	add	x0, x0, :lo12:.LC18
	bl	printf
.LVL274:
	b	.L112
.LVL275:
.L115:
	.loc 1 566 0
	ldr	x0, [x29, 128]
.LVL276:
	add	x0, x0, :lo12:.LC19
	bl	printf
.LVL277:
	.loc 1 568 0
	ldr	x0, [x29, 136]
	add	x1, x0, :lo12:.LC16
	mov	x0, x22
	bl	fdt_path_offset
.LVL278:
	mov	w27, w0
.LVL279:
	.loc 1 569 0
	tbnz	w0, #31, .L112
.LBB104:
	.loc 1 597 0
	adrp	x26, .LC31
.LVL280:
	add	x26, x26, :lo12:.LC31
.LBE104:
	.loc 1 569 0
	mov	x24, 0
.LVL281:
.L121:
	.loc 1 576 0
	add	x0, x29, 184
	mov	w3, 0
	mov	w1, w27
	ldr	x28, [x0, x24]
	mov	x0, x22
	mov	x2, x28
	bl	spl_fit_get_image_node
.LVL282:
	.loc 1 581 0
	tbnz	w0, #31, .L117
	.loc 1 586 0
	ldrsw	x3, [x29, 180]
	mov	w4, w0
	add	x5, x29, 208
	mov	x2, x22
	mov	x1, x25
	mov	x0, x21
.LVL283:
	bl	spl_load_fit_image
.LVL284:
	.loc 1 588 0
	cbnz	w0, .L132
	.loc 1 592 0
	mov	x1, x20
	mov	x0, x28
.LVL285:
	bl	strcmp
.LVL286:
	cbnz	w0, .L118
.LBB105:
	.loc 1 593 0
	ldr	x0, [x29, 224]
	.loc 1 597 0
	add	x2, x29, 176
	.loc 1 593 0
	str	x0, [x19, 56]
	.loc 1 597 0
	mov	x1, x26
	ldr	x0, [x21]
	.loc 1 595 0
	strh	wzr, [x29, 176]
	strb	wzr, [x29, 178]
	.loc 1 597 0
	bl	spl_get_current_slot
.LVL287:
	cbnz	w0, .L117
	.loc 1 598 0
	ldr	x0, [x29, 224]
	add	x1, x29, 176
	bl	fdt_bootargs_append_ab
.LVL288:
.L117:
	add	x24, x24, 8
.LBE105:
	.loc 1 575 0
	cmp	x24, 24
	bne	.L121
.LVL289:
.L127:
	.loc 1 629 0
	mov	w27, 0
	b	.L112
.LVL290:
.L118:
	.loc 1 609 0
	add	x1, x23, :lo12:.LC32
	mov	x0, x28
	bl	strcmp
.LVL291:
	cbnz	w0, .L117
	.loc 1 614 0
	ldr	x0, [x29, 224]
	str	x0, [x19, 40]
	b	.L117
.LVL292:
.L130:
	.loc 1 537 0
	mov	w27, -5
	b	.L112
.LVL293:
.L131:
	.loc 1 548 0
	mov	w27, -19
	b	.L112
.LVL294:
.L132:
	.loc 1 586 0
	mov	w27, w0
.LVL295:
	b	.L112
.LVL296:
.L165:
.LBE106:
.LBE107:
	.loc 1 908 0
	ldr	x0, [x21]
	bl	spl_ab_decrease_reset
.LVL297:
	b	.L172
	.cfi_endproc
.LFE231:
	.size	spl_load_simple_fit, .-spl_load_simple_fit
	.section	.rodata.__func__.7295,"a",@progbits
	.align	3
	.set	.LANCHOR0,. + 0
	.type	__func__.7295, %object
	.size	__func__.7295, 20
__func__.7295:
	.string	"spl_load_kernel_fit"
	.section	.rodata.spl_fit_append_fdt.str1.1,"aMS",@progbits,1
.LC10:
	.string	"fdt"
	.section	.rodata.spl_fit_get_image_name.isra.0.str1.1,"aMS",@progbits,1
.LC0:
	.string	"No matching DT out of these options:\n"
.LC1:
	.string	"description"
.LC2:
	.string	"   %s\n"
	.section	.rodata.spl_kernel_partition.str1.1,"aMS",@progbits,1
.LC12:
	.string	"boot"
	.section	.rodata.spl_load_fit_image.str1.1,"aMS",@progbits,1
.LC3:
	.string	"## Preload the image OK.\n"
.LC4:
	.string	"Cannot get image data/size\n"
.LC5:
	.string	"compression"
.LC6:
	.string	"## Checking %s 0x%08lx (%s @0x%08lx) ... "
.LC7:
	.string	"## Checking %s 0x%08lx ... "
.LC8:
	.string	"OK\n"
.LC9:
	.string	"entry"
	.section	.rodata.spl_load_meta.str1.1,"aMS",@progbits,1
.LC11:
	.string	"No load cfg image.\n"
	.section	.rodata.spl_load_simple_fit.str1.1,"aMS",@progbits,1
.LC13:
	.string	"Trying fit image at 0x%lx sector\n"
.LC14:
	.string	"IO error\n"
.LC15:
	.string	"Not fit magic\n"
.LC16:
	.string	"/images"
.LC17:
	.string	"No default config node\n"
.LC18:
	.string	"fit verify configure failed, ret=%d\n"
.LC19:
	.string	"\n"
.LC20:
	.string	"fit failed to get rollback index, ret=%d\n"
.LC21:
	.string	"fit reject rollback: %d < %d(min)\n"
.LC22:
	.string	"rollback index: %d >= %d(min), OK\n"
.LC23:
	.string	"standalone"
.LC24:
	.string	"%s: start standalone fail, ret=%d\n"
.LC25:
	.string	"firmware"
.LC26:
	.string	"loadables"
.LC27:
	.string	"type"
.LC28:
	.string	"os"
.LC29:
	.string	"%s: no partition\n"
.LC30:
	.string	"%s: Not fit magic\n"
.LC31:
	.string	"misc"
.LC32:
	.string	"kernel"
.LC33:
	.string	"ramdisk"
	.text
.Letext0:
	.file 3 "include/common.h"
	.file 4 "./arch/arm/include/asm/types.h"
	.file 5 "./arch/arm/include/asm/posix_types.h"
	.file 6 "include/linux/types.h"
	.file 7 "include/errno.h"
	.file 8 "include/linux/string.h"
	.file 9 "include/efi.h"
	.file 10 "include/blk.h"
	.file 11 "include/ide.h"
	.file 12 "include/part.h"
	.file 13 "include/flash.h"
	.file 14 "include/lmb.h"
	.file 15 "include/asm-generic/u-boot.h"
	.file 16 "./arch/arm/include/asm/u-boot-arm.h"
	.file 17 "include/linux/libfdt_env.h"
	.file 18 "include/linux/../../scripts/dtc/libfdt/fdt.h"
	.file 19 "include/linux/libfdt.h"
	.file 20 "include/u-boot/sha1.h"
	.file 21 "include/u-boot/sha256.h"
	.file 22 "include/net.h"
	.file 23 "include/malloc.h"
	.file 24 "./arch/arm/include/asm/spl.h"
	.file 25 "include/spl.h"
	.file 26 "./arch/arm/include/asm/arch/rk_atags.h"
	.file 27 "include/linux/byteorder/swab.h"
	.file 28 "include/linux/../../scripts/dtc/libfdt/libfdt.h"
	.file 29 "include/fdt_support.h"
	.file 30 "include/stdio.h"
	.file 31 "include/command.h"
	.section	.note.GNU-stack,"",@progbits
