/*
 * (C) Copyright 2020 Rockchip Electronics Co., Ltd
 *
 * SPDX-License-Identifier:     GPL-2.0+
 */

	.arch armv8-a+nosimd
	.file	"pvi_waveform.c"
	.text
.Ltext0:
	.cfi_sections	.debug_frame
	.section	.text.get_wf_mode_index,"ax",@progbits
	.align	2
	.type	get_wf_mode_index, %function
get_wf_mode_index:
.LFB215:
	.file 1 "drivers/video/rk_eink/epdlut/pvi_waveform.c"
	.loc 1 274 0
	.cfi_startproc
.LVL0:
	stp	x29, x30, [sp, -32]!
	.cfi_def_cfa_offset 32
	.cfi_offset 29, -32
	.cfi_offset 30, -24
	add	x29, sp, 0
	.cfi_def_cfa_register 29
	stp	x19, x20, [sp, 16]
	.cfi_offset 19, -16
	.cfi_offset 20, -8
	.loc 1 274 0
	mov	w20, w0
	.loc 1 275 0
	adrp	x0, .LANCHOR0
.LVL1:
	adrp	x19, .LANCHOR1
	ldr	x2, [x0, #:lo12:.LANCHOR0]
.LVL2:
.LBB42:
.LBB43:
	.loc 1 164 0
	ldrb	w1, [x2, 16]
	cmp	w1, 25
	beq	.L3
	bhi	.L4
	cmp	w1, 18
	beq	.L5
	bhi	.L6
	cmp	w1, 9
	beq	.L7
.L2:
	.loc 1 256 0
	add	x0, x19, :lo12:.LANCHOR1
	.loc 1 257 0
	mov	w3, 1
	.loc 1 262 0
	mov	w4, 5
	.loc 1 256 0
	str	wzr, [x19, #:lo12:.LANCHOR1]
	.loc 1 258 0
	stp	w3, w3, [x0, 4]
	.loc 1 259 0
	mov	w3, 2
	str	w3, [x0, 12]
	.loc 1 260 0
	mov	w3, 3
	.loc 1 262 0
	str	w4, [x0, 24]
	.loc 1 263 0
	mov	w4, 6
	.loc 1 260 0
	str	w3, [x0, 16]
	.loc 1 261 0
	mov	w3, 4
	.loc 1 263 0
	str	w4, [x0, 28]
	.loc 1 261 0
	str	w3, [x0, 20]
	.loc 1 264 0
	str	w3, [x0, 32]
	.loc 1 265 0
	adrp	x0, .LC0
	add	x0, x0, :lo12:.LC0
	ldrb	w2, [x2, 22]
.LVL3:
	bl	printf
.LVL4:
	b	.L14
.LVL5:
.L6:
	.loc 1 164 0
	cmp	w1, 22
	beq	.L8
	cmp	w1, 24
	bne	.L2
.L9:
	.loc 1 200 0
	add	x0, x19, :lo12:.LANCHOR1
	.loc 1 201 0
	mov	w1, 1
	.loc 1 200 0
	str	wzr, [x19, #:lo12:.LANCHOR1]
	.loc 1 201 0
	str	w1, [x0, 4]
.L46:
	.loc 1 225 0
	str	w1, [x0, 8]
	.loc 1 226 0
	mov	w1, 2
	.loc 1 229 0
	mov	w2, 5
.LVL6:
	.loc 1 226 0
	str	w1, [x0, 12]
	.loc 1 227 0
	mov	w1, 3
	.loc 1 229 0
	str	w2, [x0, 24]
	.loc 1 227 0
	str	w1, [x0, 16]
	.loc 1 230 0
	mov	w2, 6
	.loc 1 228 0
	mov	w1, 4
	str	w1, [x0, 20]
	b	.L44
.LVL7:
.L4:
	.loc 1 164 0
	cmp	w1, 67
	beq	.L3
	bhi	.L10
	cmp	w1, 32
	beq	.L9
	cmp	w1, 35
	bne	.L2
	.loc 1 245 0
	add	x0, x19, :lo12:.LANCHOR1
	.loc 1 246 0
	mov	w1, 1
	.loc 1 245 0
	str	wzr, [x19, #:lo12:.LANCHOR1]
	.loc 1 246 0
	str	w1, [x0, 4]
	.loc 1 247 0
	mov	w1, 5
	str	w1, [x0, 8]
	.loc 1 248 0
	mov	w1, 2
	str	w1, [x0, 12]
	.loc 1 249 0
	mov	w1, 3
	.loc 1 250 0
	stp	w1, w1, [x0, 16]
	.loc 1 251 0
	str	w1, [x0, 24]
	b	.L43
.L10:
	.loc 1 164 0
	cmp	w1, 72
	beq	.L12
	cmp	w1, 84
	bne	.L2
	.loc 1 211 0
	add	x0, x19, :lo12:.LANCHOR1
	.loc 1 212 0
	mov	w1, 1
	.loc 1 211 0
	str	wzr, [x19, #:lo12:.LANCHOR1]
	.loc 1 218 0
	mov	w2, 5
.LVL8:
	.loc 1 213 0
	stp	w1, w1, [x0, 4]
	.loc 1 214 0
	mov	w1, 2
	str	w1, [x0, 12]
	.loc 1 215 0
	mov	w1, 3
	str	w1, [x0, 16]
	.loc 1 216 0
	mov	w1, 4
	.loc 1 217 0
	stp	w1, w1, [x0, 20]
.L44:
	.loc 1 253 0
	stp	w2, w1, [x0, 28]
	b	.L14
.LVL9:
.L12:
	.loc 1 166 0
	add	x0, x19, :lo12:.LANCHOR1
	.loc 1 167 0
	mov	w1, 1
	.loc 1 166 0
	str	wzr, [x19, #:lo12:.LANCHOR1]
	.loc 1 168 0
	stp	w1, w1, [x0, 4]
	.loc 1 169 0
	mov	w1, 2
	str	w1, [x0, 12]
	.loc 1 170 0
	mov	w1, 3
	str	w1, [x0, 16]
	.loc 1 171 0
	mov	w1, 4
	.loc 1 172 0
	stp	w1, w1, [x0, 20]
.L45:
	.loc 1 195 0
	str	w1, [x0, 32]
	.loc 1 196 0
	mov	w1, 6
	b	.L42
.L7:
	.loc 1 177 0
	add	x0, x19, :lo12:.LANCHOR1
	.loc 1 178 0
	mov	w1, 1
	.loc 1 177 0
	str	wzr, [x19, #:lo12:.LANCHOR1]
	.loc 1 179 0
	stp	w1, w1, [x0, 4]
	.loc 1 180 0
	mov	w1, 2
	str	w1, [x0, 12]
	.loc 1 181 0
	mov	w1, 3
	.loc 1 182 0
	stp	w1, w1, [x0, 16]
	.loc 1 183 0
	str	w1, [x0, 24]
	.loc 1 184 0
	str	w1, [x0, 32]
	.loc 1 185 0
	mov	w1, 4
.L42:
	str	w1, [x0, 28]
.LVL10:
.L14:
.LBE43:
.LBE42:
	.loc 1 281 0
	cmp	w20, 5
	beq	.L28
	.loc 1 284 0
	cmp	w20, 2
	beq	.L28
	.loc 1 287 0
	sub	w20, w20, #1
.LVL11:
	cmp	w20, 9
	bhi	.L16
	adrp	x0, .L18
	add	x0, x0, :lo12:.L18
	ldrb	w0, [x0,w20,uxtw]
	adr	x1, .Lrtx18
	add	x0, x1, w0, sxtb #2
	br	x0
.Lrtx18:
	.section	.rodata.get_wf_mode_index,"a",@progbits
	.align	0
	.align	2
.L18:
	.byte	(.L17 - .Lrtx18) / 4
	.byte	(.L16 - .Lrtx18) / 4
	.byte	(.L19 - .Lrtx18) / 4
	.byte	(.L20 - .Lrtx18) / 4
	.byte	(.L16 - .Lrtx18) / 4
	.byte	(.L21 - .Lrtx18) / 4
	.byte	(.L28 - .Lrtx18) / 4
	.byte	(.L22 - .Lrtx18) / 4
	.byte	(.L23 - .Lrtx18) / 4
	.byte	(.L24 - .Lrtx18) / 4
	.section	.text.get_wf_mode_index
.LVL12:
.L8:
.LBB45:
.LBB44:
	.loc 1 188 0
	add	x0, x19, :lo12:.LANCHOR1
	.loc 1 189 0
	mov	w1, 1
	.loc 1 188 0
	str	wzr, [x19, #:lo12:.LANCHOR1]
	.loc 1 190 0
	stp	w1, w1, [x0, 4]
	.loc 1 191 0
	mov	w1, 2
	str	w1, [x0, 12]
	.loc 1 192 0
	mov	w1, 3
	str	w1, [x0, 16]
	.loc 1 193 0
	mov	w1, 4
	.loc 1 194 0
	stp	w1, w1, [x0, 20]
	.loc 1 195 0
	mov	w1, 5
	b	.L45
.L3:
	.loc 1 223 0
	add	x0, x19, :lo12:.LANCHOR1
	.loc 1 224 0
	mov	w1, 1
	.loc 1 223 0
	str	wzr, [x19, #:lo12:.LANCHOR1]
	.loc 1 224 0
	str	w1, [x0, 4]
	.loc 1 225 0
	mov	w1, 7
	b	.L46
.L5:
	.loc 1 234 0
	add	x0, x19, :lo12:.LANCHOR1
	.loc 1 235 0
	mov	w1, 1
	.loc 1 240 0
	mov	w2, 6
.LVL13:
	.loc 1 234 0
	str	wzr, [x19, #:lo12:.LANCHOR1]
	.loc 1 235 0
	str	w1, [x0, 4]
	.loc 1 236 0
	mov	w1, 7
	str	w1, [x0, 8]
	.loc 1 237 0
	mov	w1, 3
	.loc 1 240 0
	str	w2, [x0, 24]
	.loc 1 238 0
	stp	w1, w1, [x0, 12]
	.loc 1 239 0
	mov	w1, 5
	str	w1, [x0, 20]
.L43:
	.loc 1 252 0
	mov	w2, 4
	b	.L44
.LVL14:
.L17:
.LBE44:
.LBE45:
	.loc 1 292 0
	mov	w0, 0
.LVL15:
.L15:
	.loc 1 317 0
	add	x19, x19, :lo12:.LANCHOR1
	ldr	w0, [x19, w0, sxtw 2]
.LVL16:
	b	.L1
.LVL17:
.L22:
	.loc 1 298 0
	mov	w0, 4
	.loc 1 299 0
	b	.L15
.LVL18:
.L23:
	.loc 1 301 0
	mov	w0, 5
	.loc 1 302 0
	b	.L15
.LVL19:
.L24:
	.loc 1 304 0
	mov	w0, 6
	.loc 1 305 0
	b	.L15
.LVL20:
.L19:
	.loc 1 307 0
	mov	w0, 2
	.loc 1 308 0
	b	.L15
.LVL21:
.L20:
	.loc 1 310 0
	mov	w0, 1
	.loc 1 311 0
	b	.L15
.LVL22:
.L16:
	.loc 1 313 0
	adrp	x0, .LC1
	add	x0, x0, :lo12:.LC1
	bl	printf
.LVL23:
	.loc 1 314 0
	mov	w0, -1
.L1:
	.loc 1 318 0
	ldp	x19, x20, [sp, 16]
	ldp	x29, x30, [sp], 32
	.cfi_remember_state
	.cfi_restore 30
	.cfi_restore 29
	.cfi_restore 19
	.cfi_restore 20
	.cfi_def_cfa 31, 0
	ret
.LVL24:
.L21:
	.cfi_restore_state
	.loc 1 289 0
	mov	w0, 7
	b	.L15
.LVL25:
.L28:
	.loc 1 295 0
	mov	w0, 3
	b	.L15
	.cfi_endproc
.LFE215:
	.size	get_wf_mode_index, .-get_wf_mode_index
	.section	.text.get_lut_gray16_data,"ax",@progbits
	.align	2
	.type	get_lut_gray16_data, %function
get_lut_gray16_data:
.LFB224:
	.loc 1 542 0
	.cfi_startproc
.LVL26:
	stp	x29, x30, [sp, -48]!
	.cfi_def_cfa_offset 48
	.cfi_offset 29, -48
	.cfi_offset 30, -40
	.loc 1 548 0
	mov	x2, 19200
	.loc 1 542 0
	add	x29, sp, 0
	.cfi_def_cfa_register 29
	stp	x19, x20, [sp, 16]
	.cfi_offset 19, -32
	.cfi_offset 20, -24
	.loc 1 548 0
	adrp	x19, gray_data
	.loc 1 542 0
	stp	x21, x22, [sp, 32]
	.cfi_offset 21, -16
	.cfi_offset 22, -8
	.loc 1 548 0
	add	x21, x19, :lo12:gray_data
	.loc 1 542 0
	mov	x22, x0
	mov	w20, w1
	.loc 1 548 0
	mov	x0, x21
.LVL27:
	mov	w1, 0
.LVL28:
	bl	memset
.LVL29:
	adrp	x0, waveformdata
	add	x0, x0, :lo12:waveformdata
	mov	x4, 0
.LVL30:
.L48:
	lsl	w8, w4, 1
	.loc 1 542 0
	mov	x3, 0
	b	.L53
.LVL31:
.L49:
.LBB46:
.LBB47:
	.loc 1 157 0
	lsl	x2, x5, 10
	add	x7, x21, x5, lsl 6
	add	x5, x5, 1
.LVL32:
.LBE47:
.LBE46:
	.loc 1 553 0
	ldrb	w2, [x1, x2]
	lsl	w6, w2, w8
	ldr	w2, [x7, x3]
	orr	w2, w2, w6
	str	w2, [x7, x3]
.L51:
.LVL33:
	.loc 1 551 0 discriminator 1
	cmp	w20, w5
	bgt	.L49
	add	x3, x3, 4
	.loc 1 550 0 discriminator 2
	cmp	x3, 64
	beq	.L50
.LVL34:
.L53:
	add	x1, x4, x3, lsl 3
	.loc 1 542 0
	mov	x5, 0
	add	x1, x1, x0
	b	.L51
.LVL35:
.L50:
	add	x4, x4, 1
.LVL36:
	.loc 1 549 0 discriminator 2
	cmp	x4, 16
	bne	.L48
	.loc 1 558 0
	lsl	w2, w20, 6
	add	x1, x19, :lo12:gray_data
	mov	x0, x22
	sxtw	x2, w2
	.loc 1 559 0
	ldp	x19, x20, [sp, 16]
.LVL37:
	ldp	x21, x22, [sp, 32]
.LVL38:
	ldp	x29, x30, [sp], 48
	.cfi_restore 30
	.cfi_restore 29
	.cfi_restore 21
	.cfi_restore 22
	.cfi_restore 19
	.cfi_restore 20
	.cfi_def_cfa 31, 0
	.loc 1 558 0
	b	memcpy
.LVL39:
	.cfi_endproc
.LFE224:
	.size	get_lut_gray16_data, .-get_lut_gray16_data
	.section	.text.get_lut_gray2_data,"ax",@progbits
	.align	2
	.type	get_lut_gray2_data, %function
get_lut_gray2_data:
.LFB222:
	.loc 1 497 0
	.cfi_startproc
.LVL40:
	stp	x29, x30, [sp, -48]!
	.cfi_def_cfa_offset 48
	.cfi_offset 29, -48
	.cfi_offset 30, -40
	.loc 1 502 0
	mov	x2, 2400
	.loc 1 497 0
	add	x29, sp, 0
	.cfi_def_cfa_register 29
	stp	x19, x20, [sp, 16]
	.cfi_offset 19, -32
	.cfi_offset 20, -24
	.loc 1 502 0
	adrp	x20, .LANCHOR2
	add	x19, x20, :lo12:.LANCHOR2
	.loc 1 497 0
	stp	x21, x22, [sp, 32]
	.cfi_offset 21, -16
	.cfi_offset 22, -8
	.loc 1 497 0
	mov	x22, x0
	mov	w21, w1
	.loc 1 502 0
	mov	x0, x19
.LVL41:
	mov	w1, 0
.LVL42:
	bl	memset
.LVL43:
	adrp	x3, waveformdata+15
	add	x0, x19, 4
	add	x3, x3, :lo12:waveformdata+15
	.loc 1 503 0
	mov	w2, 0
.LVL44:
.L56:
	.loc 1 503 0 is_stmt 0 discriminator 1
	cmp	w2, w21
	bge	.L57
	ldr	w1, [x0, -4]
.LBB48:
.LBB49:
.LBB50:
	.loc 1 157 0 is_stmt 1
	sub	x7, x3, #15
.LBE50:
.LBE49:
.LBE48:
	.loc 1 503 0
	mov	x4, 0
.L58:
.LVL45:
.LBB53:
.LBB52:
.LBB51:
	.loc 1 157 0
	lsl	x5, x4, 5
.LBE51:
.LBE52:
	.loc 1 508 0
	lsl	w6, w4, 1
	add	x4, x4, 1
.LVL46:
.LBE53:
	.loc 1 505 0
	cmp	x4, 16
.LBB54:
	.loc 1 508 0
	ldrb	w5, [x7, x5]
	lsl	w5, w5, w6
	orr	w1, w1, w5
.LBE54:
	.loc 1 505 0
	bne	.L58
	ldr	w4, [x0]
	mov	x6, x3
	str	w1, [x0, -4]
	mov	w1, 0
.L59:
.LBB55:
	.loc 1 508 0
	ldrb	w5, [x6], 32
	lsl	w5, w5, w1
	add	w1, w1, 2
	orr	w4, w4, w5
.LBE55:
	.loc 1 505 0
	cmp	w1, 32
	bne	.L59
	str	w4, [x0], 8
.LVL47:
	.loc 1 503 0 discriminator 1
	add	w2, w2, 1
.LVL48:
	add	x3, x3, 1024
	b	.L56
.LVL49:
.L57:
	.loc 1 513 0
	lsl	w2, w21, 3
.LVL50:
	add	x1, x20, :lo12:.LANCHOR2
	mov	x0, x22
	sxtw	x2, w2
	.loc 1 514 0
	ldp	x19, x20, [sp, 16]
	ldp	x21, x22, [sp, 32]
.LVL51:
	ldp	x29, x30, [sp], 48
	.cfi_restore 30
	.cfi_restore 29
	.cfi_restore 21
	.cfi_restore 22
	.cfi_restore 19
	.cfi_restore 20
	.cfi_def_cfa 31, 0
	.loc 1 513 0
	b	memcpy
.LVL52:
	.cfi_endproc
.LFE222:
	.size	get_lut_gray2_data, .-get_lut_gray2_data
	.section	.text.decodewaveform,"ax",@progbits
	.align	2
	.global	decodewaveform
	.type	decodewaveform, %function
decodewaveform:
.LFB212:
	.loc 1 50 0
	.cfi_startproc
.LVL53:
	.loc 1 58 0
	cmp	w1, 32
	ccmp	w1, 16, 4, ne
	beq	.L66
	.loc 1 58 0 is_stmt 0 discriminator 1
	cmp	w2, 32
	ccmp	w2, 16, 4, ne
	bne	.L82
.L66:
	.loc 1 50 0 is_stmt 1
	stp	x29, x30, [sp, -64]!
	.cfi_def_cfa_offset 64
	.cfi_offset 29, -64
	.cfi_offset 30, -56
	add	x29, sp, 0
	.cfi_def_cfa_register 29
	stp	x21, x22, [sp, 32]
	.cfi_offset 21, -32
	.cfi_offset 22, -24
	.loc 1 61 0
	adrp	x22, waveformdata
	.loc 1 50 0
	stp	x23, x24, [sp, 48]
	.cfi_offset 23, -16
	.cfi_offset 24, -8
	.loc 1 61 0
	add	x24, x22, :lo12:waveformdata
	.loc 1 50 0
	stp	x19, x20, [sp, 16]
	.cfi_offset 19, -48
	.cfi_offset 20, -40
	mov	w21, w1
	mov	w20, w2
	mov	x23, x0
	.loc 1 61 0
	mov	x2, 524288
.LVL54:
	mov	w1, 0
.LVL55:
	mov	x0, x24
.LVL56:
	bl	memset
.LVL57:
	.loc 1 118 0
	mov	x5, x24
	.loc 1 56 0
	mov	w10, 1
	.loc 1 53 0
	mov	w0, 0
	.loc 1 52 0
	mov	w19, 0
	.loc 1 51 0
	mov	w3, 0
	mov	w6, 0
.LVL58:
.L68:
	.loc 1 69 0
	ldrb	w1, [x23, w0, uxtw]
	cmp	w1, 255
	beq	.L69
	.loc 1 74 0
	cmp	w1, 252
	bne	.L70
	.loc 1 75 0
	eor	w10, w10, 1
.LVL59:
	.loc 1 76 0
	add	w0, w0, 1
.LVL60:
.L70:
	uxtw	x7, w3
	add	w2, w3, 1
	add	w12, w3, 3
	add	w1, w3, 2
	uxtw	x13, w0
	add	w11, w0, 1
	uxtw	x8, w6
	uxtw	x4, w19
	add	w3, w3, 4
	.loc 1 79 0
	cbz	w10, .L71
	.loc 1 82 0
	lsl	x4, x4, 5
	.loc 1 80 0
	ldrb	w16, [x23, x13]
.LVL61:
	.loc 1 82 0
	add	x7, x4, x7
	.loc 1 83 0
	add	x2, x4, x2, uxtw
	.loc 1 82 0
	add	x7, x5, x7, lsl 5
	.loc 1 83 0
	add	x2, x5, x2, lsl 5
	.loc 1 82 0
	and	w13, w16, 3
	.loc 1 83 0
	ubfx	x14, x16, 2, 2
	.loc 1 84 0
	ubfx	x15, x16, 4, 2
	.loc 1 89 0
	cmp	w3, w21
	.loc 1 82 0
	strb	w13, [x7, x8]
	.loc 1 83 0
	strb	w14, [x2, x8]
.LVL62:
	.loc 1 84 0
	add	x2, x4, x1, uxtw
	add	x2, x5, x2, lsl 5
	.loc 1 85 0
	add	x4, x4, x12, uxtw
	add	x4, x5, x4, lsl 5
	lsr	w1, w16, 6
	.loc 1 84 0
	strb	w15, [x2, x8]
.LVL63:
	.loc 1 85 0
	strb	w1, [x4, x8]
.LVL64:
	.loc 1 89 0
	bcc	.L72
.LVL65:
	.loc 1 91 0
	add	w6, w6, 1
.LVL66:
	cmp	w21, w6
	bhi	.L83
.LVL67:
	.loc 1 93 0
	add	w19, w19, 1
.LVL68:
	.loc 1 90 0
	mov	w3, 0
	.loc 1 92 0
	mov	w6, 0
.LVL69:
.L72:
	.loc 1 97 0
	ldrb	w4, [x23, w11, uxtw]
.LVL70:
.L73:
	.loc 1 98 0 discriminator 1
	cbnz	w4, .L75
	.loc 1 113 0
	add	w0, w0, 2
.LVL71:
	b	.L76
.LVL72:
.L85:
	.loc 1 126 0
	mov	w3, 0
.LVL73:
.L76:
	.loc 1 64 0
	cmp	w19, 511
	bls	.L68
	.loc 1 65 0
	adrp	x0, .LC2
.LVL74:
	add	x0, x0, :lo12:.LC2
	bl	printf
.LVL75:
.L69:
	.loc 1 135 0
	cmp	w21, 32
	ccmp	w20, 16, 0, eq
	bne	.L77
	add	x22, x22, :lo12:waveformdata
	mov	w0, 0
.L78:
.LVL76:
	.loc 1 137 0 discriminator 1
	cmp	w0, w19
	bcc	.L86
.LVL77:
.L77:
	.loc 1 152 0
	mov	w0, w19
	.loc 1 153 0
	ldp	x19, x20, [sp, 16]
.LVL78:
	ldp	x21, x22, [sp, 32]
.LVL79:
	ldp	x23, x24, [sp, 48]
.LVL80:
	ldp	x29, x30, [sp], 64
	.cfi_remember_state
	.cfi_restore 30
	.cfi_restore 29
	.cfi_restore 23
	.cfi_restore 24
	.cfi_restore 21
	.cfi_restore 22
	.cfi_restore 19
	.cfi_restore 20
	.cfi_def_cfa 31, 0
	ret
.LVL81:
.L83:
	.cfi_restore_state
	.loc 1 90 0
	mov	w3, 0
	b	.L72
.LVL82:
.L75:
	.loc 1 99 0
	ubfiz	x11, x19, 5, 32
	.loc 1 100 0
	add	w8, w3, 1
	.loc 1 99 0
	add	x7, x11, x3, uxtw
	uxtw	x2, w6
	add	x7, x5, x7, lsl 5
	.loc 1 100 0
	add	x8, x11, x8
	add	x8, x5, x8, lsl 5
	.loc 1 99 0
	strb	w13, [x7, x2]
	.loc 1 101 0
	add	w7, w3, 3
.LVL83:
	.loc 1 100 0
	strb	w14, [x8, x2]
	.loc 1 101 0
	add	w8, w3, 2
	add	x8, x11, x8
	.loc 1 102 0
	add	x7, x11, x7, uxtw
.LVL84:
	.loc 1 101 0
	add	x8, x5, x8, lsl 5
	.loc 1 102 0
	add	x7, x5, x7, lsl 5
	add	w3, w3, 4
.LVL85:
	.loc 1 104 0
	cmp	w21, w3
	.loc 1 101 0
	strb	w15, [x8, x2]
.LVL86:
	.loc 1 102 0
	strb	w1, [x7, x2]
	.loc 1 104 0
	bhi	.L74
.LVL87:
	.loc 1 106 0
	add	w6, w6, 1
.LVL88:
	cmp	w21, w6
	bhi	.L84
.LVL89:
	.loc 1 108 0
	add	w19, w19, 1
.LVL90:
	.loc 1 105 0
	mov	w3, 0
	.loc 1 107 0
	mov	w6, 0
.LVL91:
.L74:
	.loc 1 98 0
	sub	w4, w4, #1
.LVL92:
	and	w4, w4, 255
.LVL93:
	b	.L73
.LVL94:
.L84:
	.loc 1 105 0
	mov	w3, 0
	b	.L74
.LVL95:
.L71:
	.loc 1 118 0
	lsl	x4, x4, 5
	.loc 1 116 0
	ldrb	w0, [x23, x13]
.LVL96:
	.loc 1 118 0
	add	x7, x4, x7
	.loc 1 119 0
	add	x2, x4, x2, uxtw
	.loc 1 118 0
	add	x7, x5, x7, lsl 5
	.loc 1 119 0
	add	x2, x5, x2, lsl 5
	.loc 1 120 0
	add	x1, x4, x1, uxtw
	.loc 1 121 0
	add	x4, x4, x12, uxtw
	.loc 1 120 0
	add	x1, x5, x1, lsl 5
	.loc 1 118 0
	and	w13, w0, 3
	.loc 1 121 0
	add	x4, x5, x4, lsl 5
	.loc 1 118 0
	strb	w13, [x7, x8]
	.loc 1 119 0
	ubfx	x7, x0, 2, 2
	strb	w7, [x2, x8]
.LVL97:
	.loc 1 120 0
	ubfx	x2, x0, 4, 2
	strb	w2, [x1, x8]
.LVL98:
	.loc 1 121 0
	lsr	w0, w0, 6
.LVL99:
	strb	w0, [x4, x8]
	.loc 1 125 0
	cmp	w3, w21
	.loc 1 123 0
	mov	w0, w11
.LVL100:
	.loc 1 125 0
	bcc	.L76
.LVL101:
	.loc 1 127 0
	add	w6, w6, 1
.LVL102:
	cmp	w21, w6
	bhi	.L85
.LVL103:
	.loc 1 129 0
	add	w19, w19, 1
.LVL104:
	.loc 1 126 0
	mov	w3, 0
	.loc 1 128 0
	mov	w6, 0
	b	.L76
.LVL105:
.L86:
	.loc 1 145 0
	sbfiz	x5, x0, 5, 32
	mov	x2, 0
.L81:
.LVL106:
	and	x1, x2, 2147483647
	add	x4, x2, x0, uxtw 4
	add	x1, x5, x1
	add	x4, x22, x4, lsl 6
	add	x1, x22, x1, lsl 5
	mov	x3, 0
.LVL107:
.L79:
	.loc 1 144 0 discriminator 3
	lsl	x6, x3, 1
	ldrb	w7, [x4, x6]
.LVL108:
	.loc 1 145 0 discriminator 3
	and	x6, x3, 2147483647
	add	x3, x3, 1
.LVL109:
	.loc 1 139 0 discriminator 3
	cmp	x3, 16
	.loc 1 145 0 discriminator 3
	strb	w7, [x1, x6]
	.loc 1 139 0 discriminator 3
	bne	.L79
.LVL110:
	add	x2, x2, 1
.LVL111:
	.loc 1 138 0 discriminator 2
	cmp	x2, 16
	bne	.L81
	.loc 1 137 0 discriminator 2
	add	w0, w0, 1
.LVL112:
	and	w0, w0, 255
.LVL113:
	b	.L78
.LVL114:
.L82:
	.cfi_def_cfa 31, 0
	.cfi_restore 19
	.cfi_restore 20
	.cfi_restore 21
	.cfi_restore 22
	.cfi_restore 23
	.cfi_restore 24
	.cfi_restore 29
	.cfi_restore 30
	.loc 1 59 0
	mov	w0, -22
.LVL115:
	ret
	.cfi_endproc
.LFE212:
	.size	decodewaveform, .-decodewaveform
	.section	.text.get_wf_frm_num,"ax",@progbits
	.align	2
	.type	get_wf_frm_num, %function
get_wf_frm_num:
.LFB217:
	.loc 1 341 0
	.cfi_startproc
.LVL116:
	stp	x29, x30, [sp, -16]!
	.cfi_def_cfa_offset 16
	.cfi_offset 29, -16
	.cfi_offset 30, -8
	.loc 1 342 0
	adrp	x3, .LANCHOR0
	.loc 1 341 0
	add	x29, sp, 0
	.cfi_def_cfa_register 29
	.loc 1 342 0
	ldr	x4, [x3, #:lo12:.LANCHOR0]
.LVL117:
	.loc 1 347 0
	ldrb	w3, [x4, 32]
	add	w0, w3, w0, lsl 2
.LVL118:
	.loc 1 349 0
	sxtw	x0, w0
	ldrb	w8, [x4, x0]
.LVL119:
	.loc 1 350 0
	add	x0, x4, x0
.LVL120:
	ldrb	w5, [x0, 1]
.LVL121:
	.loc 1 351 0
	ldrb	w6, [x0, 2]
.LVL122:
	.loc 1 352 0
	ldrb	w3, [x0, 3]
	.loc 1 353 0
	add	w0, w5, w6
	add	w0, w0, w8
	cmp	w3, w0, uxtb
	beq	.L102
	.loc 1 354 0
	mov	w2, 354
.LVL123:
.L112:
	.loc 1 368 0
	adrp	x1, .LANCHOR3
	adrp	x0, .LC3
	add	x1, x1, :lo12:.LANCHOR3
	add	x0, x0, :lo12:.LC3
	bl	printf
.LVL124:
.L101:
	.loc 1 391 0
	mov	w0, -22
	ldp	x29, x30, [sp], 16
	.cfi_remember_state
	.cfi_restore 30
	.cfi_restore 29
	.cfi_def_cfa 31, 0
	ret
.LVL125:
.L102:
	.cfi_restore_state
	.loc 1 358 0
	lsl	w3, w6, 16
	orr	w3, w3, w5, lsl 8
	orr	w3, w3, w8
.LVL126:
	.loc 1 360 0
	add	w3, w3, w1, lsl 2
.LVL127:
	.loc 1 362 0
	sxtw	x3, w3
	ldrb	w6, [x4, x3]
.LVL128:
	.loc 1 363 0
	add	x3, x4, x3
.LVL129:
	ldrb	w1, [x3, 1]
.LVL130:
	.loc 1 364 0
	ldrb	w5, [x3, 2]
.LVL131:
	.loc 1 365 0
	ldrb	w0, [x3, 3]
	.loc 1 367 0
	add	w3, w1, w5
	add	w3, w3, w6
	cmp	w0, w3, uxtb
	beq	.L104
	.loc 1 368 0
	mov	w2, 368
.LVL132:
	b	.L112
.LVL133:
.L104:
	.loc 1 372 0
	lsl	w0, w5, 16
	mov	w7, w2
	orr	w0, w0, w1, lsl 8
	ldrb	w1, [x4, 16]
.LVL134:
	orr	w0, w0, w6
.LVL135:
	sub	w1, w1, #22
	and	w1, w1, 255
	cmp	w1, 50
	bhi	.L105
	mov	x3, 1
	lsl	x1, x3, x1
	mov	x3, 1037
	movk	x3, 0x2000, lsl 32
	movk	x3, 0x4, lsl 48
	tst	x1, x3
	beq	.L105
	.loc 1 381 0
	mov	w1, 32
.LVL136:
.L113:
	.loc 1 391 0
	ldp	x29, x30, [sp], 16
	.cfi_remember_state
	.cfi_restore 30
	.cfi_restore 29
	.cfi_def_cfa 31, 0
	.loc 1 386 0
	add	x0, x4, x0
.LVL137:
	b	decodewaveform
.LVL138:
.L105:
	.cfi_restore_state
	.loc 1 384 0
	cmp	w7, 32
	beq	.L101
	.loc 1 386 0
	mov	w2, 16
.LVL139:
	mov	w1, w2
	b	.L113
	.cfi_endproc
.LFE217:
	.size	get_wf_frm_num, .-get_wf_frm_num
	.section	.text.parse_wf_gray16_with_lut_type,"ax",@progbits
	.align	2
	.type	parse_wf_gray16_with_lut_type, %function
parse_wf_gray16_with_lut_type:
.LFB229:
	.loc 1 650 0
	.cfi_startproc
.LVL140:
	stp	x29, x30, [sp, -32]!
	.cfi_def_cfa_offset 32
	.cfi_offset 29, -32
	.cfi_offset 30, -24
	add	x29, sp, 0
	.cfi_def_cfa_register 29
	stp	x19, x20, [sp, 16]
	.cfi_offset 19, -16
	.cfi_offset 20, -8
	.loc 1 650 0
	mov	x20, x0
	mov	w19, w1
	.loc 1 654 0
	mov	w0, w2
.LVL141:
	bl	get_wf_mode_index
.LVL142:
	.loc 1 655 0
	mov	w1, w19
	mov	w2, 16
	bl	get_wf_frm_num
.LVL143:
	.loc 1 657 0
	str	w0, [x20]
	.loc 1 655 0
	mov	w19, w0
.LVL144:
	.loc 1 658 0
	lsl	w0, w0, 6
.LVL145:
.LBB56:
.LBB57:
	.file 2 "include/linux/compat.h"
	.loc 2 58 0
	mov	w1, 32768
	sxtw	x0, w0
.LVL146:
	bl	kmalloc
.LVL147:
.LBE57:
.LBE56:
	.loc 1 658 0
	str	x0, [x20, 8]
	.loc 1 659 0
	cbz	x0, .L116
	.loc 1 662 0
	mov	w1, w19
	bl	get_lut_gray16_data
.LVL148:
	.loc 1 664 0
	mov	w0, 0
.L114:
	.loc 1 665 0
	ldp	x19, x20, [sp, 16]
.LVL149:
	ldp	x29, x30, [sp], 32
	.cfi_remember_state
	.cfi_restore 30
	.cfi_restore 29
	.cfi_restore 19
	.cfi_restore 20
	.cfi_def_cfa 31, 0
	ret
.LVL150:
.L116:
	.cfi_restore_state
	.loc 1 660 0
	mov	w0, -12
	b	.L114
	.cfi_endproc
.LFE229:
	.size	parse_wf_gray16_with_lut_type, .-parse_wf_gray16_with_lut_type
	.section	.text.parse_wf_gray2,"ax",@progbits
	.align	2
	.type	parse_wf_gray2, %function
parse_wf_gray2:
.LFB226:
	.loc 1 588 0
	.cfi_startproc
.LVL151:
	stp	x29, x30, [sp, -48]!
	.cfi_def_cfa_offset 48
	.cfi_offset 29, -48
	.cfi_offset 30, -40
	add	x29, sp, 0
	.cfi_def_cfa_register 29
	str	x21, [sp, 32]
	.cfi_offset 21, -16
	mov	x21, x0
	stp	x19, x20, [sp, 16]
	.cfi_offset 19, -32
	.cfi_offset 20, -24
	.loc 1 593 0
	mov	w0, 4
.LVL152:
	.loc 1 588 0
	mov	w19, w1
	.loc 1 593 0
	bl	get_wf_mode_index
.LVL153:
	.loc 1 594 0
	mov	w1, w19
	mov	w2, 16
	bl	get_wf_frm_num
.LVL154:
	.loc 1 596 0
	str	w0, [x21]
	.loc 1 594 0
	mov	w19, w0
.LVL155:
	.loc 1 597 0
	lsl	w0, w0, 3
.LVL156:
.LBB66:
.LBB67:
	.loc 2 58 0
	mov	w1, 32768
	sxtw	x0, w0
.LVL157:
	bl	kmalloc
.LVL158:
.LBE67:
.LBE66:
	.loc 1 598 0
	cbz	x0, .L124
	mov	x20, x0
	.loc 1 601 0
	mov	w1, w19
	bl	get_lut_gray2_data
.LVL159:
	.loc 1 605 0
	str	w19, [x21]
.LVL160:
.LBB68:
.LBB69:
.LBB70:
.LBB71:
	.loc 2 58 0
	mov	w1, 32768
	lsl	w0, w19, 6
.LVL161:
	bl	kmalloc
.LVL162:
.LBE71:
.LBE70:
	.loc 1 438 0
	cbz	x0, .L125
	mov	x5, x0
	mov	x4, x20
	mov	w3, 0
.LVL163:
.L121:
	.loc 1 441 0
	cmp	w19, w3
	bgt	.L123
.LVL164:
.L120:
.LBE69:
.LBE68:
	.loc 1 606 0
	str	x0, [x21, 8]
.LVL165:
.LBB73:
.LBB74:
	.loc 2 81 0
	mov	x0, x20
	bl	free
.LVL166:
.LBE74:
.LBE73:
	.loc 1 610 0
	mov	w0, 0
.L118:
	.loc 1 611 0
	ldp	x19, x20, [sp, 16]
.LVL167:
	ldr	x21, [sp, 32]
.LVL168:
	ldp	x29, x30, [sp], 48
	.cfi_remember_state
	.cfi_restore 30
	.cfi_restore 29
	.cfi_restore 21
	.cfi_restore 19
	.cfi_restore 20
	.cfi_def_cfa 31, 0
	ret
.LVL169:
.L123:
	.cfi_restore_state
.LBB75:
.LBB72:
	.loc 1 442 0
	ldr	w8, [x4], 8
.LVL170:
	.loc 1 443 0
	mov	x2, 0
	ldr	w7, [x4, -4]
.LVL171:
.L122:
	lsl	w1, w2, 1
.LVL172:
	.loc 1 446 0
	asr	w6, w8, w1
	and	w6, w6, 3
	.loc 1 447 0
	asr	w1, w7, w1
.LVL173:
	.loc 1 448 0
	orr	w1, w6, w1, lsl 30
	.loc 1 449 0
	str	w1, [x5, x2, lsl 2]
.LVL174:
	add	x2, x2, 1
.LVL175:
	.loc 1 445 0
	cmp	x2, 16
	bne	.L122
	.loc 1 441 0
	add	w3, w3, 1
.LVL176:
	add	x5, x5, 64
	b	.L121
.LVL177:
.L125:
	.loc 1 439 0
	mov	x0, 0
	b	.L120
.LVL178:
.L124:
.LBE72:
.LBE75:
	.loc 1 599 0
	mov	w0, -12
	b	.L118
	.cfi_endproc
.LFE226:
	.size	parse_wf_gray2, .-parse_wf_gray2
	.section	.text.pvi_wf_get_lut,"ax",@progbits
	.align	2
	.global	pvi_wf_get_lut
	.type	pvi_wf_get_lut, %function
pvi_wf_get_lut:
.LFB232:
	.loc 1 727 0
	.cfi_startproc
.LVL179:
	.loc 1 733 0
	adrp	x3, .LANCHOR0
	ldr	x4, [x3, #:lo12:.LANCHOR0]
	cbz	x4, .L172
	.loc 1 736 0
	cbz	x0, .L173
	.loc 1 740 0
	adrp	x3, .LANCHOR4
	ldr	w5, [x3, #:lo12:.LANCHOR4]
	cmp	w5, w2
	adrp	x5, .LANCHOR5
	bne	.L130
	.loc 1 740 0 is_stmt 0 discriminator 1
	ldr	w6, [x5, #:lo12:.LANCHOR5]
	cmp	w6, w1
	beq	.L174
.L130:
	.loc 1 727 0 is_stmt 1
	stp	x29, x30, [sp, -80]!
	.cfi_def_cfa_offset 80
	.cfi_offset 29, -80
	.cfi_offset 30, -72
	add	x29, sp, 0
	.cfi_def_cfa_register 29
	stp	x19, x20, [sp, 16]
	stp	x21, x22, [sp, 32]
	stp	x23, x24, [sp, 48]
	str	x25, [sp, 64]
	.cfi_offset 19, -64
	.cfi_offset 20, -56
	.cfi_offset 21, -48
	.cfi_offset 22, -40
	.cfi_offset 23, -32
	.cfi_offset 24, -24
	.cfi_offset 25, -16
	.loc 1 743 0
	str	w2, [x3, #:lo12:.LANCHOR4]
.LBB121:
.LBB122:
	.loc 1 323 0
	mov	x3, 0
	ldrb	w20, [x4, 38]
.LBE122:
.LBE121:
	.loc 1 744 0
	str	w1, [x5, #:lo12:.LANCHOR5]
.LVL180:
.L131:
	mov	w5, w3
.LVL181:
.LBB125:
.LBB123:
	.loc 1 327 0
	cmp	w20, w3
	bgt	.L133
	.loc 1 334 0
	cmp	w20, w3
	bne	.L175
	.loc 1 335 0
	sub	w20, w20, #1
.LVL182:
	b	.L132
.LVL183:
.L133:
	.loc 1 328 0
	add	x6, x4, x3
	add	x3, x3, 1
.LVL184:
	ldrb	w6, [x6, 48]
	cmp	w2, w6
	bge	.L131
	.loc 1 329 0
	sub	w20, w5, #1
.LVL185:
.L132:
	mov	x19, x0
.LVL186:
.LBE123:
.LBE125:
	.loc 1 749 0
	ldr	x0, [x0, 8]
.LVL187:
	mov	w21, w1
	cbz	x0, .L134
.LVL188:
.LBB126:
.LBB127:
	.loc 2 81 0
	bl	free
.LVL189:
.LBE127:
.LBE126:
	.loc 1 751 0
	str	xzr, [x19, 8]
.L134:
	.loc 1 755 0
	sub	w1, w21, #1
	cmp	w1, 11
	bhi	.L158
	adrp	x0, .L136
	add	x0, x0, :lo12:.L136
	ldrh	w0, [x0,w1,uxtw #1]
	adr	x1, .Lrtx136
	add	x0, x1, w0, sxth #2
	br	x0
.Lrtx136:
	.section	.rodata.pvi_wf_get_lut,"a",@progbits
	.align	0
	.align	2
.L136:
	.2byte	(.L135 - .Lrtx136) / 4
	.2byte	(.L137 - .Lrtx136) / 4
	.2byte	(.L138 - .Lrtx136) / 4
	.2byte	(.L202 - .Lrtx136) / 4
	.2byte	(.L140 - .Lrtx136) / 4
	.2byte	(.L141 - .Lrtx136) / 4
	.2byte	(.L142 - .Lrtx136) / 4
	.2byte	(.L143 - .Lrtx136) / 4
	.2byte	(.L144 - .Lrtx136) / 4
	.2byte	(.L145 - .Lrtx136) / 4
	.2byte	(.L146 - .Lrtx136) / 4
	.2byte	(.L147 - .Lrtx136) / 4
	.section	.text.pvi_wf_get_lut
.LVL190:
.L175:
.LBB128:
.LBB124:
	.loc 1 324 0
	mov	w20, -1
.LVL191:
	b	.L132
.LVL192:
.L135:
.LBE124:
.LBE128:
.LBB129:
.LBB130:
	.loc 1 567 0
	mov	w0, 1
	bl	get_wf_mode_index
.LVL193:
	.loc 1 568 0
	mov	w1, w20
	mov	w2, 16
	bl	get_wf_frm_num
.LVL194:
	.loc 1 570 0
	add	w21, w0, 3
.LVL195:
	mov	w20, 4
.LVL196:
	.loc 1 568 0
	mov	w22, w0
.LVL197:
.LBB131:
.LBB132:
	.loc 2 58 0
	mov	w1, 32768
.LBE132:
.LBE131:
	.loc 1 570 0
	sdiv	w20, w21, w20
	sxtw	x20, w20
.LVL198:
.LBB134:
.LBB133:
	.loc 2 58 0
	mov	x0, x20
.LVL199:
	bl	kmalloc
.LVL200:
	mov	x24, x0
.LVL201:
.LBE133:
.LBE134:
	.loc 1 571 0
	cbz	x0, .L158
.LVL202:
.LBB135:
.LBB136:
	.loc 1 487 0
	adrp	x25, .LANCHOR6
	add	x23, x25, :lo12:.LANCHOR6
	mov	x2, 1200
	mov	w1, 0
	mov	x0, x23
.LVL203:
	bl	memset
.LVL204:
.LBB137:
.LBB138:
	.loc 1 157 0
	adrp	x4, waveformdata
	add	x4, x4, :lo12:waveformdata
.LBE138:
.LBE137:
	.loc 1 487 0
	mov	x3, 0
	.loc 1 490 0
	mov	w5, 16
.LVL205:
.L149:
	mov	w2, w3
.LVL206:
	.loc 1 488 0
	cmp	w22, w3
	bgt	.L150
	.loc 1 493 0
	mov	x2, x20
.LVL207:
	add	x1, x25, :lo12:.LANCHOR6
	mov	x0, x24
	bl	memcpy
.LVL208:
.LBE136:
.LBE135:
	.loc 1 578 0
	str	w22, [x19]
.LVL209:
.LBB142:
.LBB143:
	.loc 1 401 0
	lsr	w21, w21, 2
.LVL210:
.LBB144:
.LBB145:
	.loc 2 58 0
	mov	w1, 32768
	lsl	w0, w22, 10
	bl	kmalloc
.LVL211:
.LBE145:
.LBE144:
	.loc 1 405 0
	cbz	x0, .L177
	mov	x2, 0
.LVL212:
.L152:
	.loc 1 408 0
	cmp	w21, w2
	bgt	.L156
.LVL213:
.L151:
.LBE143:
.LBE142:
	.loc 1 580 0
	str	x0, [x19, 8]
.LVL214:
.LBB148:
.LBB149:
	.loc 2 81 0
	mov	x0, x24
.LVL215:
.L205:
.LBE149:
.LBE148:
.LBE130:
.LBE129:
.LBB153:
.LBB154:
.LBB155:
.LBB156:
	bl	free
.LVL216:
	b	.L201
.LVL217:
.L150:
.LBE156:
.LBE155:
.LBE154:
.LBE153:
.LBB176:
.LBB152:
.LBB150:
.LBB141:
	.loc 1 490 0
	sdiv	w1, w3, w5
.LBB140:
.LBB139:
	.loc 1 157 0
	lsl	x0, x3, 10
.LBE139:
.LBE140:
	.loc 1 490 0
	negs	w2, w2
.LVL218:
	and	w6, w3, 15
	and	w2, w2, 15
	add	x3, x3, 1
.LVL219:
	ldrb	w0, [x0, x4]
	csneg	w2, w6, w2, mi
	sxtw	x1, w1
	lsl	w2, w2, 1
	lsl	w2, w0, w2
	ldr	w0, [x23, x1, lsl 2]
	orr	w2, w2, w0
	str	w2, [x23, x1, lsl 2]
	b	.L149
.LVL220:
.L156:
.LBE141:
.LBE150:
.LBB151:
.LBB147:
	.loc 1 409 0
	ldr	w6, [x24, x2, lsl 2]
.LVL221:
	lsl	x7, x2, 8
	mov	x3, 0
.LVL222:
.L155:
.LBB146:
	.loc 1 411 0
	lsl	w1, w3, 1
	mov	w4, 0
	asr	w1, w6, w1
	and	w1, w1, 3
.LVL223:
	.loc 1 412 0
	mov	w5, w1
.LVL224:
.L153:
	.loc 1 415 0
	lsl	w8, w1, w4
	add	w4, w4, 2
	orr	w5, w5, w8
.LVL225:
	.loc 1 414 0
	cmp	w4, 32
	bne	.L153
	add	x4, x7, x3, lsl 4
	mov	x1, 0
.LVL226:
	add	x4, x0, x4, lsl 2
.LVL227:
.L154:
	.loc 1 418 0
	str	w5, [x4, x1, lsl 2]
.LVL228:
	add	x1, x1, 1
.LVL229:
	.loc 1 417 0
	cmp	x1, 16
	bne	.L154
.LVL230:
	add	x3, x3, 1
.LVL231:
.LBE146:
	.loc 1 410 0
	cmp	x3, 16
	bne	.L155
.LVL232:
	add	x2, x2, 1
.LVL233:
	b	.L152
.LVL234:
.L177:
	.loc 1 406 0
	mov	x0, 0
	b	.L151
.LVL235:
.L137:
.LBE147:
.LBE151:
.LBE152:
.LBE176:
.LBB177:
.LBB178:
	.loc 1 636 0
	mov	w0, 2
	bl	get_wf_mode_index
.LVL236:
	.loc 1 637 0
	mov	w1, w20
	mov	w2, 16
	bl	get_wf_frm_num
.LVL237:
	mov	w20, w0
.LVL238:
	.loc 1 639 0
	str	w20, [x19]
.LVL239:
	.loc 1 640 0
	lsl	w0, w0, 6
.LVL240:
.LBB179:
.LBB180:
	.loc 2 58 0
	mov	w1, 32768
	sxtw	x0, w0
.LVL241:
	bl	kmalloc
.LVL242:
.LBE180:
.LBE179:
	.loc 1 640 0
	str	x0, [x19, 8]
	.loc 1 641 0
	cbnz	x0, .L157
.LVL243:
.L158:
.LBE178:
.LBE177:
	.loc 1 811 0
	mov	w0, -1
	b	.L128
.LVL244:
.L157:
.LBB182:
.LBB181:
	.loc 1 644 0
	mov	w1, w20
.LVL245:
.L206:
.LBE181:
.LBE182:
.LBB183:
.LBB184:
	.loc 1 683 0
	bl	get_lut_gray16_data
.LVL246:
	b	.L201
.LVL247:
.L142:
.LBE184:
.LBE183:
	.loc 1 769 0
	mov	w2, 7
.L204:
	.loc 1 793 0
	mov	w1, w20
	mov	x0, x19
	bl	parse_wf_gray16_with_lut_type
.LVL248:
.L203:
	.loc 1 816 0
	cmp	w0, 0
	csetm	w0, ne
.LVL249:
.L128:
	.loc 1 829 0
	ldp	x19, x20, [sp, 16]
	ldp	x21, x22, [sp, 32]
	ldp	x23, x24, [sp, 48]
	ldr	x25, [sp, 64]
	ldp	x29, x30, [sp], 80
	.cfi_remember_state
	.cfi_restore 30
	.cfi_restore 29
	.cfi_restore 25
	.cfi_restore 23
	.cfi_restore 24
	.cfi_restore 21
	.cfi_restore 22
	.cfi_restore 19
	.cfi_restore 20
	.cfi_def_cfa 31, 0
	ret
.LVL250:
.L143:
	.cfi_restore_state
	.loc 1 775 0
	mov	w2, 8
	b	.L204
.L144:
	.loc 1 781 0
	mov	w2, 9
	b	.L204
.L145:
	.loc 1 787 0
	mov	w2, 10
	b	.L204
.L146:
	.loc 1 793 0
	mov	w2, 11
	b	.L204
.L138:
	.loc 1 799 0
	adrp	x0, .LC4
	add	x0, x0, :lo12:.LC4
	bl	printf
.LVL251:
.L201:
	.loc 1 828 0
	mov	w0, 0
	b	.L128
.LVL252:
.L140:
.LBB188:
.LBB173:
	.loc 1 695 0
	mov	w0, 5
	bl	get_wf_mode_index
.LVL253:
	.loc 1 696 0
	mov	w2, 16
	mov	w1, w20
	bl	get_wf_frm_num
.LVL254:
	mov	w21, w0
.LVL255:
	.loc 1 698 0
	str	w21, [x19]
.LVL256:
	.loc 1 699 0
	lsl	w0, w0, 6
.LVL257:
.LBB158:
.LBB159:
	.loc 2 58 0
	mov	w1, 32768
	sxtw	x0, w0
.LVL258:
	bl	kmalloc
.LVL259:
.LBE159:
.LBE158:
	.loc 1 699 0
	str	x0, [x19, 8]
	.loc 1 700 0
	cbz	x0, .L158
	.loc 1 703 0
	mov	w1, w21
	bl	get_lut_gray16_data
.LVL260:
	.loc 1 706 0
	mov	w0, 4
	bl	get_wf_mode_index
.LVL261:
	.loc 1 707 0
	mov	w1, w20
	mov	w2, 16
	bl	get_wf_frm_num
.LVL262:
	mov	w20, w0
.LVL263:
	.loc 1 710 0
	ldr	w0, [x19]
.LVL264:
.LBB160:
.LBB161:
	.loc 2 58 0
	mov	w1, 32768
.LBE161:
.LBE160:
	.loc 1 710 0
	orr	w0, w0, w20, lsl 8
	str	w0, [x19]
.LVL265:
	.loc 1 712 0
	lsl	w0, w20, 3
.LBB163:
.LBB162:
	.loc 2 58 0
	sxtw	x0, w0
.LVL266:
	bl	kmalloc
.LVL267:
	mov	x21, x0
.LVL268:
.LBE162:
.LBE163:
	.loc 1 713 0
	cbz	x0, .L158
	.loc 1 716 0
	mov	w1, w20
	bl	get_lut_gray2_data
.LVL269:
	mov	x0, 4
	ldr	x3, [x19, 8]
.LVL270:
	add	x20, x0, x20, uxtw 3
.LVL271:
	add	x2, x21, 4
	add	x20, x21, x20
.LVL272:
.L159:
.LBB164:
.LBB165:
	.loc 1 468 0
	cmp	x2, x20
	bne	.L161
.LVL273:
.LBE165:
.LBE164:
.LBB169:
.LBB157:
	.loc 2 81 0
	mov	x0, x21
	b	.L205
.LVL274:
.L161:
.LBE157:
.LBE169:
.LBB170:
.LBB166:
	.loc 1 470 0
	ldp	w7, w6, [x2, -4]
.LVL275:
	mov	x1, 0
.LVL276:
.L160:
	.loc 1 472 0
	ldr	w0, [x3, x1, lsl 2]
.LVL277:
	.loc 1 473 0
	and	w4, w0, 1073741820
.LVL278:
	lsl	w0, w1, 1
.LVL279:
	.loc 1 474 0
	asr	w5, w7, w0
	and	w5, w5, 3
	.loc 1 475 0
	asr	w0, w6, w0
.LVL280:
	.loc 1 474 0
	orr	w0, w5, w0, lsl 30
	orr	w0, w0, w4
	.loc 1 476 0
	str	w0, [x3, x1, lsl 2]
.LVL281:
	add	x1, x1, 1
.LVL282:
	.loc 1 471 0
	cmp	x1, 16
	bne	.L160
	add	x3, x3, 64
.LVL283:
	add	x2, x2, 8
.LVL284:
	b	.L159
.LVL285:
.L141:
.LBE166:
.LBE170:
.LBE173:
.LBE188:
.LBB189:
.LBB187:
	.loc 1 672 0
	mov	w0, 6
	bl	get_wf_mode_index
.LVL286:
	.loc 1 673 0
	mov	w2, 16
	mov	w1, w20
	bl	get_wf_frm_num
.LVL287:
	mov	w21, w0
.LVL288:
	.loc 1 675 0
	cmp	w0, 0
	bgt	.L162
.LVL289:
.L202:
	.loc 1 676 0
	mov	w1, w20
	mov	x0, x19
	bl	parse_wf_gray2
.LVL290:
	b	.L203
.LVL291:
.L162:
	.loc 1 678 0
	str	w21, [x19]
.LVL292:
	.loc 1 679 0
	lsl	w0, w0, 6
.LVL293:
.LBB185:
.LBB186:
	.loc 2 58 0
	mov	w1, 32768
	sxtw	x0, w0
	bl	kmalloc
.LVL294:
.LBE186:
.LBE185:
	.loc 1 679 0
	str	x0, [x19, 8]
	.loc 1 680 0
	cbz	x0, .L158
	.loc 1 683 0
	mov	w1, w21
	b	.L206
.LVL295:
.L147:
.LBE187:
.LBE189:
.LBB190:
.LBB191:
	.loc 1 618 0
	mov	w0, 7
	bl	get_wf_mode_index
.LVL296:
	.loc 1 619 0
	mov	w1, w20
	mov	w2, 32
	bl	get_wf_frm_num
.LVL297:
	mov	w23, w0
.LVL298:
	.loc 1 622 0
	lsl	w20, w0, 8
.LVL299:
	.loc 1 621 0
	str	w23, [x19]
	.loc 1 622 0
	sxtw	x20, w20
.LVL300:
.LBB192:
.LBB193:
	.loc 2 58 0
	mov	w1, 32768
	mov	x0, x20
.LVL301:
	bl	kmalloc
.LVL302:
.LBE193:
.LBE192:
	.loc 1 622 0
	str	x0, [x19, 8]
.LBB195:
.LBB194:
	.loc 2 58 0
	mov	x22, x0
.LVL303:
.LBE194:
.LBE195:
	.loc 1 623 0
	cbz	x0, .L158
.LVL304:
.LBB196:
.LBB197:
	.loc 1 523 0
	adrp	x21, gray32_data
.LVL305:
	mov	x2, 11264
	add	x19, x21, :lo12:gray32_data
.LVL306:
	mov	w1, 0
	movk	x2, 0x1, lsl 16
	mov	x0, x19
.LVL307:
	bl	memset
.LVL308:
	adrp	x5, waveformdata
	add	x5, x5, :lo12:waveformdata
	mov	w1, -32
	mov	x3, 0
.LVL309:
.L164:
	lsl	w12, w3, 1
.LBE197:
.LBE196:
.LBE191:
.LBE190:
.LBB208:
.LBB174:
.LBB171:
.LBB167:
	.loc 1 470 0
	mov	x2, 0
	b	.L171
.LVL310:
.L167:
.LBE167:
.LBE171:
.LBE174:
.LBE208:
.LBB209:
.LBB206:
.LBB204:
.LBB202:
.LBB198:
.LBB199:
	.loc 1 157 0
	lsl	x4, x0, 2
	add	x11, x0, x19
.LBE199:
.LBE198:
	.loc 1 528 0
	cmp	x3, 15
.LBB201:
.LBB200:
	.loc 1 157 0
	ldrb	w4, [x7, x4]
.LVL311:
.LBE200:
.LBE201:
	.loc 1 528 0
	bhi	.L165
	.loc 1 529 0
	ldr	w8, [x11, x2]
	lsl	w4, w4, w12
	orr	w4, w8, w4
	str	w4, [x11, x2]
.L166:
	.loc 1 526 0
	add	w6, w6, 1
.LVL312:
	add	x0, x0, 256
.LVL313:
.L169:
	cmp	w23, w6
	bgt	.L167
	add	x2, x2, 8
	.loc 1 525 0
	cmp	x2, 256
	beq	.L168
.LVL314:
.L171:
	add	x7, x3, x2, lsl 2
.LBE202:
.LBE204:
.LBE206:
.LBE209:
.LBB210:
.LBB175:
.LBB172:
.LBB168:
	.loc 1 470 0
	mov	x0, 0
	add	x7, x7, x5
	mov	w6, 0
	add	x10, x2, 4
	b	.L169
.LVL315:
.L165:
.LBE168:
.LBE172:
.LBE175:
.LBE210:
.LBB211:
.LBB207:
.LBB205:
.LBB203:
	.loc 1 532 0
	ldr	w8, [x11, x10]
	lsl	w4, w4, w1
	orr	w4, w8, w4
	str	w4, [x11, x10]
	b	.L166
.L168:
.LVL316:
	add	x3, x3, 1
.LVL317:
	add	w1, w1, 2
	.loc 1 524 0
	cmp	x3, 32
	bne	.L164
	.loc 1 538 0
	mov	x2, x20
	add	x1, x21, :lo12:gray32_data
	mov	x0, x22
	bl	memcpy
.LVL318:
	b	.L201
.LVL319:
.L172:
	.cfi_def_cfa 31, 0
	.cfi_restore 19
	.cfi_restore 20
	.cfi_restore 21
	.cfi_restore 22
	.cfi_restore 23
	.cfi_restore 24
	.cfi_restore 25
	.cfi_restore 29
	.cfi_restore 30
.LBE203:
.LBE205:
.LBE207:
.LBE211:
	.loc 1 734 0
	mov	w0, -19
.LVL320:
	ret
.LVL321:
.L173:
	.loc 1 737 0
	mov	w0, -22
.LVL322:
	ret
.LVL323:
.L174:
	.loc 1 741 0
	mov	w0, 0
.LVL324:
	ret
	.cfi_endproc
.LFE232:
	.size	pvi_wf_get_lut, .-pvi_wf_get_lut
	.section	.text.pvi_wf_input,"ax",@progbits
	.align	2
	.global	pvi_wf_input
	.type	pvi_wf_input, %function
pvi_wf_input:
.LFB233:
	.loc 1 839 0
	.cfi_startproc
.LVL325:
	.loc 1 842 0
	adrp	x1, .LANCHOR0
	ldr	x3, [x1, #:lo12:.LANCHOR0]
	cbnz	x3, .L213
	mov	x2, x1
	.loc 1 846 0
	ldrb	w1, [x0, 16]
	cmp	w1, 25
	bhi	.L210
	cmp	w1, 24
	bcs	.L211
	cmp	w1, 18
	beq	.L211
	cmp	w1, 22
	beq	.L211
	cmp	w1, 9
.L241:
	beq	.L211
	.loc 1 839 0
	stp	x29, x30, [sp, -16]!
	.cfi_def_cfa_offset 16
	.cfi_offset 29, -16
	.cfi_offset 30, -8
	add	x29, sp, 0
	.cfi_def_cfa_register 29
	.loc 1 859 0
	ldrb	w2, [x0, 22]
	adrp	x0, .LC5
.LVL326:
	add	x0, x0, :lo12:.LC5
	bl	printf
.LVL327:
	.loc 1 861 0
	mov	w0, -8
	.loc 1 867 0
	ldp	x29, x30, [sp], 16
	.cfi_restore 30
	.cfi_restore 29
	.cfi_def_cfa 31, 0
	ret
.LVL328:
.L210:
	.loc 1 846 0
	cmp	w1, 67
	beq	.L211
	bhi	.L212
	cmp	w1, 32
	beq	.L211
	cmp	w1, 35
	b	.L241
.L212:
	cmp	w1, 72
	beq	.L211
	cmp	w1, 84
	b	.L241
.L211:
	.loc 1 864 0
	str	x0, [x2, #:lo12:.LANCHOR0]
	.loc 1 866 0
	mov	w0, 0
.LVL329:
	ret
.LVL330:
.L213:
	.loc 1 843 0
	mov	w0, -16
.LVL331:
	ret
	.cfi_endproc
.LFE233:
	.size	pvi_wf_input, .-pvi_wf_input
	.section	.text.pvi_wf_get_version,"ax",@progbits
	.align	2
	.global	pvi_wf_get_version
	.type	pvi_wf_get_version, %function
pvi_wf_get_version:
.LFB234:
	.loc 1 877 0
	.cfi_startproc
	.loc 1 878 0
	adrp	x0, .LANCHOR0
	ldr	x2, [x0, #:lo12:.LANCHOR0]
.LVL332:
	.loc 1 882 0
	cbz	x2, .L246
	.loc 1 886 0 discriminator 3
	adrp	x0, .LANCHOR7
	add	x0, x0, :lo12:.LANCHOR7
	mov	x1, 0
.L245:
.LVL333:
	add	x3, x2, x1
	ldrb	w3, [x3, 65]
	strb	w3, [x1, x0]
.LVL334:
	add	x1, x1, 1
.LVL335:
	.loc 1 885 0 discriminator 3
	cmp	x1, 31
	bne	.L245
	.loc 1 888 0
	strb	wzr, [x0, 31]
	.loc 1 890 0
	ret
.L246:
	.loc 1 883 0
	mov	x0, 0
	.loc 1 891 0
	ret
	.cfi_endproc
.LFE234:
	.size	pvi_wf_get_version, .-pvi_wf_get_version
	.section	.bss.global_waveform,"aw",@nobits
	.align	3
	.set	.LANCHOR0,. + 0
	.type	global_waveform, %object
	.size	global_waveform, 8
global_waveform:
	.zero	8
	.section	.bss.gray32_data,"aw",@nobits
	.align	3
	.type	gray32_data, %object
	.size	gray32_data, 76800
gray32_data:
	.zero	76800
	.section	.bss.gray_2_data,"aw",@nobits
	.align	3
	.set	.LANCHOR2,. + 0
	.type	gray_2_data, %object
	.size	gray_2_data, 2400
gray_2_data:
	.zero	2400
	.section	.bss.gray_data,"aw",@nobits
	.align	3
	.type	gray_data, %object
	.size	gray_data, 19200
gray_data:
	.zero	19200
	.section	.bss.pvi_modes.6051,"aw",@nobits
	.align	3
	.set	.LANCHOR1,. + 0
	.type	pvi_modes.6051, %object
	.size	pvi_modes.6051, 36
pvi_modes.6051:
	.zero	36
	.section	.bss.reset_data,"aw",@nobits
	.align	3
	.set	.LANCHOR6,. + 0
	.type	reset_data, %object
	.size	reset_data, 1200
reset_data:
	.zero	1200
	.section	.bss.spi_id_buffer.6323,"aw",@nobits
	.align	3
	.set	.LANCHOR7,. + 0
	.type	spi_id_buffer.6323, %object
	.size	spi_id_buffer.6323, 32
spi_id_buffer.6323:
	.zero	32
	.section	.bss.waveformdata,"aw",@nobits
	.align	3
	.type	waveformdata, %object
	.size	waveformdata, 524288
waveformdata:
	.zero	524288
	.section	.data.sftemp.6286,"aw",@progbits
	.align	2
	.set	.LANCHOR4,. + 0
	.type	sftemp.6286, %object
	.size	sftemp.6286, 4
sftemp.6286:
	.word	-1
	.section	.data.stype.6285,"aw",@progbits
	.align	2
	.set	.LANCHOR5,. + 0
	.type	stype.6285, %object
	.size	stype.6285, 4
stype.6285:
	.word	13
	.section	.rodata.__func__.6102,"a",@progbits
	.align	3
	.set	.LANCHOR3,. + 0
	.type	__func__.6102, %object
	.size	__func__.6102, 15
__func__.6102:
	.string	"get_wf_frm_num"
	.section	.rodata.decodewaveform.str1.1,"aMS",@progbits,1
.LC2:
	.string	"pvi: decodec waveform 19 error\n"
	.section	.rodata.get_wf_frm_num.str1.1,"aMS",@progbits,1
.LC3:
	.string	"pvi: %s %d check error\n"
	.section	.rodata.get_wf_mode_index.str1.1,"aMS",@progbits,1
.LC0:
	.string	"pvi : Unknow waveform version %x,%x\n"
.LC1:
	.string	"pvi: unspport PVI waveform type"
	.section	.rodata.pvi_wf_get_lut.str1.1,"aMS",@progbits,1
.LC4:
	.string	"pvi: unsupport WF GRAY4n"
	.section	.rodata.pvi_wf_input.str1.1,"aMS",@progbits,1
.LC5:
	.string	"pvi : Unknow waveform version %x,%x, may be wrong waveform file\n"
	.text
.Letext0:
	.file 3 "include/common.h"
	.file 4 "./arch/arm/include/asm/types.h"
	.file 5 "./arch/arm/include/asm/posix_types.h"
	.file 6 "include/linux/types.h"
	.file 7 "include/errno.h"
	.file 8 "include/linux/string.h"
	.file 9 "include/efi.h"
	.file 10 "include/ide.h"
	.file 11 "include/part.h"
	.file 12 "include/flash.h"
	.file 13 "include/lmb.h"
	.file 14 "include/asm-generic/u-boot.h"
	.file 15 "./arch/arm/include/asm/u-boot-arm.h"
	.file 16 "include/linux/libfdt_env.h"
	.file 17 "include/linux/../../scripts/dtc/libfdt/fdt.h"
	.file 18 "include/linux/libfdt.h"
	.file 19 "include/image.h"
	.file 20 "include/net.h"
	.file 21 "include/dm/uclass-id.h"
	.file 22 "include/malloc.h"
	.file 23 "drivers/video/rk_eink/epdlut/epd_lut.h"
	.file 24 "include/stdio.h"
	.file 25 "include/log.h"
	.section	.note.GNU-stack,"",@progbits
