/*
 * (C) Copyright 2020 Rockchip Electronics Co., Ltd
 *
 * SPDX-License-Identifier:     GPL-2.0+
 */

	.arch armv8-a+nosimd
	.file	"rkf_waveform.c"
	.text
.Ltext0:
	.cfi_sections	.debug_frame
	.section	.text.get_wf_buf,"ax",@progbits
	.align	2
	.type	get_wf_buf, %function
get_wf_buf:
.LFB219:
	.file 1 "drivers/video/rk_eink/epdlut/rkf_waveform.c"
	.loc 1 193 0
	.cfi_startproc
.LVL0:
	.loc 1 194 0
	adrp	x2, .LANCHOR0
	.loc 1 201 0
	cmp	w1, 6
	.loc 1 194 0
	ldr	x2, [x2, #:lo12:.LANCHOR0]
.LVL1:
	.loc 1 201 0
	bhi	.L15
	adrp	x3, .L4
	add	x3, x3, :lo12:.L4
	ldrb	w1, [x3,w1,uxtw]
	adr	x3, .Lrtx4
	add	x1, x3, w1, sxtb #2
	br	x1
.Lrtx4:
.LVL2:
	.section	.rodata.get_wf_buf,"a",@progbits
	.align	0
	.align	2
.L4:
	.byte	(.L3 - .Lrtx4) / 4
	.byte	(.L5 - .Lrtx4) / 4
	.byte	(.L6 - .Lrtx4) / 4
	.byte	(.L7 - .Lrtx4) / 4
	.byte	(.L8 - .Lrtx4) / 4
	.byte	(.L9 - .Lrtx4) / 4
	.byte	(.L10 - .Lrtx4) / 4
	.section	.text.get_wf_buf
.L3:
	.loc 1 203 0
	add	x1, x2, 148
.LVL3:
	.loc 1 204 0
	add	x3, x2, 596
.LVL4:
.L11:
.LBB31:
.LBB32:
.LBB33:
	.loc 1 176 0
	cmp	w0, 0
.LBE33:
.LBB34:
	.loc 1 177 0
	mov	w4, 49
.LBE34:
.LBB35:
	.loc 1 176 0
	csel	w0, w0, wzr, ge
.LVL5:
.LBE35:
	.loc 1 173 0
	mov	w5, 0
.LBB36:
	.loc 1 177 0
	cmp	w0, 49
	csel	w0, w0, w4, le
.LVL6:
	mov	x4, 0
.LVL7:
.L14:
.LBE36:
	.loc 1 180 0
	ldrb	w6, [x1, x4]
	cmp	w0, w6
	bgt	.L12
.LVL8:
	.loc 1 185 0
	add	x5, x1, x4
	ldrb	w5, [x5, 1]
	cbz	w5, .L16
	mov	w5, w4
.L12:
.LVL9:
	add	x4, x4, 1
.LVL10:
	.loc 1 179 0
	cmp	x4, 50
	bne	.L14
.LVL11:
.L13:
.LBE32:
.LBE31:
	.loc 1 236 0
	ldr	w0, [x3, w5, sxtw 2]
	add	x0, x2, x0
	.loc 1 238 0
	ret
.LVL12:
.L5:
	.loc 1 207 0
	add	x1, x2, 468
.LVL13:
	.loc 1 208 0
	add	x3, x2, 1876
.LVL14:
	.loc 1 209 0
	b	.L11
.LVL15:
.L6:
	.loc 1 211 0
	add	x1, x2, 212
.LVL16:
	.loc 1 212 0
	add	x3, x2, 852
.LVL17:
	.loc 1 213 0
	b	.L11
.LVL18:
.L7:
	.loc 1 215 0
	add	x1, x2, 276
.LVL19:
	.loc 1 216 0
	add	x3, x2, 1108
.LVL20:
	.loc 1 217 0
	b	.L11
.LVL21:
.L8:
	.loc 1 219 0
	add	x1, x2, 340
.LVL22:
	.loc 1 220 0
	add	x3, x2, 1364
.LVL23:
	.loc 1 221 0
	b	.L11
.LVL24:
.L9:
	.loc 1 223 0
	add	x1, x2, 404
.LVL25:
	.loc 1 224 0
	add	x3, x2, 1620
.LVL26:
	.loc 1 225 0
	b	.L11
.LVL27:
.L10:
	.loc 1 227 0
	add	x1, x2, 532
.LVL28:
	.loc 1 228 0
	add	x3, x2, 2132
.LVL29:
	.loc 1 229 0
	b	.L11
.LVL30:
.L16:
.LBB38:
.LBB37:
	.loc 1 185 0
	mov	w5, w4
	b	.L13
.LVL31:
.L15:
.LBE37:
.LBE38:
	.loc 1 231 0
	mov	x0, 0
.LVL32:
	.loc 1 239 0
	ret
	.cfi_endproc
.LFE219:
	.size	get_wf_buf, .-get_wf_buf
	.section	.text.decode_wf_data,"ax",@progbits
	.align	2
	.type	decode_wf_data, %function
decode_wf_data:
.LFB221:
	.loc 1 248 0
	.cfi_startproc
.LVL33:
	stp	x29, x30, [sp, -48]!
	.cfi_def_cfa_offset 48
	.cfi_offset 29, -48
	.cfi_offset 30, -40
	add	x29, sp, 0
	.cfi_def_cfa_register 29
	stp	x19, x20, [sp, 16]
	.cfi_offset 19, -32
	.cfi_offset 20, -24
	.loc 1 251 0
	uxtw	x20, w1
.LVL34:
	.loc 1 248 0
	str	x21, [sp, 32]
	.cfi_offset 21, -16
.LBB39:
.LBB40:
	.file 2 "include/linux/compat.h"
	.loc 2 58 0
	mov	w1, 32768
.LVL35:
.LBE40:
.LBE39:
	.loc 1 248 0
	mov	x21, x0
.LBB42:
.LBB41:
	.loc 2 58 0
	mov	x0, x20
.LVL36:
	bl	kmalloc
.LVL37:
	mov	x19, x0
.LVL38:
.LBE41:
.LBE42:
	.loc 1 252 0
	cbz	x0, .L19
	.loc 1 255 0
	mov	x2, x20
	add	x1, x21, 4
	bl	memcpy
.LVL39:
.L19:
	.loc 1 258 0
	mov	x0, x19
	ldr	x21, [sp, 32]
.LVL40:
	ldp	x19, x20, [sp, 16]
.LVL41:
	ldp	x29, x30, [sp], 48
	.cfi_restore 30
	.cfi_restore 29
	.cfi_restore 21
	.cfi_restore 19
	.cfi_restore 20
	.cfi_def_cfa 31, 0
	ret
	.cfi_endproc
.LFE221:
	.size	decode_wf_data, .-decode_wf_data
	.section	.text.parse_wf_gray16,"ax",@progbits
	.align	2
	.type	parse_wf_gray16, %function
parse_wf_gray16:
.LFB225:
	.loc 1 349 0
	.cfi_startproc
.LVL42:
	stp	x29, x30, [sp, -32]!
	.cfi_def_cfa_offset 32
	.cfi_offset 29, -32
	.cfi_offset 30, -24
	add	x29, sp, 0
	.cfi_def_cfa_register 29
	str	x19, [sp, 16]
	.cfi_offset 19, -16
	.loc 1 349 0
	mov	x19, x0
	mov	w0, w1
.LVL43:
	.loc 1 355 0
	mov	w1, w2
.LVL44:
	bl	get_wf_buf
.LVL45:
	.loc 1 356 0
	ldrb	w1, [x0]
.LVL46:
	.loc 1 358 0
	str	w1, [x19]
.LVL47:
	.loc 1 362 0
	lsl	w1, w1, 6
.LVL48:
	bl	decode_wf_data
.LVL49:
	str	x0, [x19, 8]
	.loc 1 366 0
	cmp	x0, 0
	.loc 1 367 0
	ldr	x19, [sp, 16]
.LVL50:
	mov	w0, -22
	ldp	x29, x30, [sp], 32
	.cfi_restore 30
	.cfi_restore 29
	.cfi_restore 19
	.cfi_def_cfa 31, 0
	csel	w0, w0, wzr, eq
	ret
	.cfi_endproc
.LFE225:
	.size	parse_wf_gray16, .-parse_wf_gray16
	.section	.text.rkf_wf_input,"ax",@progbits
	.align	2
	.global	rkf_wf_input
	.type	rkf_wf_input, %function
rkf_wf_input:
.LFB216:
	.loc 1 129 0
	.cfi_startproc
.LVL51:
	stp	x29, x30, [sp, -80]!
	.cfi_def_cfa_offset 80
	.cfi_offset 29, -80
	.cfi_offset 30, -72
	add	x29, sp, 0
	.cfi_def_cfa_register 29
	stp	x21, x22, [sp, 32]
	.cfi_offset 21, -48
	.cfi_offset 22, -40
	.loc 1 133 0
	adrp	x22, .LANCHOR0
	.loc 1 129 0
	stp	x19, x20, [sp, 16]
	.loc 1 133 0
	ldr	x1, [x22, #:lo12:.LANCHOR0]
	.loc 1 129 0
	stp	x23, x24, [sp, 48]
	str	x25, [sp, 64]
	.cfi_offset 19, -64
	.cfi_offset 20, -56
	.cfi_offset 23, -32
	.cfi_offset 24, -24
	.cfi_offset 25, -16
	.loc 1 133 0
	cbnz	x1, .L40
	mov	x19, x0
.LVL52:
.LBB51:
.LBB52:
	.loc 1 94 0
	mov	x2, 12
	adrp	x1, .LC0
	add	x0, x0, 4
.LVL53:
	add	x1, x1, :lo12:.LC0
	bl	strncmp
.LVL54:
	mov	w21, w0
	cbz	w0, .L30
	.loc 1 97 0
	adrp	x0, .LC1
	add	x0, x0, :lo12:.LC1
	bl	printf
.LVL55:
.LBE52:
.LBE51:
	.loc 1 138 0
	adrp	x0, .LC2
	add	x0, x0, :lo12:.LC2
.L44:
	.loc 1 144 0
	bl	printf
.LVL56:
	.loc 1 145 0
	mov	w21, -1
	b	.L28
.LVL57:
.L36:
.LBB53:
.LBB54:
.LBB55:
.LBB56:
	.loc 1 87 0
	ldrb	w0, [x19, x1]
	add	x1, x1, 1
.LVL58:
	eor	w0, w0, w2, lsr 24
	ldr	w0, [x20, x0, lsl 2]
	eor	w2, w0, w2, lsl 8
.LVL59:
	b	.L35
.LVL60:
.L40:
.LBE56:
.LBE55:
.LBE54:
.LBE53:
	.loc 1 134 0
	mov	w21, -16
.LVL61:
.L28:
	.loc 1 153 0
	mov	w0, w21
	ldr	x25, [sp, 64]
	ldp	x19, x20, [sp, 16]
	ldp	x21, x22, [sp, 32]
	ldp	x23, x24, [sp, 48]
	ldp	x29, x30, [sp], 80
	.cfi_remember_state
	.cfi_restore 30
	.cfi_restore 29
	.cfi_restore 25
	.cfi_restore 23
	.cfi_restore 24
	.cfi_restore 21
	.cfi_restore 22
	.cfi_restore 19
	.cfi_restore 20
	.cfi_def_cfa 31, 0
	ret
.LVL62:
.L30:
	.cfi_restore_state
.LBB70:
.LBB69:
	.loc 1 107 0
	ldr	w24, [x19]
	cmp	w24, 262144
	bgt	.L38
.LBB67:
.LBB65:
	.loc 1 84 0
	adrp	x20, .LANCHOR1
	add	x23, x20, :lo12:.LANCHOR1
.LBE65:
.LBE67:
	.loc 1 110 0
	ldr	w25, [x19, w24, sxtw]
.LVL63:
.LBB68:
.LBB66:
	.loc 1 84 0
	mov	x2, 1024
	mov	w1, 0
	mov	x0, x23
	bl	memset
.LVL64:
.LBB57:
.LBB58:
	.loc 1 70 0
	mov	w4, 3511
.LBE58:
.LBE57:
	.loc 1 84 0
	mov	x3, 0
.LBB62:
.LBB59:
	.loc 1 70 0
	movk	w4, 0x4c1, lsl 16
.LVL65:
.L34:
	lsl	w0, w3, 22
.LVL66:
.LBE59:
.LBE62:
	.loc 1 84 0
	mov	w2, 8
.LBB63:
.LBB60:
	.loc 1 67 0
	mov	w1, 0
.LVL67:
.L33:
	.loc 1 69 0
	eor	w6, w0, w1
	lsl	w1, w1, 1
.LVL68:
	.loc 1 70 0
	mov	w5, w1
	cmp	w6, 0
	eor	w1, w1, w4
	.loc 1 73 0
	lsl	w0, w0, 1
.LVL69:
	.loc 1 70 0
	csel	w1, w1, w5, lt
.LVL70:
	.loc 1 68 0
	subs	w2, w2, #1
.LVL71:
	bne	.L33
	.loc 1 75 0
	str	w1, [x3, x23]
	add	x3, x3, 4
	.loc 1 65 0
	cmp	x3, 1024
	bne	.L34
.LBE60:
.LBE63:
	.loc 1 87 0
	add	x20, x20, :lo12:.LANCHOR1
.LBB64:
.LBB61:
	.loc 1 65 0
	mov	x1, 0
.LVL72:
.L35:
.LBE61:
.LBE64:
	.loc 1 86 0
	cmp	w24, w1
	bhi	.L36
.LVL73:
.LBE66:
.LBE68:
	.loc 1 113 0
	cmp	w25, w2
	beq	.L37
	.loc 1 114 0
	adrp	x0, .LC3
	mov	w1, w25
	add	x0, x0, :lo12:.LC3
	bl	printf
.LVL74:
.L38:
.LBE69:
.LBE70:
	.loc 1 144 0
	adrp	x0, .LC4
	add	x0, x0, :lo12:.LC4
	b	.L44
.LVL75:
.L37:
	.loc 1 148 0
	add	x1, x19, 20
	adrp	x0, .LC5
	add	x0, x0, :lo12:.LC5
	bl	printf
.LVL76:
	.loc 1 150 0
	str	x19, [x22, #:lo12:.LANCHOR0]
	.loc 1 152 0
	b	.L28
	.cfi_endproc
.LFE216:
	.size	rkf_wf_input, .-rkf_wf_input
	.section	.text.rkf_wf_get_version,"ax",@progbits
	.align	2
	.global	rkf_wf_get_version
	.type	rkf_wf_get_version, %function
rkf_wf_get_version:
.LFB217:
	.loc 1 163 0
	.cfi_startproc
	.loc 1 164 0
	adrp	x0, .LANCHOR0
	ldr	x1, [x0, #:lo12:.LANCHOR0]
	.loc 1 167 0
	add	x0, x1, 84
	cmp	x1, 0
	.loc 1 168 0
	csel	x0, x0, xzr, ne
	ret
	.cfi_endproc
.LFE217:
	.size	rkf_wf_get_version, .-rkf_wf_get_version
	.section	.text.rkf_wf_get_lut,"ax",@progbits
	.align	2
	.global	rkf_wf_get_lut
	.type	rkf_wf_get_lut, %function
rkf_wf_get_lut:
.LFB229:
	.loc 1 462 0
	.cfi_startproc
.LVL77:
	.loc 1 467 0
	adrp	x3, .LANCHOR0
	ldr	x3, [x3, #:lo12:.LANCHOR0]
	cbz	x3, .L74
	.loc 1 470 0
	cbz	x0, .L75
	.loc 1 462 0
	stp	x29, x30, [sp, -48]!
	.cfi_def_cfa_offset 48
	.cfi_offset 29, -48
	.cfi_offset 30, -40
	add	x29, sp, 0
	.cfi_def_cfa_register 29
	stp	x19, x20, [sp, 16]
	.cfi_offset 19, -32
	.cfi_offset 20, -24
	.loc 1 474 0
	adrp	x20, .LANCHOR2
	.loc 1 462 0
	stp	x21, x22, [sp, 32]
	.cfi_offset 21, -16
	.cfi_offset 22, -8
	.loc 1 474 0
	ldr	w3, [x20, #:lo12:.LANCHOR2]
	cmp	w3, w2
	adrp	x3, .LANCHOR3
	bne	.L50
	.loc 1 474 0 is_stmt 0 discriminator 1
	ldr	w4, [x3, #:lo12:.LANCHOR3]
	cmp	w4, w1
	beq	.L76
.L50:
	mov	x19, x0
	.loc 1 481 0 is_stmt 1
	ldr	x0, [x0, 8]
.LVL78:
	.loc 1 477 0
	str	w2, [x20, #:lo12:.LANCHOR2]
	mov	w21, w1
	.loc 1 478 0
	str	w1, [x3, #:lo12:.LANCHOR3]
	.loc 1 481 0
	cbz	x0, .L51
.LVL79:
.LBB104:
.LBB105:
	.loc 2 81 0
	bl	free
.LVL80:
.LBE105:
.LBE104:
	.loc 1 483 0
	str	xzr, [x19, 8]
.L51:
	.loc 1 486 0
	cmp	w21, 2
	beq	.L56
	.loc 1 489 0
	cmp	w21, 11
	beq	.L53
	.loc 1 493 0
	sub	w21, w21, #1
.LVL81:
	cmp	w21, 9
	bhi	.L70
	adrp	x0, .L55
	add	x0, x0, :lo12:.L55
	ldrb	w0, [x0,w21,uxtw]
	adr	x1, .Lrtx55
	add	x0, x1, w0, sxtb #2
	br	x0
.Lrtx55:
	.section	.rodata.rkf_wf_get_lut,"a",@progbits
	.align	0
	.align	2
.L55:
	.byte	(.L54 - .Lrtx55) / 4
	.byte	(.L70 - .Lrtx55) / 4
	.byte	(.L56 - .Lrtx55) / 4
	.byte	(.L57 - .Lrtx55) / 4
	.byte	(.L58 - .Lrtx55) / 4
	.byte	(.L59 - .Lrtx55) / 4
	.byte	(.L56 - .Lrtx55) / 4
	.byte	(.L60 - .Lrtx55) / 4
	.byte	(.L53 - .Lrtx55) / 4
	.byte	(.L61 - .Lrtx55) / 4
	.section	.text.rkf_wf_get_lut
.L54:
.LVL82:
.LBB106:
.LBB107:
	.loc 1 325 0
	ldr	w0, [x20, #:lo12:.LANCHOR2]
	mov	w1, 0
	bl	get_wf_buf
.LVL83:
	.loc 1 326 0
	ldrb	w22, [x0]
.LVL84:
	.loc 1 329 0
	add	w20, w22, 15
	lsr	w20, w20, 4
.LVL85:
	.loc 1 330 0
	lsl	w1, w20, 2
.LVL86:
	bl	decode_wf_data
.LVL87:
	mov	x21, x0
.LVL88:
	.loc 1 331 0
	cbz	x0, .L70
	.loc 1 335 0
	str	w22, [x19]
.LVL89:
.LBB108:
.LBB109:
.LBB110:
.LBB111:
	.loc 2 58 0
	mov	w1, 32768
	ubfiz	x0, x20, 10, 5
.LVL90:
	bl	kmalloc
.LVL91:
.LBE111:
.LBE110:
	.loc 1 272 0
	cbz	x0, .L78
	mov	x2, 0
.LVL92:
.L64:
	.loc 1 275 0
	cmp	w20, w2
	bgt	.L68
.LVL93:
.L63:
.LBE109:
.LBE108:
	.loc 1 338 0
	str	x0, [x19, 8]
	.loc 1 339 0
	cbnz	x0, .L69
.LVL94:
.LBB114:
.LBB115:
	.loc 2 81 0
	mov	x0, x21
	bl	free
.LVL95:
.L70:
.LBE115:
.LBE114:
.LBE107:
.LBE106:
	.loc 1 539 0
	mov	w0, -1
	b	.L48
.LVL96:
.L68:
.LBB120:
.LBB119:
.LBB116:
.LBB113:
	.loc 1 276 0
	ldr	w7, [x21, x2, lsl 2]
.LVL97:
	lsl	x6, x2, 8
	mov	x3, 0
.LVL98:
.L67:
.LBB112:
	.loc 1 278 0
	lsl	w1, w3, 1
	mov	w4, 0
	asr	w1, w7, w1
	and	w1, w1, 3
.LVL99:
	.loc 1 279 0
	mov	w5, w1
.LVL100:
.L65:
	.loc 1 282 0
	lsl	w8, w1, w4
	add	w4, w4, 2
	orr	w5, w5, w8
.LVL101:
	.loc 1 281 0
	cmp	w4, 32
	bne	.L65
	add	x4, x6, x3, lsl 4
	mov	x1, 0
.LVL102:
	add	x4, x0, x4, lsl 2
.LVL103:
.L66:
	.loc 1 285 0
	str	w5, [x4, x1, lsl 2]
.LVL104:
	add	x1, x1, 1
.LVL105:
	.loc 1 284 0
	cmp	x1, 16
	bne	.L66
.LVL106:
	add	x3, x3, 1
.LVL107:
.LBE112:
	.loc 1 277 0
	cmp	x3, 16
	bne	.L67
.LVL108:
	add	x2, x2, 1
.LVL109:
	b	.L64
.LVL110:
.L78:
	.loc 1 273 0
	mov	x0, 0
	b	.L63
.LVL111:
.L69:
.LBE113:
.LBE116:
.LBB117:
.LBB118:
	.loc 2 81 0
	mov	x0, x21
.LVL112:
.L107:
.LBE118:
.LBE117:
.LBE119:
.LBE120:
.LBB121:
.LBB122:
.LBB123:
.LBB124:
	bl	free
.LVL113:
	b	.L76
.L60:
.LBE124:
.LBE123:
.LBE122:
.LBE121:
	.loc 1 507 0
	mov	w2, 3
.LVL114:
.L106:
	ldr	w1, [x20, #:lo12:.LANCHOR2]
	mov	x0, x19
	bl	parse_wf_gray16
.LVL115:
	.loc 1 508 0
	cmp	w0, 0
	csetm	w0, ne
.LVL116:
.L48:
	.loc 1 553 0
	ldp	x19, x20, [sp, 16]
	ldp	x21, x22, [sp, 32]
	ldp	x29, x30, [sp], 48
	.cfi_remember_state
	.cfi_restore 30
	.cfi_restore 29
	.cfi_restore 21
	.cfi_restore 22
	.cfi_restore 19
	.cfi_restore 20
	.cfi_def_cfa 31, 0
	ret
.LVL117:
.L53:
	.cfi_restore_state
	.loc 1 513 0
	mov	w2, 4
	b	.L106
.LVL118:
.L61:
	.loc 1 519 0
	mov	w2, 5
	b	.L106
.LVL119:
.L56:
	.loc 1 525 0
	mov	w2, 2
	b	.L106
.LVL120:
.L57:
.LBB130:
.LBB131:
	.loc 1 376 0
	ldr	w0, [x20, #:lo12:.LANCHOR2]
	mov	w1, 1
	bl	get_wf_buf
.LVL121:
	.loc 1 377 0
	ldrb	w20, [x0]
.LVL122:
	.loc 1 381 0
	lsl	w1, w20, 6
.LVL123:
	bl	decode_wf_data
.LVL124:
	str	x0, [x19, 8]
	.loc 1 382 0
	cbz	x0, .L70
	.loc 1 385 0
	str	w20, [x19]
.LVL125:
.L76:
.LBE131:
.LBE130:
	.loc 1 475 0
	mov	w0, 0
	b	.L48
.LVL126:
.L58:
	.loc 1 537 0
	ldr	w20, [x20, #:lo12:.LANCHOR2]
.LVL127:
.LBB132:
.LBB129:
	.loc 1 398 0
	mov	w1, 2
	mov	w0, w20
	bl	get_wf_buf
.LVL128:
	.loc 1 399 0
	ldrb	w1, [x0]
.LVL129:
	.loc 1 401 0
	str	w1, [x19]
.LVL130:
	.loc 1 405 0
	lsl	w1, w1, 6
.LVL131:
	bl	decode_wf_data
.LVL132:
	str	x0, [x19, 8]
	.loc 1 406 0
	cbz	x0, .L70
	.loc 1 411 0
	mov	w1, 1
	mov	w0, w20
	bl	get_wf_buf
.LVL133:
.LBB125:
.LBB126:
	.loc 1 243 0
	ldrb	w20, [x0]
.LVL134:
.LBE126:
.LBE125:
	.loc 1 414 0
	ldr	w1, [x19]
	orr	w1, w1, w20, lsl 8
	str	w1, [x19]
.LVL135:
	.loc 1 419 0
	lsl	w1, w20, 6
.LVL136:
	bl	decode_wf_data
.LVL137:
	.loc 1 420 0
	cbz	x0, .L70
	ldr	x7, [x19, 8]
.LVL138:
	ubfiz	x20, x20, 6, 8
.LVL139:
	mov	x2, 0
.LVL140:
.L71:
	add	x5, x7, x2
	add	x6, x0, x2
.LVL141:
.LBB127:
.LBB128:
	.loc 1 303 0
	cmp	x2, x20
	beq	.L107
	mov	x1, 0
.LVL142:
.L72:
	.loc 1 305 0
	ldr	w3, [x6, x1]
.LVL143:
	.loc 1 307 0
	ldr	w4, [x5, x1]
.LVL144:
	.loc 1 306 0
	and	w3, w3, -1073741821
.LVL145:
	.loc 1 308 0
	and	w4, w4, 1073741820
.LVL146:
	.loc 1 310 0
	orr	w3, w3, w4
.LVL147:
	str	w3, [x5, x1]
.LVL148:
	add	x1, x1, 4
.LVL149:
	.loc 1 304 0
	cmp	x1, 64
	bne	.L72
	add	x2, x2, 64
	b	.L71
.LVL150:
.L59:
.LBE128:
.LBE127:
.LBE129:
.LBE132:
.LBB133:
.LBB134:
	.loc 1 437 0
	ldr	w0, [x20, #:lo12:.LANCHOR2]
	mov	w1, 6
	bl	get_wf_buf
.LVL151:
	.loc 1 438 0
	ldrb	w1, [x0]
.LVL152:
	.loc 1 440 0
	str	w1, [x19]
.LVL153:
	.loc 1 444 0
	lsl	w1, w1, 6
.LVL154:
	bl	decode_wf_data
.LVL155:
	.loc 1 445 0
	cmp	x0, 0
	.loc 1 444 0
	str	x0, [x19, 8]
	.loc 1 445 0
	csetm	w0, eq
	b	.L48
.LVL156:
.L74:
	.cfi_def_cfa 31, 0
	.cfi_restore 19
	.cfi_restore 20
	.cfi_restore 21
	.cfi_restore 22
	.cfi_restore 29
	.cfi_restore 30
.LBE134:
.LBE133:
	.loc 1 468 0
	mov	w0, -19
.LVL157:
	ret
.LVL158:
.L75:
	.loc 1 471 0
	mov	w0, -22
.LVL159:
	ret
	.cfi_endproc
.LFE229:
	.size	rkf_wf_get_lut, .-rkf_wf_get_lut
	.section	.bss.crc32_table,"aw",@nobits
	.align	3
	.set	.LANCHOR1,. + 0
	.type	crc32_table, %object
	.size	crc32_table, 1024
crc32_table:
	.zero	1024
	.section	.bss.global_waveform,"aw",@nobits
	.align	3
	.set	.LANCHOR0,. + 0
	.type	global_waveform, %object
	.size	global_waveform, 8
global_waveform:
	.zero	8
	.section	.data.sftemp.6190,"aw",@progbits
	.align	2
	.set	.LANCHOR2,. + 0
	.type	sftemp.6190, %object
	.size	sftemp.6190, 4
sftemp.6190:
	.word	-1
	.section	.data.stype.6189,"aw",@progbits
	.align	2
	.set	.LANCHOR3,. + 0
	.type	stype.6189, %object
	.size	stype.6189, 4
stype.6189:
	.word	13
	.section	.rodata.rkf_wf_input.str1.1,"aMS",@progbits,1
.LC0:
	.string	"rkf waveform"
.LC1:
	.string	"rkf: check format failed\n"
.LC2:
	.string	"rkf: failed to check RKF file format\n"
.LC3:
	.string	"[EINK]: waveform crc err readcrc = %x crccheck = %x\n"
.LC4:
	.string	"rkf: failed to check crc RKF waveform\n"
.LC5:
	.string	"rkf file version: %s\n"
	.text
.Letext0:
	.file 3 "include/common.h"
	.file 4 "./arch/arm/include/asm/types.h"
	.file 5 "./arch/arm/include/asm/posix_types.h"
	.file 6 "include/linux/types.h"
	.file 7 "include/errno.h"
	.file 8 "include/linux/string.h"
	.file 9 "include/efi.h"
	.file 10 "include/ide.h"
	.file 11 "include/part.h"
	.file 12 "include/flash.h"
	.file 13 "include/lmb.h"
	.file 14 "include/asm-generic/u-boot.h"
	.file 15 "./arch/arm/include/asm/u-boot-arm.h"
	.file 16 "include/linux/libfdt_env.h"
	.file 17 "include/linux/../../scripts/dtc/libfdt/fdt.h"
	.file 18 "include/linux/libfdt.h"
	.file 19 "include/image.h"
	.file 20 "include/net.h"
	.file 21 "include/dm/uclass-id.h"
	.file 22 "include/malloc.h"
	.file 23 "drivers/video/rk_eink/epdlut/epd_lut.h"
	.file 24 "include/stdio.h"
	.file 25 "include/log.h"
	.section	.note.GNU-stack,"",@progbits
