	.arch armv8-a+nosimd
	.file	"mp_boot.c"
	.text
.Ltext0:
	.cfi_sections	.debug_frame
	.section	.text.mpb_task_set_state,"ax",@progbits
	.align	2
	.type	mpb_task_set_state, %function
mpb_task_set_state:
.LFB225:
	.file 1 "common/mp_boot.c"
	.loc 1 227 0
	.cfi_startproc
.LVL0:
.LBB30:
.LBB31:
	.loc 1 146 0
	mov	x4, 136314880
	mov	w3, 1
	lsl	w3, w3, w1
	ldr	w5, [x4]
.LBE31:
.LBE30:
	.loc 1 232 0
	tst	w3, w5
	beq	.L11
.LBB32:
.LBB33:
	.loc 1 199 0
	uxtw	x5, w0
	mov	x3, 328
	umull	x0, w0, w3
.LVL1:
	madd	x4, x5, x3, x4
	mov	w3, 0
	ldrb	w6, [x4, 328]
	mov	x4, 20
	movk	x4, 0x820, lsl 16
	add	x4, x0, x4
.L3:
.LVL2:
	cmp	w3, w6
	blt	.L5
.LVL3:
.L11:
.LBE33:
.LBE32:
	.loc 1 252 0
	mov	w0, 0
	ret
.LVL4:
.L5:
.LBB35:
.LBB34:
	.loc 1 200 0
	ldr	w7, [x4], 40
	cmp	w1, w7
	beq	.L4
	.loc 1 199 0
	add	w3, w3, 1
.LVL5:
	b	.L3
.L4:
.LVL6:
.LBE34:
.LBE35:
	.loc 1 239 0
	mov	x8, 328
	sxtw	x4, w3
	mov	x7, 40
	.loc 1 240 0
	add	x0, x0, 16
	.loc 1 239 0
	mul	x5, x5, x8
	.loc 1 227 0
	stp	x29, x30, [sp, -16]!
	.cfi_def_cfa_offset 16
	.cfi_offset 29, -16
	.cfi_offset 30, -8
	.loc 1 239 0
	nop // between mem op and mult-accumulate
	madd	x4, x4, x7, x5
	mov	x6, 136314880
	.loc 1 240 0
	smaddl	x3, w3, w7, x0
	.loc 1 227 0
	add	x29, sp, 0
	.cfi_def_cfa_register 29
	.loc 1 239 0
	add	x4, x6, x4
	.loc 1 227 0
	.loc 1 239 0
	add	w1, w1, w2
.LVL7:
	.loc 1 240 0
	add	x0, x3, x6
	.loc 1 239 0
	str	w1, [x4, 16]
	.loc 1 241 0
	add	x1, x0, 4
	bl	flush_dcache_range
.LVL8:
	.loc 1 252 0
	mov	w0, 0
	ldp	x29, x30, [sp], 16
	.cfi_restore 30
	.cfi_restore 29
	.cfi_def_cfa 31, 0
	ret
	.cfi_endproc
.LFE225:
	.size	mpb_task_set_state, .-mpb_task_set_state
	.section	.text.mpb_quit_load_image,"ax",@progbits
	.align	2
	.type	mpb_quit_load_image, %function
mpb_quit_load_image:
.LFB238:
	.loc 1 560 0
	.cfi_startproc
	stp	x29, x30, [sp, -32]!
	.cfi_def_cfa_offset 32
	.cfi_offset 29, -32
	.cfi_offset 30, -24
	add	x29, sp, 0
	.cfi_def_cfa_register 29
	str	x19, [sp, 16]
	.cfi_offset 19, -16
	.loc 1 563 0
	bl	rockchip_get_boot_mode
.LVL9:
	cmp	w0, 1
	bne	.L15
	mov	w19, w0
.LBB38:
.LBB39:
	.loc 1 564 0
	adrp	x0, .LANCHOR0
	ldr	w1, [x0, #:lo12:.LANCHOR0]
	cbnz	w1, .L13
	.loc 1 565 0
	str	w19, [x0, #:lo12:.LANCHOR0]
	.loc 1 566 0
	adrp	x0, .LC1
	add	x0, x0, :lo12:.LC1
	bl	printf
.LVL10:
.L13:
.LBE39:
.LBE38:
	.loc 1 573 0
	mov	w0, w19
	ldr	x19, [sp, 16]
	ldp	x29, x30, [sp], 32
	.cfi_remember_state
	.cfi_restore 30
	.cfi_restore 29
	.cfi_restore 19
	.cfi_def_cfa 31, 0
	ret
.L15:
	.cfi_restore_state
	.loc 1 572 0
	mov	w19, 0
	b	.L13
	.cfi_endproc
.LFE238:
	.size	mpb_quit_load_image, .-mpb_quit_load_image
	.section	.text.spl_init_display,"ax",@progbits
	.align	2
	.weak	spl_init_display
	.type	spl_init_display, %function
spl_init_display:
.LFB252:
	.cfi_startproc
	mov	w0, 0
	ret
	.cfi_endproc
.LFE252:
	.size	spl_init_display, .-spl_init_display
	.section	.text.spl_load_baseparamter,"ax",@progbits
	.align	2
	.weak	spl_load_baseparamter
	.type	spl_load_baseparamter, %function
spl_load_baseparamter:
.LFB250:
	.cfi_startproc
	mov	w0, 0
	ret
	.cfi_endproc
.LFE250:
	.size	spl_load_baseparamter, .-spl_load_baseparamter
	.section	.text.spl_load_fit,"ax",@progbits
	.align	2
	.weak	spl_load_fit
	.type	spl_load_fit, %function
spl_load_fit:
.LFB248:
	.cfi_startproc
	mov	w0, 0
	ret
	.cfi_endproc
.LFE248:
	.size	spl_load_fit, .-spl_load_fit
	.section	.text.spl_load_android,"ax",@progbits
	.align	2
	.weak	spl_load_android
	.type	spl_load_android, %function
spl_load_android:
.LFB246:
	.cfi_startproc
	mov	w0, 0
	ret
	.cfi_endproc
.LFE246:
	.size	spl_load_android, .-spl_load_android
	.section	.text.spl_hash_android,"ax",@progbits
	.align	2
	.weak	spl_hash_android
	.type	spl_hash_android, %function
spl_hash_android:
.LFB244:
	.cfi_startproc
	mov	w0, 0
	ret
	.cfi_endproc
.LFE244:
	.size	spl_hash_android, .-spl_hash_android
	.section	.text.spl_dummy,"ax",@progbits
	.align	2
	.weak	spl_dummy
	.type	spl_dummy, %function
spl_dummy:
.LFB218:
	.loc 1 52 0
	.cfi_startproc
.LVL11:
	.loc 1 52 0
	mov	w0, 0
.LVL12:
	ret
	.cfi_endproc
.LFE218:
	.size	spl_dummy, .-spl_dummy
	.section	.text.mpb_task_is_done,"ax",@progbits
	.align	2
	.global	mpb_task_is_done
	.type	mpb_task_is_done, %function
mpb_task_is_done:
.LFB226:
	.loc 1 261 0
	.cfi_startproc
.LVL13:
.LBB40:
.LBB41:
	.loc 1 146 0
	mov	x2, 136314880
	mov	w1, 1
	lsl	w1, w1, w0
	ldr	w2, [x2]
.LBE41:
.LBE40:
	.loc 1 265 0
	tst	w1, w2
	beq	.L39
	.loc 1 261 0
	stp	x29, x30, [sp, -96]!
	.cfi_def_cfa_offset 96
	.cfi_offset 29, -96
	.cfi_offset 30, -88
	add	x29, sp, 0
	.cfi_def_cfa_register 29
	stp	x19, x20, [sp, 16]
	.cfi_offset 19, -80
	.cfi_offset 20, -72
	mov	w19, w0
	stp	x23, x24, [sp, 48]
	.cfi_offset 23, -48
	.cfi_offset 24, -40
	.loc 1 275 0
	mov	w24, -559087616
	.loc 1 261 0
	str	x27, [sp, 80]
	.loc 1 275 0
	add	w24, w0, w24
	.cfi_offset 27, -16
	.loc 1 277 0
	sub	w27, w0, #65536
	.loc 1 261 0
	stp	x21, x22, [sp, 32]
	stp	x25, x26, [sp, 64]
	.cfi_offset 21, -64
	.cfi_offset 22, -56
	.cfi_offset 25, -32
	.cfi_offset 26, -24
	mov	x21, 0
.LVL14:
.L31:
	mov	x22, 16
	mov	x20, 20
	.loc 1 269 0
	mov	x26, 328
	movk	x22, 0x820, lsl 16
	movk	x20, 0x820, lsl 16
	add	x22, x21, x22
	add	x20, x21, x20
	.loc 1 261 0
	mov	w23, 0
	.loc 1 269 0
	movk	x26, 0x820, lsl 16
	.loc 1 279 0
	mov	w25, 1431655765
	b	.L27
.LVL15:
.L30:
	.loc 1 270 0
	ldr	w0, [x20]
	cmp	w19, w0
	beq	.L26
.L29:
	.loc 1 269 0
	add	w23, w23, 1
.LVL16:
	add	x22, x22, 40
	add	x20, x20, 40
.LVL17:
.L27:
	.loc 1 269 0 is_stmt 0 discriminator 1
	ldrb	w0, [x21, x26]
	cmp	w23, w0
	blt	.L30
.LVL18:
	add	x21, x21, 328
	.loc 1 268 0 is_stmt 1 discriminator 2
	cmp	x21, 1312
	bne	.L31
	.loc 1 286 0
	mov	w0, 0
.L23:
	.loc 1 287 0
	ldp	x19, x20, [sp, 16]
.LVL19:
	ldp	x21, x22, [sp, 32]
	ldp	x23, x24, [sp, 48]
.LVL20:
	ldp	x25, x26, [sp, 64]
	ldr	x27, [sp, 80]
.LVL21:
	ldp	x29, x30, [sp], 96
	.cfi_remember_state
	.cfi_restore 30
	.cfi_restore 29
	.cfi_restore 27
	.cfi_restore 25
	.cfi_restore 26
	.cfi_restore 23
	.cfi_restore 24
	.cfi_restore 21
	.cfi_restore 22
	.cfi_restore 19
	.cfi_restore 20
	.cfi_def_cfa 31, 0
	ret
.LVL22:
.L26:
	.cfi_restore_state
	.loc 1 272 0
	mov	x0, x22
	mov	x1, x20
	bl	invalidate_dcache_range
.LVL23:
	.loc 1 275 0
	ldr	w0, [x22]
	cmp	w0, w24
	beq	.L32
	.loc 1 277 0
	cmp	w0, w27
	beq	.L24
	.loc 1 279 0
	add	w1, w19, w25
	cmp	w0, w1
	bne	.L29
	.loc 1 280 0
	mov	w0, -2
	b	.L23
.L24:
	.loc 1 266 0
	mov	w0, -1
	b	.L23
.L32:
	.loc 1 276 0
	mov	w0, 1
	b	.L23
.LVL24:
.L39:
	.cfi_def_cfa 31, 0
	.cfi_restore 19
	.cfi_restore 20
	.cfi_restore 21
	.cfi_restore 22
	.cfi_restore 23
	.cfi_restore 24
	.cfi_restore 25
	.cfi_restore 26
	.cfi_restore 27
	.cfi_restore 29
	.cfi_restore 30
	.loc 1 266 0
	mov	w0, -1
.LVL25:
	.loc 1 287 0
	ret
	.cfi_endproc
.LFE226:
	.size	mpb_task_is_done, .-mpb_task_is_done
	.section	.text.mpb_task_dump,"ax",@progbits
	.align	2
	.global	mpb_task_dump
	.type	mpb_task_dump, %function
mpb_task_dump:
.LFB227:
	.loc 1 290 0
	.cfi_startproc
	stp	x29, x30, [sp, -80]!
	.cfi_def_cfa_offset 80
	.cfi_offset 29, -80
	.cfi_offset 30, -72
	.loc 1 294 0
	mov	x0, 136314880
	.loc 1 290 0
	add	x29, sp, 0
	.cfi_def_cfa_register 29
	.loc 1 294 0
	ldr	x1, [x0, 1360]
	ldr	x2, [x0, 1368]
	adrp	x0, .LC2
	.loc 1 290 0
	stp	x19, x20, [sp, 16]
	.cfi_offset 19, -64
	.cfi_offset 20, -56
	.loc 1 294 0
	mov	x20, 20
	.loc 1 290 0
	stp	x23, x24, [sp, 48]
	.loc 1 294 0
	movk	x20, 0x820, lsl 16
	.loc 1 290 0
	stp	x21, x22, [sp, 32]
	.cfi_offset 23, -32
	.cfi_offset 24, -24
	.cfi_offset 21, -48
	.cfi_offset 22, -40
	.loc 1 299 0
	adrp	x23, .LANCHOR1
	adrp	x24, .LC3
	.loc 1 296 0
	mov	w21, 0
	.loc 1 299 0
	add	x23, x23, :lo12:.LANCHOR1
	add	x24, x24, :lo12:.LC3
	.loc 1 294 0
	add	x0, x0, :lo12:.LC2
	.loc 1 290 0
	str	x25, [sp, 64]
	.cfi_offset 25, -16
	.loc 1 294 0
	bl	printf
.LVL26:
.L43:
	.loc 1 290 0
	mov	x19, x20
	mov	w22, 0
	.loc 1 300 0
	adrp	x25, .LC4
	b	.L46
.LVL27:
.L44:
	.loc 1 299 0 discriminator 3
	ldr	w2, [x19]
	mov	w1, w21
	mov	x0, x24
	.loc 1 297 0 discriminator 3
	add	w22, w22, 1
.LVL28:
	add	x19, x19, 40
	.loc 1 299 0 discriminator 3
	ldr	x3, [x23, w2, uxtw 3]
	bl	printf
.LVL29:
	.loc 1 300 0 discriminator 3
	ldr	w1, [x19, -40]
	add	x0, x25, :lo12:.LC4
	bl	printf
.LVL30:
	.loc 1 301 0 discriminator 3
	ldr	x1, [x19, -52]
	adrp	x0, .LC5
	add	x0, x0, :lo12:.LC5
	bl	printf
.LVL31:
	.loc 1 302 0 discriminator 3
	ldr	w1, [x19, -44]
	adrp	x0, .LC6
	add	x0, x0, :lo12:.LC6
	bl	printf
.LVL32:
	.loc 1 303 0 discriminator 3
	ldr	w1, [x19, -28]
	adrp	x0, .LC7
	add	x0, x0, :lo12:.LC7
	bl	printf
.LVL33:
	.loc 1 304 0 discriminator 3
	ldr	x1, [x19, -20]
	adrp	x0, .LC8
	add	x0, x0, :lo12:.LC8
	bl	printf
.LVL34:
	.loc 1 305 0 discriminator 3
	ldr	w1, [x19, -36]
	adrp	x0, .LC9
	add	x0, x0, :lo12:.LC9
	bl	printf
.LVL35:
	.loc 1 306 0 discriminator 3
	ldr	w1, [x19, -32]
	adrp	x0, .LC10
	add	x0, x0, :lo12:.LC10
	bl	printf
.LVL36:
.L46:
	.loc 1 297 0 discriminator 1
	ldrb	w0, [x20, 308]
	cmp	w22, w0
	blt	.L44
	.loc 1 296 0 discriminator 2
	add	w21, w21, 1
.LVL37:
	add	x20, x20, 328
	cmp	w21, 4
	bne	.L43
	.loc 1 310 0
	ldp	x19, x20, [sp, 16]
	ldp	x21, x22, [sp, 32]
.LVL38:
	ldp	x23, x24, [sp, 48]
	ldr	x25, [sp, 64]
	ldp	x29, x30, [sp], 80
	.cfi_restore 30
	.cfi_restore 29
	.cfi_restore 25
	.cfi_restore 23
	.cfi_restore 24
	.cfi_restore 21
	.cfi_restore 22
	.cfi_restore 19
	.cfi_restore 20
	.cfi_def_cfa 31, 0
	ret
	.cfi_endproc
.LFE227:
	.size	mpb_task_dump, .-mpb_task_dump
	.section	.text.core_task_run.part.2,"ax",@progbits
	.align	2
	.type	core_task_run.part.2, %function
core_task_run.part.2:
.LFB242:
	.loc 1 370 0
	.cfi_startproc
.LVL39:
	stp	x29, x30, [sp, -80]!
	.cfi_def_cfa_offset 80
	.cfi_offset 29, -80
	.cfi_offset 30, -72
	add	x29, sp, 0
	.cfi_def_cfa_register 29
	stp	x19, x20, [sp, 16]
	.cfi_offset 19, -64
	.cfi_offset 20, -56
	mov	w19, w0
	stp	x21, x22, [sp, 32]
	mov	w20, w2
.LVL40:
	stp	x23, x24, [sp, 48]
	.cfi_offset 21, -48
	.cfi_offset 22, -40
	.cfi_offset 23, -32
	.cfi_offset 24, -24
	and	x22, x1, 255
	stp	x25, x26, [sp, 64]
	.cfi_offset 25, -16
	.cfi_offset 26, -8
.LBB52:
.LBB53:
	.loc 1 319 0
	cbz	w3, .L49
	mov	w25, w3
	mov	w23, 0
	mov	w21, 0
	.loc 1 324 0
	mov	w26, 1
.LVL41:
.L54:
	lsl	w0, w26, w21
	tst	w0, w25
	beq	.L50
.L51:
	.loc 1 319 0
	mov	w24, 20000
.L52:
.LVL42:
	.loc 1 329 0
	mov	w0, w21
	bl	mpb_task_is_done
.LVL43:
	cbz	w0, .L53
	.loc 1 344 0
	mov	w0, w21
	bl	mpb_task_is_done
.LVL44:
	.loc 1 345 0
	cmp	w0, 0
	cinc	w23, w23, lt
.LVL45:
.L50:
	.loc 1 323 0
	add	w21, w21, 1
.LVL46:
	cmp	w21, 8
	bne	.L54
.LVL47:
.LBE53:
.LBE52:
	.loc 1 387 0
	cbz	w23, .L49
.LVL48:
	.loc 1 389 0
	uxtw	x1, w19
	mov	x2, 328
	sxtw	x0, w22
	mul	x1, x1, x2
	mov	x2, 40
	madd	x0, x0, x2, x1
	mov	x1, 136314880
	add	x0, x1, x0
	ldr	w0, [x0, 28]
	cbnz	w0, .L55
.LVL49:
.L56:
	.loc 1 410 0
	mov	w2, w20
	mov	w1, w19
	adrp	x0, .LC12
	add	x0, x0, :lo12:.LC12
	bl	printf
.LVL50:
	.loc 1 374 0
	mov	w21, 0
	.loc 1 411 0
	mov	w2, 1431655765
	mov	w1, w20
	mov	w0, w19
	bl	mpb_task_set_state
.LVL51:
	b	.L62
.LVL52:
.L53:
.LBB55:
.LBB54:
	.loc 1 330 0
	mov	x0, 100
	bl	udelay
.LVL53:
	.loc 1 333 0
	subs	w24, w24, #1
.LVL54:
	bne	.L52
.LVL55:
	.loc 1 337 0
	bl	mpb_task_dump
.LVL56:
	b	.L51
.LVL57:
.L49:
.LBE54:
.LBE55:
	.loc 1 392 0
	uxtw	x1, w19
	mov	x2, 328
	sxtw	x0, w22
	mul	x1, x1, x2
	mov	x2, 40
	madd	x0, x0, x2, x1
	mov	x1, 136314880
	add	x0, x1, x0
	ldr	w0, [x0, 28]
	cbnz	w0, .L56
.L55:
.LVL58:
	.loc 1 397 0
	mov	w2, w20
	mov	w1, w19
	adrp	x0, .LC13
	add	x0, x0, :lo12:.LC13
	bl	printf
.LVL59:
	.loc 1 401 0
	uxtw	x24, w19
	.loc 1 398 0
	bl	get_ticks
.LVL60:
	mov	x23, x0
.LVL61:
	.loc 1 400 0
	mov	w2, 286331153
	mov	w1, w20
	mov	w0, w19
.LVL62:
	bl	mpb_task_set_state
.LVL63:
	.loc 1 401 0
	mov	x1, 328
	mov	x0, 40
	mul	x1, x24, x1
	madd	x1, x22, x0, x1
	mov	x0, 8
	movk	x0, 0x820, lsl 16
	ldr	x1, [x0, x1]
	mov	x0, 1320
	movk	x0, 0x820, lsl 16
	blr	x1
.LVL64:
	mov	w21, w0
.LVL65:
	.loc 1 402 0
	cbnz	w0, .L63
	.loc 1 405 0
	mov	w2, -559087616
	b	.L81
.L63:
	.loc 1 403 0
	mov	w2, -65536
.L81:
	.loc 1 405 0
	mov	w1, w20
	mov	w0, w19
.LVL66:
	bl	mpb_task_set_state
.LVL67:
	.loc 1 407 0
	bl	get_ticks
.LVL68:
	sub	x0, x0, x23
	mov	x4, 24000
	.loc 1 408 0
	mov	w3, w21
	mov	w2, w20
	mov	w1, w19
	.loc 1 407 0
	udiv	x4, x0, x4
	mov	x0, 328
	mul	x0, x24, x0
	mov	x24, 40
	madd	x24, x22, x24, x0
	mov	x22, 40
.LVL69:
	movk	x22, 0x820, lsl 16
	.loc 1 408 0
	adrp	x0, .LC11
	add	x0, x0, :lo12:.LC11
	.loc 1 407 0
	str	x4, [x22, x24]
	.loc 1 408 0
	bl	printf
.LVL70:
.L62:
.LBB56:
.LBB57:
.LBB58:
.LBB59:
	.loc 1 146 0
	mov	x0, 136314880
	mov	w1, 1
	lsl	w1, w1, w20
	ldr	w2, [x0]
.LBE59:
.LBE58:
	.loc 1 212 0
	tst	w1, w2
	beq	.L48
.LBB60:
.LBB61:
	.loc 1 199 0
	uxtw	x3, w19
	mov	x1, 328
	umull	x19, w19, w1
.LVL71:
	madd	x0, x3, x1, x0
	mov	w1, 0
	ldrb	w2, [x0, 328]
	mov	x0, 20
	movk	x0, 0x820, lsl 16
	add	x0, x19, x0
.L59:
.LVL72:
	cmp	w1, w2
	blt	.L61
.LVL73:
.L48:
.LBE61:
.LBE60:
.LBE57:
.LBE56:
	.loc 1 417 0
	ldp	x19, x20, [sp, 16]
.LVL74:
	ldp	x21, x22, [sp, 32]
.LVL75:
	ldp	x23, x24, [sp, 48]
	ldp	x25, x26, [sp, 64]
	ldp	x29, x30, [sp], 80
	.cfi_remember_state
	.cfi_restore 30
	.cfi_restore 29
	.cfi_restore 25
	.cfi_restore 26
	.cfi_restore 23
	.cfi_restore 24
	.cfi_restore 21
	.cfi_restore 22
	.cfi_restore 19
	.cfi_restore 20
	.cfi_def_cfa 31, 0
	ret
.LVL76:
.L61:
	.cfi_restore_state
.LBB69:
.LBB64:
.LBB63:
.LBB62:
	.loc 1 200 0
	ldr	w4, [x0], 40
	cmp	w20, w4
	beq	.L60
	.loc 1 199 0
	add	w1, w1, 1
.LVL77:
	b	.L59
.L60:
.LVL78:
.LBE62:
.LBE63:
	.loc 1 219 0
	sxtw	x2, w1
	mov	x5, 328
	mov	x4, 40
	.loc 1 220 0
	add	x19, x19, 32
	.loc 1 219 0
	mul	x3, x3, x5
	mov	x0, 136314880
	madd	x2, x2, x4, x3
	.loc 1 220 0
	smaddl	x19, w1, w4, x19
	.loc 1 219 0
	add	x2, x0, x2
.LBE64:
.LBE69:
	.loc 1 417 0
	ldp	x23, x24, [sp, 48]
.LBB70:
.LBB65:
	.loc 1 220 0
	add	x0, x19, x0
.LBE65:
.LBE70:
	.loc 1 417 0
	ldp	x25, x26, [sp, 64]
.LBB71:
.LBB66:
	.loc 1 221 0
	add	x1, x0, 4
.LBE66:
.LBE71:
	.loc 1 417 0
	ldp	x19, x20, [sp, 16]
.LVL79:
.LBB72:
.LBB67:
	.loc 1 219 0
	str	w21, [x2, 32]
.LBE67:
.LBE72:
	.loc 1 417 0
	ldp	x21, x22, [sp, 32]
.LVL80:
	ldp	x29, x30, [sp], 80
	.cfi_restore 30
	.cfi_restore 29
	.cfi_restore 25
	.cfi_restore 26
	.cfi_restore 23
	.cfi_restore 24
	.cfi_restore 21
	.cfi_restore 22
	.cfi_restore 19
	.cfi_restore 20
	.cfi_def_cfa 31, 0
.LBB73:
.LBB68:
	.loc 1 221 0
	b	flush_dcache_range
.LVL81:
.LBE68:
.LBE73:
	.cfi_endproc
.LFE242:
	.size	core_task_run.part.2, .-core_task_run.part.2
	.section	.text.mpb_task_wait_done,"ax",@progbits
	.align	2
	.global	mpb_task_wait_done
	.type	mpb_task_wait_done, %function
mpb_task_wait_done:
.LFB230:
	.loc 1 366 0
	.cfi_startproc
.LVL82:
	stp	x29, x30, [sp, -32]!
	.cfi_def_cfa_offset 32
	.cfi_offset 29, -32
	.cfi_offset 30, -24
	add	x29, sp, 0
	.cfi_def_cfa_register 29
	str	x19, [sp, 16]
	.cfi_offset 19, -16
	mov	w19, w0
.LVL83:
.L84:
.LBB78:
.LBB79:
	.loc 1 355 0
	mov	w0, w19
	bl	mpb_task_is_done
.LVL84:
	cbnz	w0, .L83
.LVL85:
.LBB80:
.LBB81:
	.file 2 "include/linux/delay.h"
	.loc 2 16 0
	mov	x0, 1000
	bl	udelay
.LVL86:
	mov	x0, 1000
	bl	udelay
.LVL87:
	b	.L84
.L83:
.LBE81:
.LBE80:
	.loc 1 362 0
	mov	w0, w19
.LBE79:
.LBE78:
	.loc 1 368 0
	ldr	x19, [sp, 16]
.LVL88:
	ldp	x29, x30, [sp], 32
	.cfi_restore 30
	.cfi_restore 29
	.cfi_restore 19
	.cfi_def_cfa 31, 0
.LBB83:
.LBB82:
	.loc 1 362 0
	b	mpb_task_is_done
.LVL89:
.LBE82:
.LBE83:
	.cfi_endproc
.LFE230:
	.size	mpb_task_wait_done, .-mpb_task_wait_done
	.section	.text.mpb_task_run,"ax",@progbits
	.align	2
	.global	mpb_task_run
	.type	mpb_task_run, %function
mpb_task_run:
.LFB232:
	.loc 1 420 0
	.cfi_startproc
.LVL90:
	stp	x29, x30, [sp, -80]!
	.cfi_def_cfa_offset 80
	.cfi_offset 29, -80
	.cfi_offset 30, -72
.LBB90:
.LBB91:
	.loc 1 146 0
	mov	x3, 136314880
.LBE91:
.LBE90:
	.loc 1 420 0
	add	x29, sp, 0
	.cfi_def_cfa_register 29
	stp	x23, x24, [sp, 48]
	.cfi_offset 23, -32
	.cfi_offset 24, -24
.LBB93:
.LBB92:
	.loc 1 146 0
	mov	w24, 1
	ldr	w2, [x3]
	lsl	w24, w24, w1
.LVL91:
.LBE92:
.LBE93:
	.loc 1 420 0
	stp	x19, x20, [sp, 16]
	stp	x21, x22, [sp, 32]
	.loc 1 424 0
	tst	w24, w2
	.loc 1 420 0
	str	x25, [sp, 64]
	.cfi_offset 19, -64
	.cfi_offset 20, -56
	.cfi_offset 21, -48
	.cfi_offset 22, -40
	.cfi_offset 25, -16
	.loc 1 424 0
	beq	.L86
	.loc 1 424 0 is_stmt 0 discriminator 1
	cbz	w1, .L86
	uxtw	x25, w0
.LVL92:
	.loc 1 421 0 is_stmt 1
	mov	w19, 328
	mov	x0, 8
.LVL93:
	mov	x22, x25
	mov	w21, w1
	.loc 1 427 0
	mov	x20, x3
	.loc 1 421 0
	umaddl	x19, w25, w19, x0
	.loc 1 427 0
	mov	x0, 328
	.loc 1 421 0
	mov	w23, 0
	.loc 1 427 0
	madd	x25, x25, x0, x3
.LVL94:
	.loc 1 421 0
	add	x19, x19, x3
.LVL95:
.L89:
	.loc 1 427 0 discriminator 1
	ldrb	w0, [x25, 328]
	cmp	w23, w0
	blt	.L91
.LVL96:
.L86:
	.loc 1 431 0
	ldp	x19, x20, [sp, 16]
	ldp	x21, x22, [sp, 32]
	ldp	x23, x24, [sp, 48]
	ldr	x25, [sp, 64]
	ldp	x29, x30, [sp], 80
	.cfi_remember_state
	.cfi_restore 30
	.cfi_restore 29
	.cfi_restore 25
	.cfi_restore 23
	.cfi_restore 24
	.cfi_restore 21
	.cfi_restore 22
	.cfi_restore 19
	.cfi_restore 20
	.cfi_def_cfa 31, 0
	ret
.LVL97:
.L91:
	.cfi_restore_state
	.loc 1 428 0
	ldr	w0, [x19, 12]
	cmp	w21, w0
	bne	.L90
	.loc 1 428 0 is_stmt 0 discriminator 1
	ldr	x0, [x19]
	cbz	x0, .L90
.LVL98:
.LBB94:
.LBB95:
.LBB96:
.LBB97:
	.loc 1 146 0 is_stmt 1
	ldr	w0, [x20]
.LBE97:
.LBE96:
	.loc 1 377 0
	tst	w24, w0
	beq	.L90
	ldr	w3, [x19, 16]
	mov	w2, w21
	mov	w1, w23
	mov	w0, w22
	bl	core_task_run.part.2
.LVL99:
.L90:
.LBE95:
.LBE94:
	.loc 1 427 0 discriminator 2
	add	w23, w23, 1
.LVL100:
	add	x19, x19, 40
	b	.L89
	.cfi_endproc
.LFE232:
	.size	mpb_task_run, .-mpb_task_run
	.section	.text.core_main,"ax",@progbits
	.align	2
	.global	core_main
	.type	core_main, %function
core_main:
.LFB233:
	.loc 1 434 0
	.cfi_startproc
.LVL101:
	stp	x29, x30, [sp, -64]!
	.cfi_def_cfa_offset 64
	.cfi_offset 29, -64
	.cfi_offset 30, -56
	add	x29, sp, 0
	.cfi_def_cfa_register 29
	stp	x21, x22, [sp, 32]
	.cfi_offset 21, -32
	.cfi_offset 22, -24
	uxtw	x22, w0
	stp	x19, x20, [sp, 16]
	.loc 1 435 0
	mov	x0, 8
.LVL102:
	.cfi_offset 19, -48
	.cfi_offset 20, -40
	mov	w19, 328
	mov	x20, 136314880
	.loc 1 434 0
	stp	x23, x24, [sp, 48]
	.cfi_offset 23, -16
	.cfi_offset 24, -8
	.loc 1 434 0
	mov	x23, x22
.LVL103:
	.loc 1 435 0
	umaddl	x19, w22, w19, x0
	.loc 1 438 0
	mov	x0, 328
	mov	w21, 0
.LBB102:
.LBB103:
.LBB104:
.LBB105:
	.loc 1 146 0
	mov	w24, 1
.LBE105:
.LBE104:
.LBE103:
.LBE102:
	.loc 1 438 0
	madd	x22, x22, x0, x20
.LVL104:
	.loc 1 435 0
	add	x19, x19, x20
.LVL105:
.L103:
	.loc 1 438 0 discriminator 1
	ldrb	w0, [x22, 328]
	cmp	w21, w0
	blt	.L105
	.loc 1 442 0
	ldp	x19, x20, [sp, 16]
	ldp	x21, x22, [sp, 32]
.LVL106:
	ldp	x23, x24, [sp, 48]
.LVL107:
	ldp	x29, x30, [sp], 64
	.cfi_remember_state
	.cfi_restore 30
	.cfi_restore 29
	.cfi_restore 23
	.cfi_restore 24
	.cfi_restore 21
	.cfi_restore 22
	.cfi_restore 19
	.cfi_restore 20
	.cfi_def_cfa 31, 0
	ret
.LVL108:
.L105:
	.cfi_restore_state
	.loc 1 439 0
	ldr	x0, [x19]
	cbz	x0, .L104
	.loc 1 440 0
	ldr	w2, [x19, 12]
.LVL109:
.LBB109:
.LBB108:
.LBB107:
.LBB106:
	.loc 1 146 0
	ldr	w0, [x20]
	lsl	w1, w24, w2
.LBE106:
.LBE107:
	.loc 1 377 0
	tst	w1, w0
	beq	.L104
	ldr	w3, [x19, 16]
	mov	w1, w21
	mov	w0, w23
	bl	core_task_run.part.2
.LVL110:
.L104:
.LBE108:
.LBE109:
	.loc 1 438 0 discriminator 2
	add	w21, w21, 1
.LVL111:
	add	x19, x19, 40
	b	.L103
	.cfi_endproc
.LFE233:
	.size	core_main, .-core_main
	.section	.text.smp_entry,"ax",@progbits
	.align	2
	.global	smp_entry
	.type	smp_entry, %function
smp_entry:
.LFB234:
	.loc 1 448 0
	.cfi_startproc
.LVL112:
	stp	x29, x30, [sp, -32]!
	.cfi_def_cfa_offset 32
	.cfi_offset 29, -32
	.cfi_offset 30, -24
	add	x29, sp, 0
	.cfi_def_cfa_register 29
	str	x19, [sp, 16]
	.cfi_offset 19, -16
	.loc 1 448 0
	mov	w19, w0
	.loc 1 450 0
	adrp	x0, .LANCHOR2
.LVL113:
	ldr	x0, [x0, #:lo12:.LANCHOR2]
.LVL114:
.LBB110:
.LBB111:
	.loc 1 131 0
#APP
// 131 "common/mp_boot.c" 1
	mov x18, x0

// 0 "" 2
.LVL115:
#NO_APP
.LBE111:
.LBE110:
	.loc 1 451 0
	bl	dcache_enable
.LVL116:
	.loc 1 455 0
	cmp	w19, 1
	bne	.L114
.L118:
	.loc 1 460 0
	mov	w0, w19
	bl	core_main
.LVL117:
	b	.L115
.L114:
	.loc 1 459 0
	cmp	w19, 2
	beq	.L118
.L115:
	.loc 1 468 0
	bl	flush_dcache_all
.LVL118:
	.loc 1 469 0
	bl	disable_interrupts
.LVL119:
.LBB112:
.LBB113:
	.file 3 "./arch/arm/include/asm/system.h"
	.loc 3 193 0
#APP
// 193 "./arch/arm/include/asm/system.h" 1
	msr daifset, #0x04
// 0 "" 2
#NO_APP
.LBE113:
.LBE112:
	.loc 1 471 0
	bl	icache_disable
.LVL120:
	.loc 1 472 0
	bl	invalidate_icache_all
.LVL121:
	.loc 1 473 0
	bl	dcache_disable
.LVL122:
.LBB114:
.LBB115:
	.loc 1 138 0
#APP
// 138 "common/mp_boot.c" 1
	mrs x0, S3_1_c15_c2_1
// 0 "" 2
	.loc 1 139 0
// 139 "common/mp_boot.c" 1
	bic x0, x0, #0x40
// 0 "" 2
	.loc 1 140 0
// 140 "common/mp_boot.c" 1
	msr S3_1_c15_c2_1, x0
// 0 "" 2
#NO_APP
.LBE115:
.LBE114:
	.loc 1 475 0
	bl	invalidate_dcache_all
.LVL123:
	.loc 1 478 0
#APP
// 478 "common/mp_boot.c" 1
	dsb sy
// 0 "" 2
	.loc 1 479 0
// 479 "common/mp_boot.c" 1
	isb sy
// 0 "" 2
#NO_APP
.L116:
	.loc 1 481 0 discriminator 1
#APP
// 481 "common/mp_boot.c" 1
	wfe
// 0 "" 2
#NO_APP
	b	.L116
	.cfi_endproc
.LFE234:
	.size	smp_entry, .-smp_entry
	.section	.text.mpb_init_1,"ax",@progbits
	.align	2
	.global	mpb_init_1
	.type	mpb_init_1, %function
mpb_init_1:
.LFB236:
	.loc 1 527 0
	.cfi_startproc
	stp	x29, x30, [sp, -16]!
	.cfi_def_cfa_offset 16
	.cfi_offset 29, -16
	.cfi_offset 30, -8
	.loc 1 528 0
	mov	x2, 40
	mov	x1, x0
	mov	x0, 1320
	.loc 1 527 0
	add	x29, sp, 0
	.cfi_def_cfa_register 29
	.loc 1 528 0
	movk	x0, 0x820, lsl 16
	.loc 1 527 0
	.loc 1 528 0
	bl	memcpy
.LVL124:
	.loc 1 530 0
	mov	w1, 2
	mov	w0, 0
	bl	mpb_task_run
.LVL125:
	.loc 1 531 0
	mov	w2, 286331153
	mov	w1, 3
	mov	w0, 0
	bl	mpb_task_set_state
.LVL126:
	.loc 1 532 0
	bl	flush_dcache_all
.LVL127:
	.loc 1 533 0
#APP
// 533 "common/mp_boot.c" 1
	dsb sy
// 0 "" 2
	.loc 1 534 0
// 534 "common/mp_boot.c" 1
	isb sy
// 0 "" 2
	.loc 1 535 0
#NO_APP
	ldp	x29, x30, [sp], 16
	.cfi_restore 30
	.cfi_restore 29
	.cfi_def_cfa 31, 0
	ret
	.cfi_endproc
.LFE236:
	.size	mpb_init_1, .-mpb_init_1
	.section	.text.mpb_init_x,"ax",@progbits
	.align	2
	.global	mpb_init_x
	.type	mpb_init_x, %function
mpb_init_x:
.LFB237:
	.loc 1 538 0
	.cfi_startproc
.LVL128:
	stp	x29, x30, [sp, -64]!
	.cfi_def_cfa_offset 64
	.cfi_offset 29, -64
	.cfi_offset 30, -56
	.loc 1 539 0
	cmp	w0, 2
	.loc 1 538 0
	add	x29, sp, 0
	.cfi_def_cfa_register 29
	.loc 1 539 0
	beq	.L123
	cmp	w0, 3
	beq	.L124
	cbnz	w0, .L121
.LBB124:
.LBB125:
	.loc 1 494 0
	adrp	x1, .LANCHOR3
	add	x1, x1, :lo12:.LANCHOR3
	mov	x2, 48
	add	x0, x29, 16
.LVL129:
	bl	memcpy
.LVL130:
	.loc 1 509 0
	adrp	x0, .LC14
	add	x0, x0, :lo12:.LC14
	bl	printf
.LVL131:
	.loc 1 511 0
	mov	x2, 1376
	mov	w1, 0
	mov	x0, 136314880
	bl	memset
.LVL132:
	.loc 1 512 0
	adrp	x0, .LANCHOR2
	add	x6, x29, 64
.LBB126:
.LBB127:
	.loc 1 177 0
	mov	x4, 136314880
	mov	x7, 328
.LBE127:
.LBE126:
	.loc 1 512 0
	str	x18, [x0, #:lo12:.LANCHOR2]
.LVL133:
	add	x0, x29, 16
.LBB130:
.LBB128:
	.loc 1 179 0
	mov	x8, 40
	.loc 1 185 0
	mov	w10, 1
.LVL134:
.L126:
.LBE128:
.LBE130:
	.loc 1 514 0
	cmp	x6, x0
	bne	.L128
	.loc 1 517 0
	bl	flush_dcache_all
.LVL135:
.LBB131:
	.loc 1 518 0
#APP
// 518 "common/mp_boot.c" 1
	dmb sy
// 0 "" 2
#NO_APP
	mov	x1, 8
	adrp	x0, save_boot_params_ret
	movk	x1, 0xfe48, lsl 16
	add	x0, x0, :lo12:save_boot_params_ret
	str	w0, [x1]
.LVL136:
.LBE131:
.LBB132:
	.loc 1 519 0
#APP
// 519 "common/mp_boot.c" 1
	dmb sy
// 0 "" 2
#NO_APP
	mov	x0, 4
	mov	w1, 48815
	movk	x0, 0xfe48, lsl 16
	movk	w1, 0xdead, lsl 16
	str	w1, [x0]
.LBE132:
	.loc 1 520 0
#APP
// 520 "common/mp_boot.c" 1
	dsb sy
// 0 "" 2
	.loc 1 522 0
// 522 "common/mp_boot.c" 1
	sev
// 0 "" 2
	.loc 1 523 0
// 523 "common/mp_boot.c" 1
	isb sy
// 0 "" 2
.LVL137:
#NO_APP
.L121:
.LBE125:
.LBE124:
	.loc 1 556 0
	ldp	x29, x30, [sp], 64
	.cfi_remember_state
	.cfi_restore 30
	.cfi_restore 29
	.cfi_def_cfa 31, 0
	ret
.L128:
	.cfi_restore_state
	ldp	w1, w3, [x0]
.LVL138:
	ldp	w12, w11, [x0, 16]
.LBB135:
.LBB134:
.LBB133:
.LBB129:
	.loc 1 172 0
	cmp	w1, 3
	ldr	x13, [x0, 8]
.LVL139:
	beq	.L127
	.loc 1 176 0
	sub	w2, w3, #1
	cmp	w2, 6
	bhi	.L127
.LVL140:
	.loc 1 177 0
	uxtw	x1, w1
	mul	x2, x1, x7
	add	x5, x4, x2
	.loc 1 179 0
	ldrb	w1, [x5, 328]
.LVL141:
	madd	x1, x1, x8, x2
	add	x1, x4, x1
	.loc 1 181 0
	stp	w3, w12, [x1, 20]
.LVL142:
	.loc 1 185 0
	lsl	w3, w10, w3
.LVL143:
	.loc 1 183 0
	stp	w11, wzr, [x1, 28]
	.loc 1 179 0
	str	x13, [x1, 8]
	.loc 1 184 0
	str	xzr, [x1, 40]
	.loc 1 185 0
	ldr	w1, [x4]
.LVL144:
	orr	w3, w1, w3
	str	w3, [x4]
	.loc 1 186 0
	ldrb	w1, [x5, 328]
	add	w1, w1, 1
	strb	w1, [x5, 328]
.L127:
	add	x0, x0, 24
	b	.L126
.LVL145:
.L123:
.LBE129:
.LBE133:
.LBE134:
.LBE135:
	.loc 1 544 0
	mov	w2, -559087616
	mov	w1, 3
	mov	w0, 0
.LVL146:
	bl	mpb_task_set_state
.LVL147:
	.loc 1 545 0
	bl	flush_dcache_all
.LVL148:
	.loc 1 546 0
#APP
// 546 "common/mp_boot.c" 1
	dsb sy
// 0 "" 2
	.loc 1 547 0
// 547 "common/mp_boot.c" 1
	isb sy
// 0 "" 2
.LVL149:
	.loc 1 556 0
#NO_APP
	ldp	x29, x30, [sp], 64
	.cfi_remember_state
	.cfi_restore 30
	.cfi_restore 29
	.cfi_def_cfa 31, 0
.LBB136:
.LBB137:
	.loc 2 16 0
	mov	x0, 1000
	b	udelay
.LVL150:
.L124:
	.cfi_restore_state
.LBE137:
.LBE136:
	.loc 1 556 0
	ldp	x29, x30, [sp], 64
	.cfi_restore 30
	.cfi_restore 29
	.cfi_def_cfa 31, 0
	.loc 1 553 0
	mov	w2, -559087616
	mov	w1, 7
	mov	w0, 0
.LVL151:
	b	mpb_task_set_state
.LVL152:
	.cfi_endproc
.LFE237:
	.size	mpb_init_x, .-mpb_init_x
	.section	.text.mpb_post,"ax",@progbits
	.align	2
	.global	mpb_post
	.type	mpb_post, %function
mpb_post:
.LFB239:
	.loc 1 576 0
	.cfi_startproc
.LVL153:
	.loc 1 580 0
	cmp	w0, 5
	bhi	.L147
	.loc 1 576 0
	stp	x29, x30, [sp, -48]!
	.cfi_def_cfa_offset 48
	.cfi_offset 29, -48
	.cfi_offset 30, -40
	.loc 1 580 0
	adrp	x1, .L136
	add	x1, x1, :lo12:.L136
	.loc 1 576 0
	add	x29, sp, 0
	.cfi_def_cfa_register 29
	.loc 1 580 0
	ldrb	w0, [x1,w0,uxtw]
	adr	x1, .Lrtx136
	add	x0, x1, w0, sxtb #2
	br	x0
.Lrtx136:
.LVL154:
	.section	.rodata.mpb_post,"a",@progbits
	.align	0
	.align	2
.L136:
	.byte	(.L135 - .Lrtx136) / 4
	.byte	(.L137 - .Lrtx136) / 4
	.byte	(.L138 - .Lrtx136) / 4
	.byte	(.L139 - .Lrtx136) / 4
	.byte	(.L140 - .Lrtx136) / 4
	.byte	(.L141 - .Lrtx136) / 4
	.section	.text.mpb_post
.L135:
	.loc 1 582 0
	mov	w0, 5
.L155:
	.loc 1 602 0
	bl	mpb_task_wait_done
.LVL155:
	sxtw	x0, w0
	b	.L133
.L137:
.LVL156:
	.loc 1 586 0
	mov	w0, 5
	bl	mpb_task_wait_done
.LVL157:
	.loc 1 587 0
	bl	mpb_quit_load_image
.LVL158:
	cbz	w0, .L142
.LVL159:
.L156:
	.loc 1 621 0
	mov	x0, 0
	.loc 1 617 0
	b	.L133
.LVL160:
.L142:
	.loc 1 587 0 discriminator 1
	mov	x0, 136314880
	ldr	x0, [x0, 1360]
.LVL161:
.L133:
	.loc 1 622 0
	ldp	x29, x30, [sp], 48
	.cfi_remember_state
	.cfi_restore 30
	.cfi_restore 29
	.cfi_def_cfa 31, 0
	ret
.L138:
	.cfi_restore_state
	.loc 1 590 0
	bl	mpb_quit_load_image
.LVL162:
	cbnz	w0, .L156
	.loc 1 590 0 is_stmt 0 discriminator 1
	mov	x0, 136314880
	ldr	x0, [x0, 1368]
	b	.L133
.L139:
	.loc 1 594 0 is_stmt 1
	bl	mpb_quit_load_image
.LVL163:
	cbz	w0, .L156
	.loc 1 596 0
	mov	w0, 6
	bl	mpb_task_wait_done
.LVL164:
	.loc 1 597 0
	mov	x0, 1
	b	.L133
.L140:
	.loc 1 602 0
	mov	w0, 6
	b	.L155
.L141:
	.loc 1 605 0
	bl	mpb_quit_load_image
.LVL165:
	cbnz	w0, .L156
.LVL166:
	.loc 1 609 0
	mov	w0, 5
	bl	mpb_task_wait_done
.LVL167:
	cmp	w0, 0
	ble	.L144
.L146:
	.loc 1 611 0
	mov	x0, 136314880
	adrp	x2, .LC15
	add	x2, x2, :lo12:.LC15
	mov	x1, 32
	ldr	x3, [x0, 1360]
	add	x0, x29, 16
	bl	snprintf
.LVL168:
	.loc 1 612 0
	mov	w1, 0
	add	x0, x29, 16
	bl	run_command
.LVL169:
.L145:
	.loc 1 616 0
	bl	mpb_task_dump
.LVL170:
	b	.L156
.L144:
	.loc 1 610 0 discriminator 1
	mov	w0, 4
	bl	mpb_task_wait_done
.LVL171:
	.loc 1 609 0 discriminator 1
	cmp	w0, 0
	bgt	.L146
	b	.L145
.LVL172:
.L147:
	.cfi_def_cfa 31, 0
	.cfi_restore 29
	.cfi_restore 30
	.loc 1 621 0
	mov	x0, 0
.LVL173:
	ret
	.cfi_endproc
.LFE239:
	.size	mpb_post, .-mpb_post
	.section	.rodata
	.align	3
	.set	.LANCHOR3,. + 0
.LC0:
	.word	0
	.word	2
	.xword	spl_load_baseparamter
	.word	0
	.word	0
	.word	2
	.word	1
	.xword	spl_init_display
	.word	0
	.word	0
	.section	.bss.mpb_gd,"aw",@nobits
	.align	3
	.set	.LANCHOR2,. + 0
	.type	mpb_gd, %object
	.size	mpb_gd, 8
mpb_gd:
	.zero	8
	.section	.bss.once.6657,"aw",@nobits
	.align	2
	.set	.LANCHOR0,. + 0
	.type	once.6657, %object
	.size	once.6657, 4
once.6657:
	.zero	4
	.section	.rodata.core_task_run.part.2.str1.1,"aMS",@progbits,1
.LC11:
	.string	"-- T%d.%d [%d, %ld]\n"
.LC12:
	.string	"++ T%d.%d -\n"
.LC13:
	.string	"++ T%d.%d\n"
	.section	.rodata.mpb_init_x.str1.1,"aMS",@progbits,1
.LC14:
	.string	"U-Boot SPL MP\n"
	.section	.rodata.mpb_post.str1.1,"aMS",@progbits,1
.LC15:
	.string	"bootm 0x%lx"
	.section	.rodata.mpb_quit_load_image.str1.1,"aMS",@progbits,1
.LC1:
	.string	"++ serial boot\n"
	.section	.rodata.mpb_task_dump.str1.1,"aMS",@progbits,1
.LC2:
	.string	"data: %08lx, %08lx\n"
.LC3:
	.string	"T%d.%d:[%s]\n"
.LC4:
	.string	"  tid:              %d\n"
.LC5:
	.string	"  fn:               0x%08lx\n"
.LC6:
	.string	"  state:            0x%08x\n"
.LC7:
	.string	"  ret:              %d\n"
.LC8:
	.string	"  ms:               %ld\n"
.LC9:
	.string	"  ptid_mask:        0x%08x\n"
.LC10:
	.string	"  rip_fail:         %d\n\n"
	.section	.rodata.str1.1,"aMS",@progbits,1
.LC16:
	.string	"none"
.LC17:
	.string	"init-display"
.LC18:
	.string	"load-baseparameter"
.LC19:
	.string	"load-uboot"
.LC20:
	.string	"load-fit"
.LC21:
	.string	"load-android"
.LC22:
	.string	"hash-android"
.LC23:
	.string	"run-uboot"
	.section	.rodata.tid_name,"a",@progbits
	.align	3
	.set	.LANCHOR1,. + 0
	.type	tid_name, %object
	.size	tid_name, 64
tid_name:
	.xword	.LC16
	.xword	.LC17
	.xword	.LC18
	.xword	.LC19
	.xword	.LC20
	.xword	.LC21
	.xword	.LC22
	.xword	.LC23
	.text
.Letext0:
	.file 4 "include/common.h"
	.file 5 "./arch/arm/include/asm/types.h"
	.file 6 "include/linux/types.h"
	.file 7 "include/errno.h"
	.file 8 "include/linux/string.h"
	.file 9 "include/efi.h"
	.file 10 "include/ide.h"
	.file 11 "include/linux/list.h"
	.file 12 "include/part.h"
	.file 13 "include/flash.h"
	.file 14 "include/lmb.h"
	.file 15 "include/asm-generic/u-boot.h"
	.file 16 "./arch/arm/include/asm/u-boot-arm.h"
	.file 17 "include/linux/libfdt_env.h"
	.file 18 "include/linux/../../scripts/dtc/libfdt/fdt.h"
	.file 19 "include/linux/libfdt.h"
	.file 20 "include/image.h"
	.file 21 "./arch/arm/include/asm/global_data.h"
	.file 22 "include/asm-generic/global_data.h"
	.file 23 "include/net.h"
	.file 24 "include/dm/uclass-id.h"
	.file 25 "./arch/arm/include/asm/spl.h"
	.file 26 "include/spl.h"
	.file 27 "include/mp_boot.h"
	.file 28 "include/boot_rkimg.h"
	.file 29 "include/log.h"
	.file 30 "include/vsprintf.h"
	.file 31 "include/stdio.h"
	.section	.note.GNU-stack,"",@progbits
